head	1.2;
access;
symbols
	start:1.1.1.1 yoyo:1.1.1;
locks; strict;
comment	@# @;


1.2
date	2004.02.23.07.17.56;	author panda;	state Exp;
branches;
next	1.1;

1.1
date	2004.02.02.07.28.20;	author panda;	state Exp;
branches
	1.1.1.1;
next	;

1.1.1.1
date	2004.02.02.07.28.20;	author panda;	state Exp;
branches;
next	;


desc
@@


1.2
log
@*** empty log message ***
@
text
@Archive member included       because of file (symbol)

C:/agb/lib//libagbsyscall.a(AgbSysCpuFastSet.o)
                              cm_game.o (CpuFastSet)
C:/agb/lib//libagbsyscall.a(AgbSysCpuSet.o)
                              cm_game.o (CpuSet)
C:/agb/lib//libagbsyscall.a(AgbSysDiv.o)
                              m_title_sub.o (Div)
C:/agb/lib//libagbsyscall.a(AgbSysDivRem.o)
                              m_opening.o (DivRem)
C:/agb/lib//libagbsyscall.a(AgbSysHuffUnComp.o)
                              m_classic_play.o (HuffUnComp)
C:/agb/lib//libagbsyscall.a(AgbSysLZ77UnCompVram.o)
                              m_classic_play.o (LZ77UnCompVram)
C:/agb/lib//libagbsyscall.a(AgbSysMultiBoot.o)
                              MultiBoot.o (MultiBoot)
C:/agb/lib//libagbsyscall.a(AgbSysObjAffineSet.o)
                              um_oamset.o (ObjAffineSet)
C:/agb/lib//libagbsyscall.a(AgbSysRegisterRamReset.o)
                              cm_game.o (RegisterRamReset)
C:/agb/lib//libagbsyscall.a(AgbSysSoftReset.o)
                              m_game.o (SoftReset)
C:/agb/lib//libagbsyscall.a(AgbSysSoundBiasReset.o)
                              m_game.o (SoundBiasReset)
C:/agb/lib//libagbsyscall.a(AgbSysSoundBiasSet.o)
                              m_game.o (SoundBiasSet)
C:/agb/lib//libagbsyscall.a(AgbSysSqrt.o)
                              um_math.o (Sqrt)
C:/agb/lib//libagbsyscall.a(AgbSysSoftResetRom.o)
                              cm_game.o (SoftResetRom)
C:/agb/lib//libagbbackup.a(AgbEeprom.o)
                              ua_save.o (IdentifyEeprom)
USA_data/usa_data.a(ud_crosdt.o)
                              ua_score.o (tokuten_table)
USA_data/usa_data.a(ud_ending.o)
                              ua_ending.o (ending_HEBIDT)
USA_data/usa_data.a(ud_title_scl.o)
                              m_main.o (title_sclDT)
USA_data/usa_data.a(ud_game_base_chr.o)
                              ua_char_set.o (base_bg_char_table1)
USA_data/usa_data.a(ud_player_sch.o)
                              ua_char_set.o (d_player_schDT)
USA_data/usa_data.a(ud_base_col.o)
                              ua_color.o (W22CGDT)
USA_data/usa_data.a(ud_hajimari_sch.o)
                              um_select.o (d_hajimari_schDT)
USA_data/usa_data.a(ud_hajimari_obj_sch.o)
                              um_select.o (d_hajimari_obj_schDT)
USA_data/usa_data.a(ud_player_sel_scl.o)
                              um_select.o (d_player_sel_sclDT)
USA_data/usa_data.a(ud_player_sel_BG0_ssc.o)
                              um_select.o (d_player_sel_BG0_sscDTCP)
USA_data/usa_data.a(ud_player_sel_BG1_ssc.o)
                              um_select.o (d_player_sel_BG1_sscDTCP)
USA_data/usa_data.a(ud_player_sel_BG2_ssc.o)
                              um_select.o (d_player_sel_BG2_sscDTCP)
USA_data/usa_data.a(ud_player_sel_BG3_ssc.o)
                              um_select.o (d_player_sel_BG3_sscDTCP)
USA_data/usa_data.a(ud_hajimari_main_ssc.o)
                              um_select.o (d_hajimari_main_sscDTCP)
USA_data/usa_data.a(ud_hajimari_main_yossy_ssc.o)
                              um_select.o (d_hajimari_main_yossy_sscDTCP)
USA_data/usa_data.a(ud_hajimari_win2_ssc.o)
                              um_select.o (d_hajimari_win2_sscDTCP)
USA_data/usa_data.a(ud_hajimari_win_ssc.o)
                              um_select.o (d_hajimari_win_sscDTCP)
USA_data/usa_data.a(ud_hajimari_win_yossy_ssc.o)
                              um_select.o (d_hajimari_win_yossy_sscDTCP)
USA_data/usa_data.a(ud_redcoin_normal_ssc.o)
                              um_select.o (d_redcoin_normal_sscDTCP)
USA_data/usa_data.a(ud_redcoin_yossy_ssc.o)
                              um_select.o (d_redcoin_yossy_sscDTCP)
USA_data/usa_data.a(ud_course_sel_ssc.o)
                              um_select.o (d_course_sel_sscDTCP)
USA_data/usa_data.a(ud_hajimari_tenso_sch.o)
                              m_main.o (d_hajimari_tenso_schDT)
USA_data/usa_data.a(ud_bg3_sch.o)
                              ua_char_set.o (d_bg3_schDT)
USA_data/usa_data.a(ud_slot_ssc.o)
                              um_bonus.o (d_slot_sscDTCP)
USA_data/usa_data.a(ud_slot_BG1_ssc.o)
                              um_bonus.o (d_slot_BG1_sscDTCP)
USA_data/usa_data.a(ud_slot_BG2_ssc.o)
                              ua_game_over.o (ud_slot_BG2_sscDT)
USA_data/usa_data.a(ud_slot_scl.o)
                              um_bonus.o (d_leach_sclDT)
USA_data/usa_data.a(ud_slot_obj_sch.o)
                              um_bonus.o (d_slot_obj_schDT)
USA_data/usa_data.a(ud_slot_obj_scl.o)
                              um_bonus.o (d_slot_obj_sclDT)
USA_data/usa_data.a(ud_game_over_ssc.o)
                              ua_game_over.o (d_game_over_sscDT)
USA_data/usa_data.a(ud_warp_ssc.o)
                              ua_warp.o (d_warp_sscDT)
USA_data/usa_data.a(ud_pause_sch.o)
                              ua_char_set.o (ud_pause_schDT)
USA_data/usa_data.a(ud_ending_sch.o)
                              ua_char_set.o (ud_ending_schDT)
USA_data/usa_data.a(ud_ending_ssc.o)
                              ua_ending.o (ud_ending0_1_sscDT)
USA_data/usa_data.a(ud_ending_scl.o)
                              ua_color.o (ud_ending_sclDT)
USA_data/usa_data.a(ud_ending1_sch.o)
                              ua_char_set.o (ud_ending1_schDT)
USA_data/usa_data.a(ud_ending1_obj_sch.o)
                              ua_char_set.o (ud_ending1_obj_schDT)
USA_data/usa_data.a(ud_ending1_scl.o)
                              ua_color.o (ud_ending1_bg_sclDT)
USA_data/usa_data.a(ud_ending2_scl.o)
                              ua_color.o (ud_ending2_bg_sclDT)
USA_data/usa_data.a(ud_ending2_bg_sch.o)
                              ua_char_set.o (ud_ending2_bg_schDT)
USA_data/usa_data.a(ud_ending2_bg_base_sch.o)
                              ua_char_set.o (ud_ending2_bg_base_schDT)
USA_data/usa_data.a(ud_ending2_obj_sch.o)
                              ua_char_set.o (ud_ending2_obj_schDT)
USA_data/usa_data.a(ud_gondola_BG_sch.o)
                              ua_char_set.o (ud_gondola_BG_schDT)
USA_data/usa_data.a(ud_gondola_BG_scl.o)
                              ua_color.o (ud_gondola_BG_sclDT)
USA_data/usa_data.a(ud_gondola_BG2_ssc.o)
                              ua_course.o (ud_gondola_BG2_sscDT)
USA_data/usa_data.a(ud_gondola_BG3_ssc.o)
                              ua_course.o (ud_gondola_BG3_sscDT)
USA_data/usa_data.a(ud_gondola_OBJ_scl.o)
                              ua_color.o (ud_gondola_OBJ_sclDT)
USA_data/usa_data.a(ud_gondola_obj2_sch.o)
                              ua_char_set.o (ud_gondola_obj2_schDT)
USA_data/usa_data.a(ud_tubo_BG_scl.o)
                              ua_color.o (ud_tubo_BG_sclDT)
USA_data/usa_data.a(ud_bighakkun_sch.o)
                              ua_char_set.o (ud_bighakkun_schDT)
USA_data/usa_data.a(ud_unit.o)
                              ua_course.o (unit_data0)
USA_data/usa_data.a(ud_unit2.o)
                              ua_course.o (unit2_table)
USA_data/usa_data.a(ud_unit3.o)
                              ua_course.o (unit3_table)
USA_data/usa_data.a(ud_tubo_bg2.o)
                              ud_course_data.o (tubo_bg2_1)
USA_data/usa_data.a(ud_bg3.o)
                              ua_bg3_set.o (pattern_KUMOPAT)
USA_data/usa_data.a(ad_select_obj_sch.o)
                              m_title.o (ad_select_obj_schDT)
USA_data/usa_data.a(ad_select_obj_scl.o)
                              m_title.o (ad_select_obj_sclDT)
USA_data/usa_data.a(ad_select_bg_sch.o)
                              m_title.o (ad_select_bg_schDT)
USA_data/usa_data.a(ad_select_bg_scl.o)
                              m_title.o (ad_select_bg_sclDT)
USA_data/usa_data.a(ad_selectbg1_game_ssc.o)
                              m_main.o (ad_selectbg1_game_sscDT)
USA_data/usa_data.a(ad_selectbg1_file_ssc.o)
                              m_main.o (ad_selectbg1_file_sscDT)
USA_data/usa_data.a(ad_selectbg2_ssc.o)
                              m_main.o (ad_selectbg2_sscDT)
USA_data/usa_data.a(ad_selectbg2_2_ssc.o)
                              m_main.o (ad_selectbg2_2_sscDT)
USA_data/usa_data.a(ad_selectbg3_ssc.o)
                              m_title.o (ad_selectbg3_sscDTCP)
USA_data/usa_data.a(ad_selectbg4_ssc.o)
                              m_title.o (ad_selectbg4_sscDTCP)
USA_data/usa_data.a(ud_yoshi_scl.o)
                              um_yossy.o (d_yoshi_sclDT)
USA_data/usa_data.a(ud_yoshi_BG_sch.o)
                              um_yossy.o (d_yoshi_BG_schDT)
USA_data/usa_data.a(ud_yoshi_obj_sch.o)
                              um_yossy.o (d_yoshi_obj_schDT)
USA_data/usa_data.a(ud_yoshi_BG0_ssc.o)
                              um_yossy.o (d_yoshi_BG0_sscDTCP)
USA_data/usa_data.a(ud_yoshi_BG1_ssc.o)
                              um_result.o (d_yoshi_BG1_sscDTCP)
USA_data/usa_data.a(ud_yoshi_BG2_ssc.o)
                              um_yossy.o (d_yoshi_BG2_sscDT)
USA_data/usa_data.a(ud_player_selobj_scl.o)
                              um_select.o (d_player_selobj_sclDT)
USA_data/usa_data.a(ud_player_selobj_sch.o)
                              um_select.o (d_player_selobj_schDT)
USA_data/usa_data.a(ud_courseclear_sch.o)
                              um_courseclear.o (ud_courseclear_schDT)
USA_data/usa_data.a(ad_demo_4bit_sch.o)
                              m_main.o (d_demo_4bit_schDT)
USA_data/usa_data.a(ad_demo_8bit_sch.o)
                              m_title.o (d_demo_8bit_schDT)
USA_data/usa_data.a(ad_demo_8bit4bit_scl.o)
                              m_title.o (d_demo_8bit4bit_sclDT)
USA_data/usa_data.a(ad_demo_map_ssc.o)
                              m_title.o (d_demo_map_sscDT)
USA_data/usa_data.a(ad_demo_minititle_ssc.o)
                              m_main.o (d_demo_minititle_sscDT)
USA_data/usa_data.a(ad_demo_obj_sch.o)
                              m_title.o (d_demo_obj_schDT)
USA_data/usa_data.a(ad_demo_obj_scl.o)
                              m_title.o (d_demo_obj_sclDT)
USA_data/usa_data.a(ad_demo_sky_ssc.o)
                              m_title.o (d_demo_sky_sscDT)
USA_data/usa_data.a(ad_demo_usatitle_ssc.o)
                              m_main.o (d_demo_usatitle_sscDT)
USA_data/usa_data.a(ad_demo_mask_ssc.o)
                              m_title.o (d_demo_mask_sscDT)
USA_data/usa_data.a(ad_demo_sky4bit_scl.o)
                              m_title.o (d_demo_sky4bit_sclDT)
USA_data/usa_data.a(ud_back_up_sch.o)
                              m_erase.o (ud_back_up_schDT)
USA_data/usa_data.a(ud_back_up_scl.o)
                              m_erase.o (ud_back_up_sclDT)
USA_data/usa_data.a(ud_waku_base_sch.o)
                              ua_char_set.o (ud_waku_base_schDT)
USA_data/usa_data.a(ud_waku_tenso_sch.o)
                              ua_char_set.o (ud_waku_tenso_schDT)
COS_data/usa_cos.a(ud_cos1_1_0.o)
                              ud_course_data.o (cos1_1_0CP)
COS_data/usa_cos.a(ud_cos1_1_1.o)
                              ud_course_data.o (cos1_1_1CP)
COS_data/usa_cos.a(ud_cos1_1_2.o)
                              ud_course_data.o (cos1_1_2CP)
COS_data/usa_cos.a(ud_cos1_1_3.o)
                              ud_course_data.o (cos1_1_3CP)
COS_data/usa_cos.a(ud_cos1_1_4.o)
                              ud_course_data.o (cos1_1_4CP)
COS_data/usa_cos.a(ud_cos1_1_5.o)
                              ud_course_data.o (cos1_1_5CP)
COS_data/usa_cos.a(ud_cos1_2_0.o)
                              ud_course_data.o (cos1_2_0CP)
COS_data/usa_cos.a(ud_cos1_2_1.o)
                              ud_course_data.o (cos1_2_1CP)
COS_data/usa_cos.a(ud_cos1_2_2.o)
                              ud_course_data.o (cos1_2_2CP)
COS_data/usa_cos.a(ud_cos1_2_3.o)
                              ud_course_data.o (cos1_2_3CP)
COS_data/usa_cos.a(ud_cos1_2_4.o)
                              ud_course_data.o (cos1_2_4CP)
COS_data/usa_cos.a(ud_cos1_3_0.o)
                              ud_course_data.o (cos1_3_0CP)
COS_data/usa_cos.a(ud_cos1_3_1.o)
                              ud_course_data.o (cos1_3_1CP)
COS_data/usa_cos.a(ud_cos1_3_2.o)
                              ud_course_data.o (cos1_3_2CP)
COS_data/usa_cos.a(ud_cos1_3_3.o)
                              ud_course_data.o (cos1_3_3CP)
COS_data/usa_cos.a(ud_cos1_3_4.o)
                              ud_course_data.o (cos1_3_4CP)
COS_data/usa_cos.a(ud_cos2_1_0.o)
                              ud_course_data.o (cos2_1_0CP)
COS_data/usa_cos.a(ud_cos2_1_1.o)
                              ud_course_data.o (cos2_1_1CP)
COS_data/usa_cos.a(ud_cos2_1_2.o)
                              ud_course_data.o (cos2_1_2CP)
COS_data/usa_cos.a(ud_cos2_1_3.o)
                              ud_course_data.o (cos2_1_3CP)
COS_data/usa_cos.a(ud_cos2_1_4.o)
                              ud_course_data.o (cos2_1_4CP)
COS_data/usa_cos.a(ud_cos2_2_0.o)
                              ud_course_data.o (cos2_2_0CP)
COS_data/usa_cos.a(ud_cos2_2_1.o)
                              ud_course_data.o (cos2_2_1CP)
COS_data/usa_cos.a(ud_cos2_2_2.o)
                              ud_course_data.o (cos2_2_2CP)
COS_data/usa_cos.a(ud_cos2_2_3.o)
                              ud_course_data.o (cos2_2_3CP)
COS_data/usa_cos.a(ud_cos2_2_4.o)
                              ud_course_data.o (cos2_2_4CP)
COS_data/usa_cos.a(ud_cos2_2_5.o)
                              ud_course_data.o (cos2_2_5CP)
COS_data/usa_cos.a(ud_cos2_2_6.o)
                              ud_course_data.o (cos2_2_6CP)
COS_data/usa_cos.a(ud_cos2_2_7.o)
                              ud_course_data.o (cos2_2_7CP)
COS_data/usa_cos.a(ud_cos2_3_0.o)
                              ud_course_data.o (cos2_3_0CP)
COS_data/usa_cos.a(ud_cos2_3_1.o)
                              ud_course_data.o (cos2_3_1CP)
COS_data/usa_cos.a(ud_cos2_3_2.o)
                              ud_course_data.o (cos2_3_2CP)
COS_data/usa_cos.a(ud_cos2_3_3.o)
                              ud_course_data.o (cos2_3_3CP)
COS_data/usa_cos.a(ud_cos2_3_4.o)
                              ud_course_data.o (cos2_3_4CP)
COS_data/usa_cos.a(ud_cos2_3_5.o)
                              ud_course_data.o (cos2_3_5CP)
COS_data/usa_cos.a(ud_cos2_3_6.o)
                              ud_course_data.o (cos2_3_6CP)
COS_data/usa_cos.a(ud_cos2_3_7.o)
                              ud_course_data.o (cos2_3_7CP)
COS_data/usa_cos.a(ud_cos3_1_0.o)
                              ud_course_data.o (cos3_1_0CP)
COS_data/usa_cos.a(ud_cos3_1_1.o)
                              ud_course_data.o (cos3_1_1CP)
COS_data/usa_cos.a(ud_cos3_1_2.o)
                              ud_course_data.o (cos3_1_2CP)
COS_data/usa_cos.a(ud_cos3_1_3.o)
                              ud_course_data.o (cos3_1_3CP)
COS_data/usa_cos.a(ud_cos3_1_4.o)
                              ud_course_data.o (cos3_1_4CP)
COS_data/usa_cos.a(ud_cos3_1_5.o)
                              ud_course_data.o (cos3_1_5CP)
COS_data/usa_cos.a(ud_cos3_2_0.o)
                              ud_course_data.o (cos3_2_0CP)
COS_data/usa_cos.a(ud_cos3_2_1.o)
                              ud_course_data.o (cos3_2_1CP)
COS_data/usa_cos.a(ud_cos3_2_2.o)
                              ud_course_data.o (cos3_2_2CP)
COS_data/usa_cos.a(ud_cos3_3_0.o)
                              ud_course_data.o (cos3_3_0CP)
COS_data/usa_cos.a(ud_cos3_3_1.o)
                              ud_course_data.o (cos3_3_1CP)
COS_data/usa_cos.a(ud_cos3_3_2.o)
                              ud_course_data.o (cos3_3_2CP)
COS_data/usa_cos.a(ud_cos3_3_3.o)
                              ud_course_data.o (cos3_3_3CP)
COS_data/usa_cos.a(ud_cos3_3_4.o)
                              ud_course_data.o (cos3_3_4CP)
COS_data/usa_cos.a(ud_cos3_3_5.o)
                              ud_course_data.o (cos3_3_5CP)
COS_data/usa_cos.a(ud_cos3_3_6.o)
                              ud_course_data.o (cos3_3_6CP)
COS_data/usa_cos.a(ud_cos3_3_7.o)
                              ud_course_data.o (cos3_3_7CP)
COS_data/usa_cos.a(ud_cos3_3_8.o)
                              ud_course_data.o (cos3_3_8CP)
COS_data/usa_cos.a(ud_cos4_1_0.o)
                              ud_course_data.o (cos4_1_0CP)
COS_data/usa_cos.a(ud_cos4_1_1.o)
                              ud_course_data.o (cos4_1_1CP)
COS_data/usa_cos.a(ud_cos4_1_2.o)
                              ud_course_data.o (cos4_1_2CP)
COS_data/usa_cos.a(ud_cos4_1_4.o)
                              ud_course_data.o (cos4_1_4CP)
COS_data/usa_cos.a(ud_cos4_2_0.o)
                              ud_course_data.o (cos4_2_0CP)
COS_data/usa_cos.a(ud_cos4_2_1.o)
                              ud_course_data.o (cos4_2_1CP)
COS_data/usa_cos.a(ud_cos4_2_2.o)
                              ud_course_data.o (cos4_2_2CP)
COS_data/usa_cos.a(ud_cos4_2_3.o)
                              ud_course_data.o (cos4_2_3CP)
COS_data/usa_cos.a(ud_cos4_2_4.o)
                              ud_course_data.o (cos4_2_4CP)
COS_data/usa_cos.a(ud_cos4_3_0.o)
                              ud_course_data.o (cos4_3_0CP)
COS_data/usa_cos.a(ud_cos4_3_1.o)
                              ud_course_data.o (cos4_3_1CP)
COS_data/usa_cos.a(ud_cos4_3_2.o)
                              ud_course_data.o (cos4_3_2CP)
COS_data/usa_cos.a(ud_cos4_3_3.o)
                              ud_course_data.o (cos4_3_3CP)
COS_data/usa_cos.a(ud_cos4_3_4.o)
                              ud_course_data.o (cos4_3_4CP)
COS_data/usa_cos.a(ud_cos4_3_5.o)
                              ud_course_data.o (cos4_3_5CP)
COS_data/usa_cos.a(ud_cos4_3_6.o)
                              ud_course_data.o (cos4_3_6CP)
COS_data/usa_cos.a(ud_cos4_3_7.o)
                              ud_course_data.o (cos4_3_7CP)
COS_data/usa_cos.a(ud_cos5_1_0.o)
                              ud_course_data.o (cos5_1_0CP)
COS_data/usa_cos.a(ud_cos5_1_1.o)
                              ud_course_data.o (cos5_1_1CP)
COS_data/usa_cos.a(ud_cos5_1_2.o)
                              ud_course_data.o (cos5_1_2CP)
COS_data/usa_cos.a(ud_cos5_2_0.o)
                              ud_course_data.o (cos5_2_0CP)
COS_data/usa_cos.a(ud_cos5_2_1.o)
                              ud_course_data.o (cos5_2_1CP)
COS_data/usa_cos.a(ud_cos5_2_2.o)
                              ud_course_data.o (cos5_2_2CP)
COS_data/usa_cos.a(ud_cos5_2_3.o)
                              ud_course_data.o (cos5_2_3CP)
COS_data/usa_cos.a(ud_cos5_2_4.o)
                              ud_course_data.o (cos5_2_4CP)
COS_data/usa_cos.a(ud_cos5_2_5.o)
                              ud_course_data.o (cos5_2_5CP)
COS_data/usa_cos.a(ud_cos5_3_0.o)
                              ud_course_data.o (cos5_3_0CP)
COS_data/usa_cos.a(ud_cos5_3_1.o)
                              ud_course_data.o (cos5_3_1CP)
COS_data/usa_cos.a(ud_cos5_3_2.o)
                              ud_course_data.o (cos5_3_2CP)
COS_data/usa_cos.a(ud_cos5_3_3.o)
                              ud_course_data.o (cos5_3_3CP)
COS_data/usa_cos.a(ud_cos5_3_4.o)
                              ud_course_data.o (cos5_3_4CP)
COS_data/usa_cos.a(ud_cos5_3_5.o)
                              ud_course_data.o (cos5_3_5CP)
COS_data/usa_cos.a(ud_cos6_1_0.o)
                              ud_course_data.o (cos6_1_0CP)
COS_data/usa_cos.a(ud_cos6_1_1.o)
                              ud_course_data.o (cos6_1_1CP)
COS_data/usa_cos.a(ud_cos6_1_2.o)
                              ud_course_data.o (cos6_1_2CP)
COS_data/usa_cos.a(ud_cos6_1_3.o)
                              ud_course_data.o (cos6_1_3CP)
COS_data/usa_cos.a(ud_cos6_1_4.o)
                              ud_course_data.o (cos6_1_4CP)
COS_data/usa_cos.a(ud_cos6_1_5.o)
                              ud_course_data.o (cos6_1_5CP)
COS_data/usa_cos.a(ud_cos6_1_6.o)
                              ud_course_data.o (cos6_1_6CP)
COS_data/usa_cos.a(ud_cos6_1_7.o)
                              ud_course_data.o (cos6_1_7CP)
COS_data/usa_cos.a(ud_cos6_2_0.o)
                              ud_course_data.o (cos6_2_0CP)
COS_data/usa_cos.a(ud_cos6_2_1.o)
                              ud_course_data.o (cos6_2_1CP)
COS_data/usa_cos.a(ud_cos6_2_2.o)
                              ud_course_data.o (cos6_2_2CP)
COS_data/usa_cos.a(ud_cos6_3_0.o)
                              ud_course_data.o (cos6_3_0CP)
COS_data/usa_cos.a(ud_cos6_3_1.o)
                              ud_course_data.o (cos6_3_1CP)
COS_data/usa_cos.a(ud_cos6_3_2.o)
                              ud_course_data.o (cos6_3_2CP)
COS_data/usa_cos.a(ud_cos6_3_3.o)
                              ud_course_data.o (cos6_3_3CP)
COS_data/usa_cos.a(ud_cos6_3_4.o)
                              ud_course_data.o (cos6_3_4CP)
COS_data/usa_cos.a(ud_cos6_3_5.o)
                              ud_course_data.o (cos6_3_5CP)
COS_data/usa_cos.a(ud_cos6_3_6.o)
                              ud_course_data.o (cos6_3_6CP)
COS_data/usa_cos.a(ud_cos6_3_7.o)
                              ud_course_data.o (cos6_3_7CP)
COS_data/usa_cos.a(ud_cos7_1_0.o)
                              ud_course_data.o (cos7_1_0CP)
COS_data/usa_cos.a(ud_cos7_1_1.o)
                              ud_course_data.o (cos7_1_1CP)
COS_data/usa_cos.a(ud_cos7_1_2.o)
                              ud_course_data.o (cos7_1_2CP)
COS_data/usa_cos.a(ud_cos7_1_3.o)
                              ud_course_data.o (cos7_1_3CP)
COS_data/usa_cos.a(ud_cos7_1_4.o)
                              ud_course_data.o (cos7_1_4CP)
COS_data/usa_cos.a(ud_cos7_1_5.o)
                              ud_course_data.o (cos7_1_5CP)
COS_data/usa_cos.a(ud_cos7_2_0.o)
                              ud_course_data.o (cos7_2_0CP)
COS_data/usa_cos.a(ud_cos7_2_1.o)
                              ud_course_data.o (cos7_2_1CP)
COS_data/usa_cos.a(ud_cos7_2_2.o)
                              ud_course_data.o (cos7_2_2CP)
COS_data/usa_cos.a(ud_cos7_2_3.o)
                              ud_course_data.o (cos7_2_3CP)
COS_data/usa_cos.a(ud_cos7_2_4.o)
                              ud_course_data.o (cos7_2_4CP)
COS_data/usa_cos.a(ud_cos7_2_5.o)
                              ud_course_data.o (cos7_2_5CP)
COS_data/usa_cos.a(ud_cos7_2_6.o)
                              ud_course_data.o (cos7_2_6CP)
COS_data/usa_cos.a(ud_cos7_2_7.o)
                              ud_course_data.o (cos7_2_7CP)
COS_data/usa_cos.a(ud_cos7_2_8.o)
                              ud_course_data.o (cos7_2_8CP)
COS_data/usa_cos.a(ud_cos7_2_9.o)
                              ud_course_data.o (cos7_2_9CP)
COS_data/usa_cos.a(ud_cos21_1.o)
                              ud_course_data.o (cos21_1_0CP)
COS_data/usa_cos.a(ud_cos21_3.o)
                              ud_course_data.o (cos21_3_1CP)
COS_data/usa_cos.a(ud_cos22_1.o)
                              ud_course_data.o (cos22_1_0CP)
COS_data/usa_cos.a(ud_cos22_2.o)
                              ud_course_data.o (cos22_2_0CP)
COS_data/usa_cos.a(ud_cos22_3.o)
                              ud_course_data.o (cos22_3_6CP)
COS_data/usa_cos.a(ud_cos23_1.o)
                              ud_course_data.o (cos23_1_0CP)
COS_data/usa_cos.a(ud_cos23_2.o)
                              ud_course_data.o (cos23_2_0CP)
COS_data/usa_cos.a(ud_cos23_3.o)
                              ud_course_data.o (cos23_3_7CP)
COS_data/usa_cos.a(ud_cos24_1.o)
                              ud_course_data.o (cos24_1_0CP)
COS_data/usa_cos.a(ud_cos24_2.o)
                              ud_course_data.o (cos24_2_0CP)
COS_data/usa_cos.a(ud_cos24_3.o)
                              ud_course_data.o (cos24_3_4CP)
COS_data/usa_cos.a(ud_cos25_1.o)
                              ud_course_data.o (cos25_1_0CP)
COS_data/usa_cos.a(ud_cos25_2.o)
                              ud_course_data.o (cos25_2_1CP)
COS_data/usa_cos.a(ud_cos25_3.o)
                              ud_course_data.o (cos25_3_3CP)
COS_data/usa_cos.a(ud_cos26_1.o)
                              ud_course_data.o (cos26_1_3CP)
COS_data/usa_cos.a(ud_cos26_2.o)
                              ud_course_data.o (cos26_2_1CP)
COS_data/usa_cos.a(ud_cos26_3.o)
                              ud_course_data.o (cos26_3_4CP)
COS_data/usa_cos.a(ud_cos27_1.o)
                              ud_course_data.o (cos27_1_1CP)
COS_data/usa_cos.a(ud_cos27_2.o)
                              ud_course_data.o (cos27_2_0CP)
COS_data/usa_cos.a(ud_tubo.o)
                              ud_course_data.o (tubo1_1)
COS_data/usa_cos.a(ud_next_goto.o)
                              ua_course.o (next_data)
C:\PROGRA~1\Cygnus\thumbelf-000512\H-i686-cygwin32\bin/../lib/gcc-lib/thumb-elf/2.9-arm-000512/libgcc.a(_call_via_rX.o)
                              ba_player.o (_call_via_r1)
C:\PROGRA~1\Cygnus\thumbelf-000512\H-i686-cygwin32\bin/../lib/gcc-lib/thumb-elf/2.9-arm-000512/libgcc.a(_divsi3.o)
                              ua_game.o (__divsi3)
C:\PROGRA~1\Cygnus\thumbelf-000512\H-i686-cygwin32\bin/../lib/gcc-lib/thumb-elf/2.9-arm-000512/libgcc.a(_dvmd_tls.o)
                              C:\PROGRA~1\Cygnus\thumbelf-000512\H-i686-cygwin32\bin/../lib/gcc-lib/thumb-elf/2.9-arm-000512/libgcc.a(_divsi3.o) (__div0)
C:\PROGRA~1\Cygnus\thumbelf-000512\H-i686-cygwin32\bin/../lib/gcc-lib/thumb-elf/2.9-arm-000512/libgcc.a(_udivsi3.o)
                              ba_player.o (__udivsi3)
C:\PROGRA~1\Cygnus\thumbelf-000512\H-i686-cygwin32\bin/../lib/gcc-lib/thumb-elf/2.9-arm-000512/libgcc.a(_umodsi3.o)
                              ba_player.o (__umodsi3)
C:\PROGRA~1\Cygnus\thumbelf-000512\H-i686-cygwin32\bin/../lib/gcc-lib/thumb-elf/2.9-arm-000512/../../../../thumb-elf/lib/libg.a(assert.o)
                              m_mini_malloc.o (__assert)
C:\PROGRA~1\Cygnus\thumbelf-000512\H-i686-cygwin32\bin/../lib/gcc-lib/thumb-elf/2.9-arm-000512/../../../../thumb-elf/lib/libg.a(fiprintf.o)
                              C:\PROGRA~1\Cygnus\thumbelf-000512\H-i686-cygwin32\bin/../lib/gcc-lib/thumb-elf/2.9-arm-000512/../../../../thumb-elf/lib/libg.a(assert.o) (fiprintf)
C:\PROGRA~1\Cygnus\thumbelf-000512\H-i686-cygwin32\bin/../lib/gcc-lib/thumb-elf/2.9-arm-000512/../../../../thumb-elf/lib/libg.a(impure.o)
                              C:\PROGRA~1\Cygnus\thumbelf-000512\H-i686-cygwin32\bin/../lib/gcc-lib/thumb-elf/2.9-arm-000512/../../../../thumb-elf/lib/libg.a(assert.o) (_impure_ptr)
C:\PROGRA~1\Cygnus\thumbelf-000512\H-i686-cygwin32\bin/../lib/gcc-lib/thumb-elf/2.9-arm-000512/../../../../thumb-elf/lib/libg.a(libcfunc.o)
                              C:\PROGRA~1\Cygnus\thumbelf-000512\H-i686-cygwin32\bin/../lib/gcc-lib/thumb-elf/2.9-arm-000512/../../../../thumb-elf/lib/libg.a(assert.o) (abort)
C:\PROGRA~1\Cygnus\thumbelf-000512\H-i686-cygwin32\bin/../lib/gcc-lib/thumb-elf/2.9-arm-000512/../../../../thumb-elf/lib/libg.a(memcpy.o)
                              ba_player.o (memcpy)
C:\PROGRA~1\Cygnus\thumbelf-000512\H-i686-cygwin32\bin/../lib/gcc-lib/thumb-elf/2.9-arm-000512/../../../../thumb-elf/lib/libg.a(memset.o)
                              ua_sort.o (memset)
C:\PROGRA~1\Cygnus\thumbelf-000512\H-i686-cygwin32\bin/../lib/gcc-lib/thumb-elf/2.9-arm-000512/../../../../thumb-elf/lib/libg.a(vfiprintf.o)
                              C:\PROGRA~1\Cygnus\thumbelf-000512\H-i686-cygwin32\bin/../lib/gcc-lib/thumb-elf/2.9-arm-000512/../../../../thumb-elf/lib/libg.a(fiprintf.o) (vfiprintf)
C:\PROGRA~1\Cygnus\thumbelf-000512\H-i686-cygwin32\bin/../lib/gcc-lib/thumb-elf/2.9-arm-000512/../../../../thumb-elf/lib/libg.a(wsetup.o)
                              C:\PROGRA~1\Cygnus\thumbelf-000512\H-i686-cygwin32\bin/../lib/gcc-lib/thumb-elf/2.9-arm-000512/../../../../thumb-elf/lib/libg.a(vfiprintf.o) (__swsetup)
C:\PROGRA~1\Cygnus\thumbelf-000512\H-i686-cygwin32\bin/../lib/gcc-lib/thumb-elf/2.9-arm-000512/../../../../thumb-elf/lib/libg.a(fflush.o)
                              C:\PROGRA~1\Cygnus\thumbelf-000512\H-i686-cygwin32\bin/../lib/gcc-lib/thumb-elf/2.9-arm-000512/../../../../thumb-elf/lib/libg.a(vfiprintf.o) (fflush)
C:\PROGRA~1\Cygnus\thumbelf-000512\H-i686-cygwin32\bin/../lib/gcc-lib/thumb-elf/2.9-arm-000512/../../../../thumb-elf/lib/libg.a(findfp.o)
                              C:\PROGRA~1\Cygnus\thumbelf-000512\H-i686-cygwin32\bin/../lib/gcc-lib/thumb-elf/2.9-arm-000512/../../../../thumb-elf/lib/libg.a(vfiprintf.o) (__sinit)
C:\PROGRA~1\Cygnus\thumbelf-000512\H-i686-cygwin32\bin/../lib/gcc-lib/thumb-elf/2.9-arm-000512/../../../../thumb-elf/lib/libg.a(freer.o)
                              C:\PROGRA~1\Cygnus\thumbelf-000512\H-i686-cygwin32\bin/../lib/gcc-lib/thumb-elf/2.9-arm-000512/../../../../thumb-elf/lib/libg.a(wsetup.o) (_free_r)
C:\PROGRA~1\Cygnus\thumbelf-000512\H-i686-cygwin32\bin/../lib/gcc-lib/thumb-elf/2.9-arm-000512/../../../../thumb-elf/lib/libg.a(fvwrite.o)
                              C:\PROGRA~1\Cygnus\thumbelf-000512\H-i686-cygwin32\bin/../lib/gcc-lib/thumb-elf/2.9-arm-000512/../../../../thumb-elf/lib/libg.a(vfiprintf.o) (__sfvwrite)
C:\PROGRA~1\Cygnus\thumbelf-000512\H-i686-cygwin32\bin/../lib/gcc-lib/thumb-elf/2.9-arm-000512/../../../../thumb-elf/lib/libg.a(fwalk.o)
                              C:\PROGRA~1\Cygnus\thumbelf-000512\H-i686-cygwin32\bin/../lib/gcc-lib/thumb-elf/2.9-arm-000512/../../../../thumb-elf/lib/libg.a(fflush.o) (_fwalk)
C:\PROGRA~1\Cygnus\thumbelf-000512\H-i686-cygwin32\bin/../lib/gcc-lib/thumb-elf/2.9-arm-000512/../../../../thumb-elf/lib/libg.a(locale.o)
                              C:\PROGRA~1\Cygnus\thumbelf-000512\H-i686-cygwin32\bin/../lib/gcc-lib/thumb-elf/2.9-arm-000512/../../../../thumb-elf/lib/libg.a(vfiprintf.o) (__mb_cur_max)
C:\PROGRA~1\Cygnus\thumbelf-000512\H-i686-cygwin32\bin/../lib/gcc-lib/thumb-elf/2.9-arm-000512/../../../../thumb-elf/lib/libg.a(makebuf.o)
                              C:\PROGRA~1\Cygnus\thumbelf-000512\H-i686-cygwin32\bin/../lib/gcc-lib/thumb-elf/2.9-arm-000512/../../../../thumb-elf/lib/libg.a(wsetup.o) (__smakebuf)
C:\PROGRA~1\Cygnus\thumbelf-000512\H-i686-cygwin32\bin/../lib/gcc-lib/thumb-elf/2.9-arm-000512/../../../../thumb-elf/lib/libg.a(mallocr.o)
                              C:\PROGRA~1\Cygnus\thumbelf-000512\H-i686-cygwin32\bin/../lib/gcc-lib/thumb-elf/2.9-arm-000512/../../../../thumb-elf/lib/libg.a(freer.o) (__malloc_av_)
C:\PROGRA~1\Cygnus\thumbelf-000512\H-i686-cygwin32\bin/../lib/gcc-lib/thumb-elf/2.9-arm-000512/../../../../thumb-elf/lib/libg.a(mbtowc_r.o)
                              C:\PROGRA~1\Cygnus\thumbelf-000512\H-i686-cygwin32\bin/../lib/gcc-lib/thumb-elf/2.9-arm-000512/../../../../thumb-elf/lib/libg.a(vfiprintf.o) (_mbtowc_r)
C:\PROGRA~1\Cygnus\thumbelf-000512\H-i686-cygwin32\bin/../lib/gcc-lib/thumb-elf/2.9-arm-000512/../../../../thumb-elf/lib/libg.a(memchr.o)
                              C:\PROGRA~1\Cygnus\thumbelf-000512\H-i686-cygwin32\bin/../lib/gcc-lib/thumb-elf/2.9-arm-000512/../../../../thumb-elf/lib/libg.a(vfiprintf.o) (memchr)
C:\PROGRA~1\Cygnus\thumbelf-000512\H-i686-cygwin32\bin/../lib/gcc-lib/thumb-elf/2.9-arm-000512/../../../../thumb-elf/lib/libg.a(memmove.o)
                              C:\PROGRA~1\Cygnus\thumbelf-000512\H-i686-cygwin32\bin/../lib/gcc-lib/thumb-elf/2.9-arm-000512/../../../../thumb-elf/lib/libg.a(fvwrite.o) (memmove)
C:\PROGRA~1\Cygnus\thumbelf-000512\H-i686-cygwin32\bin/../lib/gcc-lib/thumb-elf/2.9-arm-000512/../../../../thumb-elf/lib/libg.a(mlock.o)
                              C:\PROGRA~1\Cygnus\thumbelf-000512\H-i686-cygwin32\bin/../lib/gcc-lib/thumb-elf/2.9-arm-000512/../../../../thumb-elf/lib/libg.a(freer.o) (__malloc_lock)
C:\PROGRA~1\Cygnus\thumbelf-000512\H-i686-cygwin32\bin/../lib/gcc-lib/thumb-elf/2.9-arm-000512/../../../../thumb-elf/lib/libg.a(sbrkr.o)
                              C:\PROGRA~1\Cygnus\thumbelf-000512\H-i686-cygwin32\bin/../lib/gcc-lib/thumb-elf/2.9-arm-000512/../../../../thumb-elf/lib/libg.a(freer.o) (_sbrk_r)
C:\PROGRA~1\Cygnus\thumbelf-000512\H-i686-cygwin32\bin/../lib/gcc-lib/thumb-elf/2.9-arm-000512/../../../../thumb-elf/lib/libg.a(stdio.o)
                              C:\PROGRA~1\Cygnus\thumbelf-000512\H-i686-cygwin32\bin/../lib/gcc-lib/thumb-elf/2.9-arm-000512/../../../../thumb-elf/lib/libg.a(findfp.o) (__sread)
C:\PROGRA~1\Cygnus\thumbelf-000512\H-i686-cygwin32\bin/../lib/gcc-lib/thumb-elf/2.9-arm-000512/../../../../thumb-elf/lib/libg.a(strcmp.o)
                              C:\PROGRA~1\Cygnus\thumbelf-000512\H-i686-cygwin32\bin/../lib/gcc-lib/thumb-elf/2.9-arm-000512/../../../../thumb-elf/lib/libg.a(locale.o) (strcmp)
C:\PROGRA~1\Cygnus\thumbelf-000512\H-i686-cygwin32\bin/../lib/gcc-lib/thumb-elf/2.9-arm-000512/../../../../thumb-elf/lib/libg.a(strlen.o)
                              C:\PROGRA~1\Cygnus\thumbelf-000512\H-i686-cygwin32\bin/../lib/gcc-lib/thumb-elf/2.9-arm-000512/../../../../thumb-elf/lib/libg.a(vfiprintf.o) (strlen)
C:\PROGRA~1\Cygnus\thumbelf-000512\H-i686-cygwin32\bin/../lib/gcc-lib/thumb-elf/2.9-arm-000512/../../../../thumb-elf/lib/libg.a(syscalls.o)
                              C:\PROGRA~1\Cygnus\thumbelf-000512\H-i686-cygwin32\bin/../lib/gcc-lib/thumb-elf/2.9-arm-000512/../../../../thumb-elf/lib/libg.a(sbrkr.o) (_sbrk)
C:\PROGRA~1\Cygnus\thumbelf-000512\H-i686-cygwin32\bin/../lib/gcc-lib/thumb-elf/2.9-arm-000512/../../../../thumb-elf/lib/libg.a(writer.o)
                              C:\PROGRA~1\Cygnus\thumbelf-000512\H-i686-cygwin32\bin/../lib/gcc-lib/thumb-elf/2.9-arm-000512/../../../../thumb-elf/lib/libg.a(stdio.o) (_write_r)
C:\PROGRA~1\Cygnus\thumbelf-000512\H-i686-cygwin32\bin/../lib/gcc-lib/thumb-elf/2.9-arm-000512/../../../../thumb-elf/lib/libg.a(closer.o)
                              C:\PROGRA~1\Cygnus\thumbelf-000512\H-i686-cygwin32\bin/../lib/gcc-lib/thumb-elf/2.9-arm-000512/../../../../thumb-elf/lib/libg.a(stdio.o) (_close_r)
C:\PROGRA~1\Cygnus\thumbelf-000512\H-i686-cygwin32\bin/../lib/gcc-lib/thumb-elf/2.9-arm-000512/../../../../thumb-elf/lib/libg.a(errno.o)
                              C:\PROGRA~1\Cygnus\thumbelf-000512\H-i686-cygwin32\bin/../lib/gcc-lib/thumb-elf/2.9-arm-000512/../../../../thumb-elf/lib/libg.a(syscalls.o) (__errno)
C:\PROGRA~1\Cygnus\thumbelf-000512\H-i686-cygwin32\bin/../lib/gcc-lib/thumb-elf/2.9-arm-000512/../../../../thumb-elf/lib/libg.a(fstatr.o)
                              C:\PROGRA~1\Cygnus\thumbelf-000512\H-i686-cygwin32\bin/../lib/gcc-lib/thumb-elf/2.9-arm-000512/../../../../thumb-elf/lib/libg.a(makebuf.o) (_fstat_r)
C:\PROGRA~1\Cygnus\thumbelf-000512\H-i686-cygwin32\bin/../lib/gcc-lib/thumb-elf/2.9-arm-000512/../../../../thumb-elf/lib/libg.a(lseekr.o)
                              C:\PROGRA~1\Cygnus\thumbelf-000512\H-i686-cygwin32\bin/../lib/gcc-lib/thumb-elf/2.9-arm-000512/../../../../thumb-elf/lib/libg.a(stdio.o) (_lseek_r)
C:\PROGRA~1\Cygnus\thumbelf-000512\H-i686-cygwin32\bin/../lib/gcc-lib/thumb-elf/2.9-arm-000512/../../../../thumb-elf/lib/libg.a(readr.o)
                              C:\PROGRA~1\Cygnus\thumbelf-000512\H-i686-cygwin32\bin/../lib/gcc-lib/thumb-elf/2.9-arm-000512/../../../../thumb-elf/lib/libg.a(stdio.o) (_read_r)

Allocating common symbols
Common symbol       size              file

child_bin_start     0x4               m_vs.o
p_ply               0x4               up_player.o
PAUSEF              0x4               m_classic_play.o
UsrSendBuf          0x4               m_VsMain.o
work1               0x28              ua_save.o
m4a_sound           0xfb0             sound/m4aLib.o
child_bin_length    0x4               m_vs.o
usa_game            0x4               m_main.o
eeprom              0x4               C:/agb/lib//libagbbackup.a(AgbEeprom.o)
errno               0x4               C:\PROGRA~1\Cygnus\thumbelf-000512\H-i686-cygwin32\bin/../lib/gcc-lib/thumb-elf/2.9-arm-000512/../../../../thumb-elf/lib/libg.a(sbrkr.o)
m4a_mplay013        0x40              sound/SoundDat.o
game                0x4194            m_main.o
YOS_DATA            0x4               um_yossy.o
m4a_mplay005        0x40              sound/SoundDat.o
m4a_mplay030        0x40              sound/SoundDat.o
IntrTableBuf        0x38              m_main.o
m4a_mplay016        0x40              sound/SoundDat.o
p_eff               0x4               ua_stareffect.o
m4a_mplay009        0x40              sound/SoundDat.o
m4a_mplay006        0x40              sound/SoundDat.o
m4a_mplay000        0x40              sound/SoundDat.o
ExtMPlyJmpTbl       0x90              sound/m4aLib.o
Deaffp              0x8               ua_act.o
p_tsl               0x4               m_title.o
multiboot_status    0x4c              m_vs.o
SioModeFlg          0x4               m_VsMain.o
SioFlags            0x4               m_VsMain.o
m4a_mplay014        0x40              sound/SoundDat.o
m4a_cgbchn          0x100             sound/m4aLib.o
ConnectFlg          0x4               m_VsMain.o
m4a_mplay031        0x40              sound/SoundDat.o
SlotDt              0x4               um_bonus.o
m4a_mplay007        0x40              sound/SoundDat.o
p_scr               0x4               ua_effect.o
p_select            0x4               up_player.o
m4a_mplay001        0x40              sound/SoundDat.o
work0               0x28              ua_save.o
m4a_mplay002        0x40              sound/SoundDat.o
p_act               0x4               ua_ending.o
m4a_mplay010        0x40              sound/SoundDat.o
Sraffp              0x8               ua_act.o
OAMTEMP             0x400             m_main.o
play_mode           0x4               m_VsMain.o
HEHEHE              0x4               m_classic_play.o
UsrRecvBuf          0x8               m_VsMain.o
Ms                  0xd8              m_MultiSio.o
p_sel               0x4               um_select_sub.o
m4a_mplay015        0x40              sound/SoundDat.o
m4a_mplay012        0x40              sound/SoundDat.o
OamBak              0x400             m_main.o
m4a_mplay004        0x40              sound/SoundDat.o
m4a_memacc_area     0x10              sound/SoundDat.o
p_opn               0x4               m_title.o
m4a_mplay008        0x40              sound/SoundDat.o
vs_mode             0x4               m_VsMain.o
m4a_mplay003        0x40              sound/SoundDat.o
ConnectAGB          0x4               m_VsMain.o
m4a_mplay011        0x40              sound/SoundDat.o
RES_DATA            0x4               um_result.o

Memory Configuration

Name             Origin             Length             Attributes
*default*        0x00000000         0xffffffff

Linker script and memory map

LOAD crt0.o
LOAD ba_effect.o
LOAD ba_player.o
LOAD ba_reach.o
LOAD cm_game.o
LOAD m_battle_rom_play.o
LOAD m_classic_play.o
LOAD m_erase.o
LOAD m_game.o
LOAD m_game_sub.o
LOAD m_game_title.o
LOAD m_main.o
LOAD m_opening.o
LOAD m_score.o
LOAD m_title.o
LOAD m_title_sub.o
LOAD m_vs.o
LOAD m_VsGame.o
LOAD m_VsMain.o
LOAD ua_char_set.o
LOAD ua_course.o
LOAD ua_ending.o
LOAD ua_game.o
LOAD ua_game_over.o
LOAD ua_pause.o
LOAD ua_score.o
LOAD ua_warp.o
LOAD um_bonus.o
LOAD um_courseclear.o
LOAD um_select.o
LOAD um_select_sub.o
LOAD um_yossy.o
LOAD up_common.o
LOAD up_player.o
LOAD d_title_bros_obj_Huff.o
LOAD d_title_bros_bg_sch.o
LOAD d_title_maruc_ssc.o
LOAD d_demo_maruc_ssc.o
LOAD d_classic_obj_sch_Huff.o
LOAD d_classic_bg_sch_Huff.o
LOAD m_boot.o
LOAD m_sub.o
LOAD m_MultiSio.o
LOAD MultiBoot.o
LOAD m_bgcheck.o
LOAD m_scroll.o
LOAD m_classic_sub.o
LOAD ua_save.o
LOAD um_result.o
LOAD um_math.o
LOAD um_oamset.o
LOAD um_mosaic.o
LOAD um_coursecleardt.o
LOAD cm_game_title.o
LOAD ua_act.o
LOAD ua_common.o
LOAD ua_commondt.o
LOAD ua_bg.o
LOAD ua_unit_change.o
LOAD ua_color.o
LOAD ua_bg3_set.o
LOAD ua_sort.o
LOAD ua_eggmeter.o
LOAD ba_act.o
LOAD ba_bgYuKa.o
LOAD ba_bucket.o
LOAD ba_Coin.o
LOAD ba_common.o
LOAD ba_egg.o
LOAD ba_enFly.o
LOAD ba_enKani.o
LOAD ba_enmy.o
LOAD ba_enNoko.o
LOAD ba_enToge.o
LOAD ba_fire.o
LOAD ba_fishBone.o
LOAD ba_heart.o
LOAD ba_ice.o
LOAD ba_koura.o
LOAD ba_kuppa.o
LOAD ba_mutekiStar.o
LOAD ba_PipeWave.o
LOAD ba_point.o
LOAD ba_pow.o
LOAD ba_smoke.o
LOAD ba_spark.o
LOAD ba_splash.o
LOAD ba_star.o
LOAD ba_icicle.o
LOAD ba_powsmk.o
LOAD ua_fairy.o
LOAD ua_walk.o
LOAD ua_tori.o
LOAD ua_huck0.o
LOAD ua_shoot.o
LOAD ua_force.o
LOAD ua_burn0.o
LOAD ua_bird.o
LOAD ua_ninja.o
LOAD ua_ninj1.o
LOAD ua_flyng.o
LOAD ua_pigmo.o
LOAD ua_fish0.o
LOAD ua_musi0.o
LOAD ua_tubo.o
LOAD ua_mask.o
LOAD ua_hebi0.o
LOAD ua_hebi1.o
LOAD ua_sbten.o
LOAD ua_boss0.o
LOAD ua_mikey.o
LOAD ua_ball1.o
LOAD ua_snake.o
LOAD ua_fire1.o
LOAD ua_bkani.o
LOAD ua_flwer.o
LOAD ua_canon.o
LOAD ua_fnsui.o
LOAD ua_icemn.o
LOAD ua_fireb.o
LOAD ua_mamuu.o
LOAD ua_bgkao.o
LOAD ua_whats.o
LOAD ua_wood.o
LOAD ua_exit.o
LOAD ua_item.o
LOAD ua_rocket.o
LOAD ua_heart.o
LOAD ua_door.o
LOAD ua_flag.o
LOAD ua_lmp0.o
LOAD ua_star.o
LOAD ua_spae.o
LOAD ua_pwbk.o
LOAD ua_bigboss.o
LOAD ua_gondola.o
LOAD ua_gonboss.o
LOAD ua_gondata.o
LOAD ua_cherry.o
LOAD ua_gohoubi.o
LOAD ua_toge.o
LOAD ua_egg.o
LOAD ua_mask1.o
LOAD ua_capsule.o
LOAD ua_lift.o
LOAD ua_bubble.o
LOAD ua_sboss.o
LOAD ua_itemball.o
LOAD ua_mosaic.o
LOAD ua_coin.o
LOAD ua_endat0a.o
LOAD ua_endat0b.o
LOAD ua_endt.o
LOAD ua_effect.o
LOAD ua_effectdt.o
LOAD ua_shock.o
LOAD ua_stareffect.o
LOAD ua_bosseffect.o
LOAD ua_cros.o
LOAD up_commondt.o
LOAD up_exst.o
LOAD um_yscr.o
LOAD um_tscr.o
LOAD m_mini_malloc.o
LOAD course_data.o
LOAD course_classic.o
LOAD d_bros_BG_scl.o
LOAD d_Bros_obj_winner_scl.o
LOAD d_classic_bg_scl.o
LOAD d_classic_obj_scl.o
LOAD d_classic_haikeiA_LZ.o
LOAD d_classic_haikeiB_LZ.o
LOAD d_classic_haikeiC_LZ.o
LOAD d_classic_haikeiD_LZ.o
LOAD d_classic_BGanime_sch.o
LOAD d_Bros_obj_scl.o
LOAD d_playerA_sob.o
LOAD d_playerB_sob.o
LOAD d_title_bros_bg_scl.o
LOAD d_title_kabe_ssc.o
LOAD d_title_waku_ssc.o
LOAD d_title_bros_obj_scl.o
LOAD d_classic_bonus2_1_Huff.o
LOAD d_classic_bonus2_2_Huff.o
LOAD d_classic_bonus2_3_Huff.o
LOAD d_classic_bonus2_4_Huff.o
LOAD ud_course_data.o
LOAD sound/m4aLib.o
LOAD sound/SoundDat.o
LOAD sound/sn_g_cork.o
LOAD sound/sn_g_fletbass.o
LOAD sound/sn_g_brass3.o
LOAD sound/sn_g_kusa.o
LOAD sound/sn_g_yoshi.o
LOAD sound/sn_g_steeldr.o
LOAD sound/sn_g_kon.o
LOAD sound/sn_g_hits.o
LOAD sound/sn_g_oud.o
LOAD sound/sn_g_timp1g_f.o
LOAD sound/sn_g_slbass7.o
LOAD sound/sn_g_fantasy.o
LOAD sound/sn_g_panflute.o
LOAD sound/sn_g_s5honky_3.o
LOAD sound/sn_g_marimba3.o
LOAD sound/sn_g_pisnare.o
LOAD sound/sn_g_cannon.o
LOAD sound/sn_g_clarinet.o
LOAD sound/sn_g_trumpet.o
LOAD sound/sn_g_heavyguitar.o
LOAD sound/sn_g_lowcg.o
LOAD sound/sn_g_stringsd5.o
LOAD sound/sn_g_clhihat2.o
LOAD sound/sn_g_bsdrum.o
LOAD sound/sn_g_rvsnare.o
LOAD sound/sn_o_usa_00.o
LOAD sound/sn_o_br_01.o
LOAD sound/sn_o_ma_07.o
LOAD sound/sn_o_ma_08.o
LOAD sound/sn_o_ma_09.o
LOAD sound/sn_o_ma_10.o
LOAD sound/sn_o_ma_11.o
LOAD sound/sn_o_ma_12.o
LOAD sound/sn_o_ma_14.o
LOAD sound/sn_o_ma_16.o
LOAD sound/sn_o_ma_17.o
LOAD sound/sn_o_ma_19.o
LOAD sound/sn_o_ma_20.o
LOAD sound/sn_o_ma_21.o
LOAD sound/sn_o_ma_22.o
LOAD sound/sn_o_ma_23.o
LOAD sound/sn_o_ma_24.o
LOAD sound/sn_o_ma_25.o
LOAD sound/sn_o_ma_26.o
LOAD sound/sn_o_ma_27.o
LOAD sound/sn_o_ma_29.o
LOAD sound/sn_o_ma_30.o
LOAD sound/sn_o_ma_31.o
LOAD sound/sn_o_ma_32.o
LOAD sound/sn_o_ma_33.o
LOAD sound/sn_o_ma_34.o
LOAD sound/sn_o_ma_35.o
LOAD sound/sn_o_ma_36.o
LOAD sound/sn_o_ma_37.o
LOAD sound/sn_o_mo_01.o
LOAD sound/sn_o_mo_02.o
LOAD sound/sn_o_mo_03.o
LOAD sound/sn_o_tr_01.o
LOAD sound/sn_o_tr_02.o
LOAD sound/sn_o_tr_03.o
LOAD sound/sn_o_tr_04.o
LOAD sound/sn_o_tr_05.o
LOAD sound/sn_o_cl_01.o
LOAD sound/sn_o_cl_02.o
LOAD sound/sn_o_cl_03.o
LOAD sound/sn_o_fl_01.o
LOAD sound/sn_o_fl_02.o
LOAD sound/sn_o_fl_03.o
LOAD sound/sn_o_wa_01.o
LOAD sound/sn_o_wa_02.o
LOAD sound/sn_o_wa_03.o
LOAD sound/sn_o_wa_04.o
LOAD sound/sn_o_wa_05.o
LOAD sound/sn_o_na_01.o
LOAD sound/sn_o_na_02.o
LOAD sound/sn_o_na_04.o
LOAD sound/sn_o_na_05.o
LOAD sound/sn_o_pi_01.o
LOAD sound/sn_o_pi_02.o
LOAD sound/sn_o_pi_03.o
LOAD sound/sn_o_pi_04.o
LOAD sound/sn_o_re_01.o
LOAD sound/sn_o_re_02.o
LOAD sound/sn_o_re_03.o
LOAD sound/sn_o_re_04.o
LOAD sound/sn_o_gr_01.o
LOAD sound/sn_o_gr_02.o
LOAD sound/sn_o_gr_03.o
LOAD sound/sn_o_gr_04.o
LOAD sound/sn_o_lu_06.o
LOAD sound/sn_o_lu_08.o
LOAD sound/sn_o_lu_09.o
LOAD sound/sn_o_lu_10.o
LOAD sound/sn_o_lu_11.o
LOAD sound/sn_o_lu_12.o
LOAD sound/sn_o_lu_14.o
LOAD sound/sn_o_lu_16.o
LOAD sound/sn_o_lu_17.o
LOAD sound/sn_o_lu_19.o
LOAD sound/sn_o_lu_20.o
LOAD sound/sn_o_lu_21.o
LOAD sound/sn_o_lu_22.o
LOAD sound/sn_o_lu_23.o
LOAD sound/sn_o_lu_24.o
LOAD sound/sn_o_lu_25.o
LOAD sound/sn_o_lu_26.o
LOAD sound/sn_o_lu_27.o
LOAD sound/sn_o_lu_28.o
LOAD sound/sn_o_lu_29.o
LOAD sound/sn_o_lu_30.o
LOAD sound/sn_o_lu_31.o
LOAD sound/sn_o_lu_32.o
LOAD sound/sn_o_lu_33.o
LOAD sound/sn_o_lu_34.o
LOAD sound/sn_o_lu_35.o
LOAD sound/sn_o_lu_36.o
LOAD sound/sn_o_pe_06.o
LOAD sound/sn_o_pe_08.o
LOAD sound/sn_o_pe_09.o
LOAD sound/sn_o_pe_10.o
LOAD sound/sn_o_pe_11.o
LOAD sound/sn_o_pe_13.o
LOAD sound/sn_o_pe_15.o
LOAD sound/sn_o_pe_16.o
LOAD sound/sn_o_pe_18.o
LOAD sound/sn_o_pe_19.o
LOAD sound/sn_o_pe_20.o
LOAD sound/sn_o_pe_21.o
LOAD sound/sn_o_pe_22.o
LOAD sound/sn_o_pe_23.o
LOAD sound/sn_o_pe_24.o
LOAD sound/sn_o_pe_25.o
LOAD sound/sn_o_pe_26.o
LOAD sound/sn_o_pe_28.o
LOAD sound/sn_o_pe_29.o
LOAD sound/sn_o_pe_30.o
LOAD sound/sn_o_pe_31.o
LOAD sound/sn_o_pe_32.o
LOAD sound/sn_o_pe_33.o
LOAD sound/sn_o_pe_34.o
LOAD sound/sn_o_pe_35.o
LOAD sound/sn_o_pe_36.o
LOAD sound/sn_o_to_06.o
LOAD sound/sn_o_to_07.o
LOAD sound/sn_o_to_08.o
LOAD sound/sn_o_to_09.o
LOAD sound/sn_o_to_10.o
LOAD sound/sn_o_to_11.o
LOAD sound/sn_o_to_13.o
LOAD sound/sn_o_to_15.o
LOAD sound/sn_o_to_16.o
LOAD sound/sn_o_to_18.o
LOAD sound/sn_o_to_19.o
LOAD sound/sn_o_to_20.o
LOAD sound/sn_o_to_21.o
LOAD sound/sn_o_to_22.o
LOAD sound/sn_o_to_23.o
LOAD sound/sn_o_to_24.o
LOAD sound/sn_o_to_25.o
LOAD sound/sn_o_to_26.o
LOAD sound/sn_o_to_28.o
LOAD sound/sn_o_to_29.o
LOAD sound/sn_o_to_30.o
LOAD sound/sn_o_to_31.o
LOAD sound/sn_o_to_32.o
LOAD sound/sn_o_to_33.o
LOAD sound/sn_o_to_34.o
LOAD sound/sn_o_to_35.o
LOAD sound/sn_o_to_36.o
LOAD sound/sn_o_me_01.o
LOAD sound/sn_o_me_02.o
LOAD sound/sn_o_me_03.o
LOAD sound/sn_o_me_04.o
LOAD sound/sn_o_ma_17ya.o
LOAD sound/sn_o_lu_17ya.o
LOAD sound/sn_o_pe_16ya.o
LOAD sound/sn_o_to_16ya.o
LOAD sound/sn_TITLE.o
LOAD sound/sn_STAGE1.o
LOAD sound/sn_STAGE2.o
LOAD sound/sn_CLEAR.o
LOAD sound/sn_GAMEOVER.o
LOAD sound/sn_BONUS.o
LOAD sound/sn_KEKKA.o
LOAD sound/sn_PERFECT.o
LOAD sound/sn_BATTLE_DEAD.o
LOAD sound/sn_HEART.o
LOAD sound/sn_COIN5.o
LOAD sound/sn_JUMP.o
LOAD sound/sn_SLIP.o
LOAD sound/sn_WALK_C.o
LOAD sound/sn_WALK_E.o
LOAD sound/sn_WALK_G.o
LOAD sound/sn_MR_DEAD.o
LOAD sound/sn_MR_DOWN.o
LOAD sound/sn_MR_NEXT.o
LOAD sound/sn_POW.o
LOAD sound/sn_PAUSE1UP.o
LOAD sound/sn_KAME.o
LOAD sound/sn_KANI.o
LOAD sound/sn_HAE.o
LOAD sound/sn_COIN_OUT.o
LOAD sound/sn_TEKI_ATTACK.o
LOAD sound/sn_TEKI_DEAD.o
LOAD sound/sn_DOBON.o
LOAD sound/sn_COIN_GET.o
LOAD sound/sn_FREEZER.o
LOAD sound/sn_FREEZ_DEAD.o
LOAD sound/sn_FIRE.o
LOAD sound/sn_boss_bros.o
LOAD sound/sn_star_bros.o
LOAD sound/sn_KUPPA.o
LOAD sound/sn_KUPPA_DOSIN.o
LOAD sound/sn_win1.o
LOAD sound/sn_lose1.o
LOAD sound/sn_win2.o
LOAD sound/sn_lose2.o
LOAD sound/sn_battle2.o
LOAD sound/sn_battlekekka.o
LOAD sound/sn_zelda_fan.o
LOAD sound/sn_KUPPAFIRE.o
LOAD sound/sn_BAKETU.o
LOAD sound/sn_MOTI.o
LOAD sound/sn_NAGE.o
LOAD sound/sn_TAME.o
LOAD sound/sn_DAMAGE.o
LOAD sound/sn_TIBI.o
LOAD sound/sn_NORI.o
LOAD sound/sn_BUTUKARI.o
LOAD sound/sn_HEART_GET.o
LOAD sound/sn_DEKA.o
LOAD sound/sn_KAO.o
LOAD sound/sn_PUSH.o
LOAD sound/sn_KUPPA_DAMAGE.o
LOAD sound/sn_KUPPA_DEAD.o
LOAD sound/sn_SHIFT.o
LOAD sound/sn_SAVE.o
LOAD sound/sn_intro_battle.o
LOAD sound/sn_KAMEKERI1.o
LOAD sound/sn_KAMEKERI2.o
LOAD sound/sn_KAMEKERI3.o
LOAD sound/sn_KAMEKERI4.o
LOAD sound/sn_PINPON.o
LOAD sound/sn_BUU.o
LOAD sound/sn_battlekekka_intro.o
LOAD sound/sn_FIREDEAD.o
LOAD sound/sn_TURARA_DEAD.o
LOAD sound/sn_battle3.o
LOAD sound/sn_battle4.o
LOAD sound/sn_bassdrum3.o
LOAD sound/sn_intro_bonus.o
LOAD sound/sn_NOBONUS.o
LOAD sound/sn_usa_title.o
LOAD sound/sn_tijou.o
LOAD sound/sn_chika.o
LOAD sound/sn_ura.o
LOAD sound/sn_select.o
LOAD sound/sn_boss.o
LOAD sound/sn_boss_mamu.o
LOAD sound/sn_boss_clear.o
LOAD sound/sn_suishou.o
LOAD sound/sn_game_over.o
LOAD sound/sn_slot_start.o
LOAD sound/sn_usa_dead.o
LOAD sound/sn_star.o
LOAD sound/sn_warp.o
LOAD sound/sn_usa_ending.o
LOAD sound/sn_se_final.o
LOAD sound/sn_se_kettei.o
LOAD sound/sn_se_nage.o
LOAD sound/sn_se_chery.o
LOAD sound/sn_se_tekidead.o
LOAD sound/sn_se_hasigo.o
LOAD sound/sn_se_damage.o
LOAD sound/sn_se_moti1.o
LOAD sound/sn_se_moti2.o
LOAD sound/sn_se_timer.o
LOAD sound/sn_se_dooropen.o
LOAD sound/sn_se_doorclose.o
LOAD sound/sn_se_kamen.o
LOAD sound/sn_se_kujira.o
LOAD sound/sn_se_bomb.o
LOAD sound/sn_se_coin.o
LOAD sound/sn_se_tame.o
LOAD sound/sn_se_tuboin.o
LOAD sound/sn_se_tuboout.o
LOAD sound/sn_se_1up.o
LOAD sound/sn_se_pow.o
LOAD sound/sn_se_pause.o
LOAD sound/sn_se_toriopen.o
LOAD sound/sn_se_toriclose.o
LOAD sound/sn_se_kinoko.o
LOAD sound/sn_se_slotroll.o
LOAD sound/sn_se_slotkettei.o
LOAD sound/sn_se_slotdrum1.o
LOAD sound/sn_se_slotdrum2.o
LOAD sound/sn_se_bossdamage.o
LOAD sound/sn_se_bosshaku.o
LOAD sound/sn_se_rakka.o
LOAD sound/sn_se_bossdead.o
LOAD sound/sn_se_kourakie.o
LOAD sound/sn_se_jump.o
LOAD sound/sn_se_rocket.o
LOAD sound/sn_se_tibi.o
LOAD sound/sn_se_slip.o
LOAD sound/sn_se_kamekeri0.o
LOAD sound/sn_se_kamekeri1.o
LOAD sound/sn_se_kamekeri2.o
LOAD sound/sn_se_kamekeri3.o
LOAD sound/sn_se_kamekeri4.o
LOAD sound/sn_se_kamekeri5.o
LOAD sound/sn_se_kamekeri6.o
LOAD sound/sn_se_kamekeri7.o
LOAD sound/sn_se_kamekeri8.o
LOAD sound/sn_se_mamu.o
LOAD sound/sn_se_mamudead.o
LOAD sound/sn_se_fire.o
LOAD sound/sn_se_mamukemuri.o
LOAD sound/sn_se_yoshi.o
LOAD sound/sn_tubo.o
LOAD sound/sn_worldkekka.o
LOAD sound/sn_se_awa.o
LOAD sound/sn_se_big.o
LOAD sound/sn_se_tama.o
LOAD sound/sn_boss_mae.o
LOAD sound/sn_gamesel.o
LOAD sound/sn_se_jampdai.o
LOAD sound/sn_se_bossbig.o
LOAD sound/sn_se_bombfire.o
LOAD sound/sn_se_cansel.o
LOAD sound/sn_se_heart.o
LOAD sound/sn_se_biribiri.o
LOAD sound/sn_tamago.o
LOAD sound/sn_se_shift.o
LOAD sound/sn_se_start.o
LOAD sound/sn_se_save.o
LOAD sound/sn_se_kamen_okori.o
LOAD sound/sn_se_kabe.o
LOAD sound/sn_se_titlemoti.o
LOAD sound/sn_se_titledosun2.o
LOAD sound/sn_se_titledosun3.o
LOAD sound/sn_se_tamago.o
LOAD sound/sn_boss_mae_r.o
LOAD sound/sn_boss_r.o
LOAD sound/sn_se_kirakira.o
LOAD sound/sn_se_cork.o
LOAD sound/sn_v_usa_00.o
LOAD sound/sn_v_br_01.o
LOAD sound/sn_v_ma_07.o
LOAD sound/sn_v_ma_08.o
LOAD sound/sn_v_ma_09.o
LOAD sound/sn_v_ma_10.o
LOAD sound/sn_v_ma_11.o
LOAD sound/sn_v_ma_12.o
LOAD sound/sn_v_ma_14.o
LOAD sound/sn_v_ma_16.o
LOAD sound/sn_v_ma_17.o
LOAD sound/sn_v_ma_19.o
LOAD sound/sn_v_ma_20.o
LOAD sound/sn_v_ma_21.o
LOAD sound/sn_v_ma_22.o
LOAD sound/sn_v_ma_23.o
LOAD sound/sn_v_ma_24.o
LOAD sound/sn_v_ma_25.o
LOAD sound/sn_v_ma_26.o
LOAD sound/sn_v_ma_27.o
LOAD sound/sn_v_ma_29.o
LOAD sound/sn_v_ma_30.o
LOAD sound/sn_v_ma_31.o
LOAD sound/sn_v_ma_32.o
LOAD sound/sn_v_ma_33.o
LOAD sound/sn_v_ma_34.o
LOAD sound/sn_v_ma_35.o
LOAD sound/sn_v_ma_36.o
LOAD sound/sn_v_ma_37.o
LOAD sound/sn_v_ma_17ya.o
LOAD sound/sn_v_mo_01.o
LOAD sound/sn_v_mo_02.o
LOAD sound/sn_v_mo_03.o
LOAD sound/sn_v_tr_01.o
LOAD sound/sn_v_tr_02.o
LOAD sound/sn_v_tr_03.o
LOAD sound/sn_v_tr_04.o
LOAD sound/sn_v_tr_05.o
LOAD sound/sn_v_cl_01.o
LOAD sound/sn_v_cl_02.o
LOAD sound/sn_v_cl_03.o
LOAD sound/sn_v_fl_01.o
LOAD sound/sn_v_fl_02.o
LOAD sound/sn_v_fl_03.o
LOAD sound/sn_v_wa_01.o
LOAD sound/sn_v_wa_02.o
LOAD sound/sn_v_wa_03.o
LOAD sound/sn_v_wa_04.o
LOAD sound/sn_v_wa_05.o
LOAD sound/sn_v_na_01.o
LOAD sound/sn_v_na_02.o
LOAD sound/sn_v_na_04.o
LOAD sound/sn_v_na_05.o
LOAD sound/sn_v_pi_01.o
LOAD sound/sn_v_pi_02.o
LOAD sound/sn_v_pi_03.o
LOAD sound/sn_v_pi_04.o
LOAD sound/sn_v_re_01.o
LOAD sound/sn_v_re_02.o
LOAD sound/sn_v_re_03.o
LOAD sound/sn_v_re_04.o
LOAD sound/sn_v_gr_01.o
LOAD sound/sn_v_gr_02.o
LOAD sound/sn_v_gr_03.o
LOAD sound/sn_v_gr_04.o
LOAD sound/sn_v_me_01.o
LOAD sound/sn_v_me_02.o
LOAD sound/sn_v_me_03.o
LOAD sound/sn_v_me_04.o
LOAD sound/sn_v_lu_06.o
LOAD sound/sn_v_lu_08.o
LOAD sound/sn_v_lu_10.o
LOAD sound/sn_v_lu_09.o
LOAD sound/sn_v_lu_11.o
LOAD sound/sn_v_lu_12.o
LOAD sound/sn_v_lu_14.o
LOAD sound/sn_v_lu_16.o
LOAD sound/sn_v_lu_17.o
LOAD sound/sn_v_lu_19.o
LOAD sound/sn_v_lu_20.o
LOAD sound/sn_v_lu_21.o
LOAD sound/sn_v_lu_22.o
LOAD sound/sn_v_lu_23.o
LOAD sound/sn_v_lu_24.o
LOAD sound/sn_v_lu_25.o
LOAD sound/sn_v_lu_26.o
LOAD sound/sn_v_lu_27.o
LOAD sound/sn_v_lu_28.o
LOAD sound/sn_v_lu_29.o
LOAD sound/sn_v_lu_30.o
LOAD sound/sn_v_lu_31.o
LOAD sound/sn_v_lu_32.o
LOAD sound/sn_v_lu_33.o
LOAD sound/sn_v_lu_34.o
LOAD sound/sn_v_lu_35.o
LOAD sound/sn_v_lu_36.o
LOAD sound/sn_v_lu_17ya.o
LOAD sound/sn_v_pe_06.o
LOAD sound/sn_v_pe_08.o
LOAD sound/sn_v_pe_09.o
LOAD sound/sn_v_pe_10.o
LOAD sound/sn_v_pe_11.o
LOAD sound/sn_v_pe_13.o
LOAD sound/sn_v_pe_15.o
LOAD sound/sn_v_pe_16.o
LOAD sound/sn_v_pe_18.o
LOAD sound/sn_v_pe_19.o
LOAD sound/sn_v_pe_20.o
LOAD sound/sn_v_pe_21.o
LOAD sound/sn_v_pe_22.o
LOAD sound/sn_v_pe_23.o
LOAD sound/sn_v_pe_24.o
LOAD sound/sn_v_pe_25.o
LOAD sound/sn_v_pe_26.o
LOAD sound/sn_v_pe_28.o
LOAD sound/sn_v_pe_29.o
LOAD sound/sn_v_pe_30.o
LOAD sound/sn_v_pe_31.o
LOAD sound/sn_v_pe_32.o
LOAD sound/sn_v_pe_33.o
LOAD sound/sn_v_pe_34.o
LOAD sound/sn_v_pe_35.o
LOAD sound/sn_v_pe_36.o
LOAD sound/sn_v_pe_16ya.o
LOAD sound/sn_v_to_06.o
LOAD sound/sn_v_to_07.o
LOAD sound/sn_v_to_08.o
LOAD sound/sn_v_to_09.o
LOAD sound/sn_v_to_10.o
LOAD sound/sn_v_to_11.o
LOAD sound/sn_v_to_13.o
LOAD sound/sn_v_to_15.o
LOAD sound/sn_v_to_16.o
LOAD sound/sn_v_to_18.o
LOAD sound/sn_v_to_19.o
LOAD sound/sn_v_to_20.o
LOAD sound/sn_v_to_21.o
LOAD sound/sn_v_to_22.o
LOAD sound/sn_v_to_23.o
LOAD sound/sn_v_to_24.o
LOAD sound/sn_v_to_25.o
LOAD sound/sn_v_to_26.o
LOAD sound/sn_v_to_28.o
LOAD sound/sn_v_to_29.o
LOAD sound/sn_v_to_30.o
LOAD sound/sn_v_to_31.o
LOAD sound/sn_v_to_32.o
LOAD sound/sn_v_to_33.o
LOAD sound/sn_v_to_34.o
LOAD sound/sn_v_to_35.o
LOAD sound/sn_v_to_36.o
LOAD sound/sn_v_to_16ya.o
LOAD client.o
LOAD bros_bg.o
LOAD bros_obj1.o
LOAD vs.o
LOAD bros_obj0.o
LOAD C:/agb/lib//libagbsyscall.a
LOAD C:/agb/lib//libisagbprn.a
LOAD C:/agb/lib//libagbbackup.a
LOAD USA_data/usa_data.a
LOAD COS_data/usa_cos.a
LOAD C:\PROGRA~1\Cygnus\thumbelf-000512\H-i686-cygwin32\bin/../lib/gcc-lib/thumb-elf/2.9-arm-000512/libgcc.a
LOAD C:\PROGRA~1\Cygnus\thumbelf-000512\H-i686-cygwin32\bin/../lib/gcc-lib/thumb-elf/2.9-arm-000512/../../../../thumb-elf/lib/libg.a
LOAD C:\PROGRA~1\Cygnus\thumbelf-000512\H-i686-cygwin32\bin/../lib/gcc-lib/thumb-elf/2.9-arm-000512/../../../../thumb-elf/lib/libc.a
LOAD C:\PROGRA~1\Cygnus\thumbelf-000512\H-i686-cygwin32\bin/../lib/gcc-lib/thumb-elf/2.9-arm-000512/libgcc.a
Address of section .text set to 0x8000000
Address of section .bss set to 0x3000000
                0x00008000                .=0x8000

.interp
 *(.interp)

.hash
 *(.hash)

.dynsym
 *(.dynsym)

.dynstr
 *(.dynstr)

.gnu.version
 *(.gnu.version)

.gnu.version_d
 *(.gnu.version_d)

.gnu.version_r
 *(.gnu.version_r)

.rel.text
 *(.rel.text)
 *(.rel.text.*)
 *(.rel.gnu.linkonce.t*)

.rela.text
 *(.rela.text)
 *(.rela.text.*)
 *(.rela.gnu.linkonce.t*)

.rel.data
 *(.rel.data)
 *(.rel.data.*)
 *(.rel.gnu.linkonce.d*)

.rela.data
 *(.rela.data)
 *(.rela.data.*)
 *(.rela.gnu.linkonce.d*)

.rel.rodata
 *(.rel.rodata)
 *(.rel.rodata.*)
 *(.rel.gnu.linkonce.r*)

.rela.rodata
 *(.rela.rodata)
 *(.rela.rodata.*)
 *(.rela.gnu.linkonce.r*)

.rel.got
 *(.rel.got)

.rela.got
 *(.rela.got)

.rel.ctors
 *(.rel.ctors)

.rela.ctors
 *(.rela.ctors)

.rel.dtors
 *(.rel.dtors)

.rela.dtors
 *(.rela.dtors)

.rel.init
 *(.rel.init)

.rela.init
 *(.rela.init)

.rel.fini
 *(.rel.fini)

.rela.fini
 *(.rela.fini)

.rel.bss
 *(.rel.bss)

.rela.bss
 *(.rela.bss)

.rel.plt
 *(.rel.plt)

.rela.plt
 *(.rela.plt)

.init
 *(.init)

.plt
 *(.plt)

.text           0x08000000    0xb95f0
 *(.text)
 .text          0x08000000      0x280 crt0.o
                0x080001c8                intr_main2
                0x08000000                _start
                0x080000c0                start_vector
                0x080000fc                intr_main
 .text          0x08000280      0x118 ba_effect.o
                0x08000280                effectAct_init
                0x08000304                effectAct_main
 .text          0x08000398     0xa220 ba_player.o
                0x08006ad4                DaIOamSet
                0x080007c0                SizeChange
                0x08000c8c                PLEnemyHitCheck
                0x080098d4                player_OamSet
                0x0800108c                PlayerDownCheck
                0x080033c8                player_coinGet
                0x08000460                MakePlayer
                0x0800a0f8                player_main
                0x0800950c                BattleLoseDisp
                0x08000398                MoToColorReset
                0x08009634                PlayerCountDisp
                0x0800073c                PerfectDeletePlayer
                0x08000884                ShrinkInit
                0x080075b8                WhiteOutInit
 .text          0x0800a5b8      0x430 ba_reach.o
                0x0800a654                reach_main
                0x0800a5b8                MakeReach
 .text          0x0800a9e8      0xf84 cm_game.o
                0x0800a9e8                multi_error
                0x0800abe0                SioError
                0x0800ad40                cmGm_Main
 .text          0x0800b96c      0xdd0 m_battle_rom_play.o
                0x0800c6f8                multi_play
 .text          0x0800c73c     0x4278 m_classic_play.o
                0x08010984                game_play
 .text          0x080109b4      0xf90 m_erase.o
                0x0801135c                erase_check
 .text          0x08011944      0x5fc m_game.o
                0x08011c84                mGm_Main
                0x08011ebc                V_blank_wait
 .text          0x08011f40     0x790c m_game_sub.o
                0x08013f8c                TotalDisp
                0x08017158                GrayColorSet
                0x08018bb4                BattleGame_play_TotalScore_Win
                0x08014214                WinnerCoinFlashReset
                0x080140b8                WinnerColorSet
                0x08015264                TudukeruOAM
                0x080132e0                VramInit
                0x08015bc4                ScoreWinCountOamset
                0x08017d88                BattleGame_play_score
                0x08017764                BattleGame_play_Vscroll
                0x08017c64                BattleGame_play_winMoji
                0x080154e0                WinCountUP
                0x08015580                WinCountFlashSet
                0x0801725c                game_OAMSET
                0x0801508c                PushStartOAM
                0x08014740                WinLoseFace
                0x08017bf0                BattleGame_play_winFace
                0x08018e80                BrosBGCoinAnime
                0x080153b8                HajimekaraOAM
                0x08018fe4                BrosBGWaterFace
                0x080190ec                PlacardOamSet
                0x080175e4                BattleGame_play_winPLNumbarDisp
                0x08019370                HajimekaraRamReset
                0x080192c4                PLNumPlacard
                0x08019758                PlayerLoseFaceOamSet
                0x08017cd8                BattleGame_play_winWait
                0x08017450                BattleGame_play_main
                0x08011fc4                BrosPause
                0x0801810c                FillCharacter
                0x08017338                BattleGame_roundDisp
                0x08015a98                PlayerNumberSet
                0x080126e4                GetCoinBGWrite
                0x08018a34                BattleGame_play_TotalScore
                0x08018160                BattleGame_play_RoundOut
                0x08013c98                RoundDispSUB
                0x08017e3c                BattleGame_play_Hscroll
                0x08018718                BattleGame_play_WinCountUP
                0x080174b4                BattleGame_play_winInit
                0x08017fac                BattleGame_play_TotalScoreWait
                0x08015ec0                TotalScoreOAM
                0x080142ec                WinnerCoinFlash
                0x08017918                BattleGame_play_winPLNumbarOut
                0x080149c0                game_play_VscrollSUB
                0x08014ac4                WinnerPlayerNo
                0x08014d54                ScoreBoxDraw
                0x08018588                BattleGame_play_TotalIn
                0x0801955c                StripeCharSet
                0x08012ffc                CoinWrite
                0x08018c98                BattleGame_play_WinLose
                0x080144a4                WinOAMSET
                0x08014f18                game_play_scoreInitSUB
                0x0801887c                BattleGame_play_TotalWait
 .text          0x0801984c     0x2034 m_game_title.o
                0x08019b28                Frame_ColChang
                0x0801996c                TitleLogo_Set
                0x0801b368                game_title
                0x0801a370                Player_ObjSet
                0x08019be8                PushStart_Write
 .text          0x0801b880     0x1414 m_main.o
                0x0801c8bc                ObjVanishTemp
                0x0801c820                VCountIntr
                0x0801c204                VBlankIntr
                0x0801c7e4                HBlankIntr
                0x0801c85c                ObjVanishAll
                0x0801c91c                KeyRead
                0x0801cc68                mGm_FREE_usa_game
                0x0801cc08                mGm_MALLOC_usa_game
                0x0801b880                AgbMain
 .text          0x0801cc94     0x61b8 m_opening.o
                0x0801fc38                Opening_Main
                0x080213d8                op_go_to_4
                0x080215e8                mGm_FREE_p_opn
                0x08021588                mGm_MALLOC_p_opn
                0x0801cc94                open_obj_init
 .text          0x08022e4c      0x76c m_score.o
                0x08022e4c                ScoreInit
                0x080230fc                ScoreMain
 .text          0x080235b8     0x31b0 m_title.o
                0x080235b8                M_iQue
                0x0802390c                M_title
 .text          0x08026768     0x5aa8 m_title_sub.o
                0x0802bb48                File_Extra
                0x0802bde0                File_World
                0x080295c0                objmove_USA_heart
                0x0802b778                FileData_Set
                0x0802bffc                File_New
                0x08027114                objmove_USA_door
                0x0802c1e4                mGm_FREE_p_tsl
                0x0802763c                objmove_Bros_title
                0x08028eec                objmove_USA_burn
                0x08028008                objmove_USA_egg
                0x08027e64                objmove_USA_smokbomb
                0x0802942c                objmove_USA_smok
                0x0802ac50                objoam_bomb
                0x08027454                objmove_Cursol
                0x08026f94                objmove_Hi_score
                0x0802b450                objoam_shade
                0x0802777c                objmove_Mario
                0x080272d4                objmove_Bros_pipe
                0x080296d0                objmove_fail
                0x080278a0                objmove_USA_casalin
                0x08029800                objoam_common
                0x0802aee8                objoam_door
                0x0802c184                mGm_MALLOC_p_tsl
                0x0802b194                objoam_pipe
                0x080288b8                objmove_USA_bomb
                0x08029ca8                Hi_score_oamset
                0x080274ac                objmove_USA_title
                0x080297e8                objmove_dummy
 .text          0x0802c210     0x4370 m_vs.o
                0x080304a0                vs_game
 .text          0x08030580      0xf70 m_VsGame.o
                0x08030738                VsClassicGame
 .text          0x080314f0      0x4bc m_VsMain.o
                0x080314f0                VBlankIntr2
                0x08031950                ChildMain
 .text          0x080319ac      0xe3c ua_char_set.o
                0x080326a4                m_ending_char1_set
                0x08032660                m_ending_char_set
                0x080319ac                game_char_set
                0x08032454                tubo_char_set
                0x080325c4                m_warp_char_set
                0x08032748                m_ending_char2_set
 .text          0x080327e8     0x3fac ua_course.o
                0x080343a8                m_scroll_BG_chenge
                0x08034dac                m_course_init
                0x08036748                one_room_out_set
                0x0803671c                one_room_in_set
                0x08034bb8                cos_vram_set
 .text          0x08036794     0x7558 ua_ending.o
                0x08038618                MU_ending
                0x08038544                end_timer
 .text          0x0803dcec     0x4534 ua_game.o
                0x0803e304                M_game_play
                0x08041fb0                BGM_RETURN
                0x08041438                ENDTSV
                0x08041eb8                DebugMode_RamClear
                0x0804086c                FLAGCLR
                0x080409d8                fade_in_parameter_set
                0x080405f0                FLGCLEAR
                0x08040698                FLGCLEAR2
                0x08040a90                fade_out_parameter_set
                0x08040290                game_mode_check
 .text          0x08042220     0x10f8 ua_game_over.o
                0x080427a4                over_open
                0x08042618                game_over_disp
                0x080428fc                over_key_wait
                0x080422cc                game_over_init
 .text          0x08043318     0x12a8 ua_pause.o
                0x08043ae0                pause
                0x080443dc                pause_fade_out
                0x08043318                pause_oam_set
                0x08043744                pause_init
                0x080441c8                pause_close
                0x08044068                pause_timer
                0x08043980                pause_open
 .text          0x080445c0     0x1b94 ua_score.o
                0x08044958                SPOINT_SET
                0x08044878                EGGSCORE_SET
                0x08045ba4                u_score_disp
                0x08045498                spoint_move
                0x080445c0                m_score_clear
                0x080457a8                oneup_move
                0x08044df0                score_check
                0x08044b40                ONEUP_SET
                0x08044aa8                POINT100_SET
                0x08045abc                hanabi_move
                0x08045138                pl_score_check
                0x08045554                bpoint_move
 .text          0x08046154      0xc64 ua_warp.o
                0x08046154                wave_init
                0x08046d88                M_game_warp
 .text          0x08046db8     0x2c64 um_bonus.o
                0x080477cc                M_game_bonus
                0x080498b0                redcoin_flagset
                0x080499f0                mGm_FREE_SlotDt
                0x08049990                mGm_MALLOC_SlotDt
 .text          0x08049a1c      0x618 um_courseclear.o
                0x08049b6c                clr_chrchange
                0x08049fa0                COUSECLEAR_MAIN
                0x08049ef0                CLEAREFT_MAIN
 .text          0x0804a034     0x1e6c um_select.o
                0x0804be70                M_game_select
 .text          0x0804bea0     0x2778 um_select_sub.o
                0x0804e58c                mGm_MALLOC_p_sel
                0x0804d2f0                score_ssc_set
                0x0804bea0                Drw_Number
                0x0804c080                TENKAI
                0x0804c9a0                player_sel_obj_oamset
                0x0804cf8c                act_clear
                0x0804c308                player_sel_obj_init
                0x0804e0a0                hajimari_course_set
                0x0804e284                Color_Change
                0x0804bf94                Get_Drw_pnt
                0x0804e5ec                mGm_FREE_p_sel
                0x0804c4e8                player_sel_obj_move
                0x0804d594                param_oam_set
                0x0804dd94                hajimari_oam_set
                0x0804d3a8                player_sel_obj_sort
 .text          0x0804e618     0x3d88 um_yossy.o
                0x08052310                mGm_MALLOC_YOS_DATA
                0x0804f808                M_game_yossy
                0x08052374                mGm_FREE_YOS_DATA
 .text          0x080523a0     0x5710 up_common.o
                0x0805459c                player_PLPOSPOP
                0x08053980                player_PLPOSCK
                0x080525d0                player_oamset
                0x08057360                player_color_add
                0x080543dc                player_PLSTDTLD
                0x08056a1c                ONPLCK
                0x08057018                door_in_timer_set
                0x080562b4                PLGVINT
                0x0805693c                PLKTINT2
                0x080577c8                voice_change
                0x08057880                vscr_updown_set
                0x08057808                contributor_inc
                0x08053ca4                player_PLOBJ_set
                0x08052de8                player_LIFEIT
                0x08056b54                ENM190
                0x08054768                player_CROJCK
                0x08052db4                player_SLPLSET
                0x080538f0                player_XSPCLR
                0x080546e0                player_PLPOSPSH
                0x08053f04                player_WDORSET
                0x080570d4                door_out_timer_set
                0x080575fc                player_color_sub
                0x08056ed0                SNDCHK
                0x0805257c                player_YCALC
                0x08054280                player_PLSTDTSV
                0x080523a0                player_XCALC
                0x08052e24                player_PLPOSINT
 .text          0x08057ab0     0x4f80 up_player.o
                0x0805a244                player_YSPSET
                0x080586b8                player_WKSET
                0x08057b3c                player_init
                0x08057c48                u_player_main
                0x0805be94                DRSONDST
                0x0805a3c0                player_BGCHECK
                0x08057b10                ply_free_set
                0x08057ab0                ply_maloc_set
 .text          0x0805ca30      0x208 m_boot.o
                0x0805ca30                mgm_boot
 .text          0x0805cc38      0x52c m_sub.o
                0x0805cd58                fade_out
                0x0805cc98                fade_in
                0x0805d110                save_pull
                0x0805cc38                lcdc_off
                0x0805cf7c                m_scrollInit
                0x0805d00c                m_WhiteOUT
                0x0805d0bc                save_push
                0x0805ce08                RDMSUB
                0x0805cc70                lcdc_off1
 .text          0x0805d164      0xb40 m_MultiSio.o
                0x0805d5bc                MultiSioIntr
                0x0805d948                ConnectCheck
                0x0805d164                MultiSioInit
                0x0805d8b0                ConnectSioInit
                0x0805d2c4                MultiSioMain
                0x0805d9c8                ConnectSioIntr
                0x0805d470                MultiSioRecvDataCheck
                0x0805d3dc                MultiSioSendDataSet
 .text          0x0805dca4      0xc34 MultiBoot.o
                0x0805e690                MultiBootCheckComplete
                0x0805e544                MultiBootStartMaster
                0x0805e4f4                MultiBootStartProbe
                0x0805dca4                MultiBootInit
                0x0805dd44                MultiBootMain
 .text          0x0805e8d8      0x234 m_bgcheck.o
                0x0805ea44                bgbuf_change2
                0x0805e9dc                bgbuf_change
                0x0805e918                bgbuf_check2
                0x0805e8d8                bgbuf_free
 .text          0x0805eb0c       0x9c m_scroll.o
                0x0805eb0c                scroll_set
                0x0805eb9c                m_angpra
 .text          0x0805eba8      0xbc0 m_classic_sub.o
                0x0805f5cc                BrosBGYukaFadeClear
                0x0805f548                BrosBGYukaFadeDraw
                0x0805f608                BrosBGYukaFadeOut
                0x0805f1a0                BrosMemoryFree
                0x0805eba8                BackBGAnime
                0x0805edbc                BrosMemoryInit
 .text          0x0805f768     0x20a4 ua_save.o
                0x0806107c                file_load
                0x08060c88                hi_score_save
                0x0806120c                file_clear
                0x080613dc                all_clear
                0x0805fb1c                save_header_check
                0x08060e40                file_save
 .text          0x0806180c     0x44a0 um_result.o
                0x080621bc                M_game_result
                0x08065c20                mGm_MALLOC_RES_DATA
                0x08065c80                mGm_FREE_RES_DATA
 .text          0x08065cac       0xbc um_math.o
                0x08065d18                distance
                0x08065cac                fix_mul
                0x08065cf4                fabs32
 .text          0x08065d68      0x7f4 um_oamset.o
                0x08065d68                ObjSet
                0x08066180                PrioritySet
                0x08065f2c                AffineParamSet
                0x08065fbc                NonAffineObjSet
                0x08066274                AffineObjSet
                0x080661fc                ObjModeSet
 .text          0x0806655c      0x1fc um_mosaic.o
                0x0806655c                mosaic_set
                0x08066618                mosaic_main
 .text          0x08066758      0x5a8 cm_game_title.o
                0x08066cd0                multi_title
 .text          0x08066d00     0x1604 ua_act.o
                0x08066d90                act_sub_init
                0x08066d64                mGm_FREE_p_act
                0x08066d00                mGm_MALLOC_p_act
                0x08067fd0                act_main
                0x080672e8                act_InitEnmySet
 .text          0x08068304     0x4ea0 ua_common.o
                0x08068ecc                act_xclc
                0x0806bf38                SMOKST2
                0x080691b4                a_EnTurn
                0x0806bcd8                WENIT50
                0x08069634                act_sub_blak
                0x08068fbc                act_xRevision2
                0x0806bc98                ENINT01
                0x08069f5c                act_sub_pwbk
                0x0806a54c                a_CRFGset
                0x0806bfcc                ALLSMK
                0x08069c98                act_sub_sund
                0x0806beac                SMOKST
                0x0806a16c                OBJUP
                0x08068830                act_objset
                0x0806c218                CPTSET
                0x0806a034                act_sub_frfl
                0x08068c28                act_kyouseiset
                0x0806a8bc                a_BIGCRFGset
                0x080693b8                act_sub_down
                0x0806c0e0                ENCLER
                0x08068a2c                act_objset2
                0x08069044                act_yRevision
                0x08068e64                act_speedclc
                0x08069b24                act_sub_smok
                0x0806d040                Perfect
                0x0806c970                SHOTCK
                0x08069de4                act_sub_suna
                0x0806913c                a_EnMuki
                0x08068db4                a_affinset
                0x0806be10                ENCLST
                0x080690b4                act_yRevision2
                0x0806ba8c                act_LifeSet
                0x0806b4d4                act_oamset
                0x08068f14                act_yclc
                0x080698cc                act_sub_burn
                0x0806b164                a_SBTNCRFGset
                0x080684a0                act_enmyset
                0x0806ace0                a_BIGCRFGset2
                0x0806bc1c                act_enemy_search
                0x0806cfd0                BOSS_SCRFG_SET
                0x08068f4c                act_xRevision
                0x0806c6b4                RIBONSET
                0x0806c424                GOHOUBISET
                0x0806cca8                Kamen_Eye_Flash
                0x0806c9f4                SHOTCK2
 .text          0x0806d1a4      0x754 ua_bg.o
                0x0806d258                char_change
                0x0806d1a4                DMA_tenso
                0x0806d7d8                unit_bg_change_v
                0x0806d6a0                unit_bg_change_h
                0x0806d4d4                unit_read
 .text          0x0806d8f8      0x128 ua_unit_change.o
                0x0806d8f8                unit_change
 .text          0x0806da20     0x1224 ua_color.o
                0x0806dba8                game_color_set
                0x0806e3d0                KSRCGST
                0x0806ebb4                ending2_color
                0x0806e368                game_over_col_set
                0x0806da20                gradation_init
                0x0806db50                gradation_set
                0x0806e9b0                mamu_color
                0x0806e23c                tubo_col_set
                0x0806eb24                ending1_color
                0x0806e76c                ice_color
                0x0806ea14                ending_color
                0x0806e510                STCGST
                0x0806e61c                tubo_hosi_color
 .text          0x0806ec44      0x39c ua_bg3_set.o
                0x0806ecd8                BG3_buffer_set
 .text          0x0806efe0     0x2a80 ua_sort.o
                0x08071a38                act_objsort_sub
                0x0806efe0                act_objsort
 .text          0x08071a60      0x59c ua_eggmeter.o
                0x08071ddc                act_EGGMeterMain
                0x08071a60                m_eggmeter_clear
                0x08071aa8                act_EGGMeterMV
 .text          0x08071ffc      0x2a0 ba_act.o
                0x08072188                acter_main
                0x0807209c                acterInit
                0x08071ffc                acter_init
 .text          0x0807229c      0xd48 ba_bgYuKa.o
                0x08072988                bgYuKa_main
                0x0807229c                MakeBGYuKa
 .text          0x08072fe4     0x15ac ba_bucket.o
                0x08072fe4                bucket_PowJump
                0x0807427c                bucket_main
                0x08073028                bucket_init
 .text          0x08074590     0x11f4 ba_Coin.o
                0x0807478c                Coin_PowJump
                0x08075480                Coin_main
                0x08075618                MakeDemoCoin
                0x08075504                MakeCoin
 .text          0x08075784     0x1b98 ba_common.o
                0x08076818                EraseEffect
                0x08075ab8                Oam2x4LoopSet
                0x0807685c                PerfectDeleteAllEffect
                0x0807658c                EraseEnemy
                0x0807693c                FootRevision
                0x080757d0                OamOtherSet
                0x08076de4                AddScore
                0x08075f34                Oam3x2LoopSet
                0x0807677c                MakeEffect
                0x08076c20                PlayerHitCHK
                0x08076468                MakeEnemy
                0x08075fa8                SobDataOamSet
                0x080772b4                BGYuKaCHK
                0x08075784                DispXCalc
                0x08077024                BGYuKaSearch
                0x080768e0                EnmySearch
                0x0807622c                SizeCHGRollOamSet
                0x08076674                PerfectDeleteAllEnemy
                0x08076a48                BGBF_SCR_CHG
                0x08076608                AllEraseEnemy
                0x08076bf0                BrosEnemyMove
                0x0807598c                Oam2x2LoopSet
 .text          0x0807731c      0x81c ba_egg.o
                0x0807731c                MakeEgg
                0x08077b10                egg_main
 .text          0x08077b38     0x1530 ba_enFly.o
                0x0807828c                Fly_LastSet
                0x08077ee4                Fly_BGJump
                0x08077f5c                Fly_PowJump
                0x08078fdc                Fly_main
 .text          0x08079068     0x17c0 ba_enKani.o
                0x08079920                Kani_LastSet
                0x080794b8                Kani_BGJump
                0x0807a79c                Kani_main
                0x08079530                Kani_PowJump
 .text          0x0807a828     0x19f4 ba_enmy.o
                0x0807a8e8                Enemy_Ready
                0x0807b8bc                StageEnemy_SetInit
                0x0807aa1c                EnAddPoint
                0x0807b68c                EnAnime_NoChange
                0x0807ac34                EnEn_hitchk
                0x0807a9cc                EnXmove
                0x0807bcec                FireBall_Set
                0x0807b69c                Enemy_OutCheck
                0x0807ae94                Enemy_PowJump
                0x0807a828                EnReturnWait
                0x0807b508                EnemyAnime_Kick
                0x0807a928                StageOnCheck
                0x0807aa90                Create_Point
                0x0807b838                DakanInCheck
                0x0807b9c4                StageEnemy_SetMain
                0x0807af6c                Enemy_PLTurn
                0x0807b5a8                EnDead_OamSet
                0x0807b420                Enemy_Kick
                0x0807c058                Make_Freezer
                0x0807b088                Enemy_PLKick
                0x0807abc8                Create_Splash
                0x0807bbd4                FireBall_TimerSet
                0x0807c19c                Kuppa_OopsInit
                0x0807bf54                Icicle_TimerSet
                0x0807a874                EnPosSet
 .text          0x0807c21c       0x10 ba_enNoko.o
                0x0807c21c                NoKoKame_main
 .text          0x0807c22c     0x16d8 ba_enToge.o
                0x0807ca60                Togezo_LastSet
                0x0807d84c                Togezo_main
                0x0807c688                Togezo_PowJump
                0x0807c608                Togezo_BGJump
 .text          0x0807d904     0x1478 ba_fire.o
                0x0807da1c                Fire_BGJump
                0x0807eb60                Fireball_main
                0x0807d9cc                Fire_BreakOut
                0x0807ebd8                Create_Fireball
 .text          0x0807ed7c      0x290 ba_fishBone.o
                0x0807ed7c                MakeFishBone
                0x0807efe4                fishBone_main
 .text          0x0807f00c      0x3f0 ba_heart.o
                0x0807f148                heart_main
                0x0807f00c                MakeHeart
 .text          0x0807f3fc     0x1a88 ba_ice.o
                0x08080e04                Ice_main
                0x0807f50c                Ice_JumpBreak
                0x0807f558                Ice_PowBreak
 .text          0x08080e84      0xbd8 ba_koura.o
                0x08080e84                KouraInit
                0x080819d4                koura_main
                0x08080fbc                MakeKoura
                0x08081050                Koura_PowJump
 .text          0x08081a5c     0x1544 ba_kuppa.o
                0x08081b90                Kuppa_BGJump
                0x08081c1c                Kuppa_PowJump
                0x080829f8                Kuppa_main
                0x08082f40                KppFire_main
 .text          0x08082fa0      0x350 ba_mutekiStar.o
                0x0808307c                mutekiStar_main
                0x08082fa0                MakeMutekiStar
 .text          0x080832f0      0x868 ba_PipeWave.o
                0x080837b0                UnderPipeMake
                0x080835d8                MakePipeWave
                0x08083b04                PipeWave_main
 .text          0x08083b58      0x3a4 ba_point.o
                0x08083ed4                Point_main
 .text          0x08083efc     0x100c ba_pow.o
                0x08083fd0                MakePow
                0x08084500                MakeObjPow
                0x08083efc                ShrinkSet
                0x08084ee0                pow_main
 .text          0x08084f08      0x198 ba_smoke.o
                0x08084f08                smoke_main
 .text          0x080850a0      0x7fc ba_spark.o
                0x08085874                spark_main
                0x080850a0                MakeSpark
 .text          0x0808589c      0x300 ba_splash.o
                0x08085b74                Splash_main
 .text          0x08085b9c      0x374 ba_star.o
                0x08085b9c                MakeStar
                0x08085cdc                star_main
 .text          0x08085f10      0x930 ba_icicle.o
                0x080867e0                Icicle_main
 .text          0x08086840      0x3b8 ba_powsmk.o
                0x08086bd0                Powsmk_main
 .text          0x08086bf8     0x1140 ua_fairy.o
                0x08086bf8                eninit_FAIRY
                0x08087748                enmove_FAIRY
                0x08087834                enoam_FAIRY
                0x08087200                FairyMove2
 .text          0x08087d38     0x1060 ua_walk.o
                0x080888f8                enoam_BIGWALK
                0x08087f00                eninit_WALK
                0x08088028                enoam_WALK
                0x08087d50                WALK_ONPLMV
                0x08087d38                WALK_RIDECK
                0x080884d0                enmove_WALK
 .text          0x08088d98      0x2e0 ua_tori.o
                0x08088de4                enmove_TORI
                0x08088d98                eninit_TORI
 .text          0x08089078      0x180 ua_huck0.o
                0x080890b4                enmove_HUCK0
                0x08089078                eninit_HUCK0
 .text          0x080891f8      0x6f0 ua_shoot.o
                0x08089340                enmove_SHOOT
                0x0808963c                enmove_SHOO1
                0x080891f8                eninit_SHOOT
 .text          0x080898e8      0xbfc ua_force.o
                0x08089948                enoam_FORCE
                0x0808a030                enmove_FORCE
                0x0808a3a4                F_HEIHO_SET
                0x080898e8                eninit_FORCE
 .text          0x0808a4e4      0x9f8 ua_burn0.o
                0x0808aa58                enmove_BURN0
                0x0808a4e4                eninit_BURN0
                0x0808a53c                enoam_BURN0
 .text          0x0808aedc      0x990 ua_bird.o
                0x0808b054                enoam_BIRD0
                0x0808aedc                eninit_BIRD
                0x0808b610                enmove_BIRD
 .text          0x0808b86c      0x2b8 ua_ninja.o
                0x0808b928                enmove_NINJA
                0x0808b86c                eninit_NINJA
 .text          0x0808bb24      0x3fc ua_ninj1.o
                0x0808bb60                enmove_NINJ1
                0x0808bb24                eninit_NINJ1
 .text          0x0808bf20      0x2d4 ua_flyng.o
                0x0808c068                enmove_FLYNG
                0x0808bf20                eninit_FLYNG
 .text          0x0808c1f4     0x13a4 ua_pigmo.o
                0x0808cb64                enoam_PIGMO
                0x0808c55c                eninit_CRPET
                0x0808c1f4                eninit_PIGMO
                0x0808d230                enoam_CRPET
                0x0808c5b4                enmove_CRPET
                0x0808c3b4                enmove_PIGMO
 .text          0x0808d598      0x7d8 ua_fish0.o
                0x0808d9dc                enoam_FISH0
                0x0808d654                enmove_FISH0
                0x0808d598                eninit_FISH0
 .text          0x0808dd70      0x4c8 ua_musi0.o
                0x0808dd70                eninit_MUSI0
                0x0808df70                enmove_MUSI0
 .text          0x0808e238      0x2bc ua_tubo.o
                0x0808e29c                enoam_TUBO
                0x0808e2b4                enmove_TUBO
                0x0808e238                eninit_TUBO
 .text          0x0808e4f4      0x860 ua_mask.o
                0x0808e78c                enmove_MASK
                0x0808e4f4                eninit_MASK
                0x0808e9e4                enoam_MASK0
 .text          0x0808ed54      0x798 ua_hebi0.o
                0x0808ed54                enoam_HEBI
                0x0808f180                eninit_HEBI0
                0x0808f1c0                enmove_HEBI0
 .text          0x0808f4ec      0x4ac ua_hebi1.o
                0x0808f614                enmove_HEBI1
                0x0808f4ec                eninit_HEBI1
                0x0808f52c                enmvsb_HSHOOT
 .text          0x0808f998      0xb74 ua_sbten.o
                0x0808f998                eninit_SBTEN
                0x0808fa04                enoam_SBTEN
                0x08090024                enmove_SBTEN
                0x0809037c                SBTEN_SET
 .text          0x0809050c     0x1034 ua_boss0.o
                0x08090e3c                enmove_BOSS0
                0x0809050c                eninit_BOSS0
                0x080905ec                BOSS_FAILVOICE
                0x080911cc                enoam_BOSS0
 .text          0x08091540      0x998 ua_mikey.o
                0x08091540                eninit_MIKEY
                0x08091b64                enoam_MIKEY
                0x08091850                enmove_MIKEY
 .text          0x08091ed8     0x1c10 ua_ball1.o
                0x080926c8                enoam_BKDN
                0x080922c4                eninit_BKDN
                0x08093058                enmove_KABUFAIRY
                0x08092304                enmove_BKDN
                0x08092fc4                enmove_WATCH
                0x08092d1c                enmove_BISHI
                0x08092ec0                eninit_YASAI
                0x08091ed8                eninit_BALL1
                0x08092228                eninit_DANGN
                0x08093800                enmove_VSCRDOWN
                0x08093318                enoam_KABUFAIRY
                0x08093344                enmove_SCRDOWN
                0x08092cc0                eninit_BISHI
                0x08092e5c                enmove_BALLM
                0x08091f68                enmove_BALL1
                0x08092258                enmove_DANGN
                0x08092ef0                enmove_YASAI
                0x08093550                enmove_VSCRUP
                0x08092e2c                eninit_BALLM
 .text          0x08093ae8      0x880 ua_snake.o
                0x08093e60                enoam_SNAKE
                0x08093ae8                eninit_SNAKE
                0x08093c3c                enmove_SNAKE
 .text          0x08094368      0x8c8 ua_fire1.o
                0x08094380                eninit_SMOK2
                0x08094b0c                eninit_FIRE1
                0x0809447c                enmove_BIGSMK
                0x08094a9c                enmove_BOMB
                0x08094368                enmove_KEMURI
                0x080945e4                enoam_BIGSMK
                0x080943a4                enmove_SMOK2
                0x08094b4c                enmove_FIRE1
 .text          0x08094c30      0xa84 ua_bkani.o
                0x08095170                enoam_BKANI
                0x08094c30                eninit_BKANI
                0x08094d48                enmove_BKANI
 .text          0x080956b4      0x34c ua_flwer.o
                0x080956b4                eninit_FLWER
                0x08095714                enmove_FLWER
 .text          0x08095a00      0xce8 ua_canon.o
                0x08095a90                enoam_CANON
                0x080961cc                enmove_CANON
                0x080965ac                C_HEIHO_SET
                0x08095a00                eninit_CANON
 .text          0x080966e8      0xa08 ua_fnsui.o
                0x080966e8                eninit_FNSUI
                0x08096f38                enoam_FNSUI
                0x08096f94                enmove_FNSUI
 .text          0x080970f0      0x37c ua_icemn.o
                0x080970f0                eninit_ICEMN
                0x0809715c                enmove_ICEMN
 .text          0x0809746c      0xeac ua_fireb.o
                0x08097c94                enoam_FIRES
                0x08097ab4                eninit_FIRES
                0x08097ae4                enmove_FIRES
                0x08097f80                enoam_FIREB
                0x0809746c                eninit_FIREB
                0x0809789c                enmove_FIREB
 .text          0x08098318      0xac8 ua_mamuu.o
                0x0809874c                enmove_MAMUU
                0x080984f4                eninit_MAMUU
                0x08098aa8                enoam_MAMUU
 .text          0x08098de0      0xab4 ua_bgkao.o
                0x08099124                enmove_BGKAO
                0x08098de0                eninit_BGKAO
                0x08099480                enoam_BGKAO
 .text          0x08099894      0x55c ua_whats.o
                0x08099998                WHATSBGCK_sub
                0x08099894                eninit_WHATS
                0x08099cd4                enmove_WHATS
                0x08099b88                WHATSMV
 .text          0x08099df0      0x1f0 ua_wood.o
                0x08099e5c                enmove_WOOD
                0x08099df0                eninit_WOOD
 .text          0x08099fe0      0xc70 ua_exit.o
                0x0809a064                eninit_EXIT
                0x0809a240                enmove_EXIT
                0x0809a850                enoam_EXIT
 .text          0x0809ac50     0x1590 ua_item.o
                0x0809bad8                enoam_FACE
                0x0809b688                enmove_FACE
                0x0809b19c                enmove_KEY0
                0x0809ad78                eninit_XTAL
                0x0809b64c                eninit_FACE
                0x0809bfe0                enmove_ONEUP
                0x0809bf98                eninit_ONEUP
                0x0809b5e0                enoam_XTAL
                0x0809af80                enmove_XTAL
 .text          0x0809c1e0      0x904 ua_rocket.o
                0x0809c1e0                eninit_ROCKET
                0x0809c70c                enoam_ROCKET
                0x0809c250                enmove_ROCKET
 .text          0x0809cae4      0x6c8 ua_heart.o
                0x0809cf78                enmove_HEART
                0x0809cae4                HEARTST
 .text          0x0809d1ac     0x1f60 ua_door.o
                0x0809dcfc                enoam_BIGDR
                0x0809d1ac                enmove_DOOR
                0x0809d618                enoam_DOOR
                0x0809ece4                enmove_HIKARI
                0x0809ea40                eninit_HIKARI
                0x0809eddc                enoam_HIKARI
                0x0809e72c                enoam_WOODDR
                0x0809d974                eninit_BIGDR
                0x0809e640                enmove_WOODDR
                0x0809e004                WOOD_DRSET
                0x0809d9e8                enmove_BIGDR
 .text          0x0809f10c      0x4cc ua_flag.o
                0x0809f10c                eninit_OFFFLAG
                0x0809f3a8                enmove_FLYNF
                0x0809f21c                enmove_BIRDF
                0x0809f1dc                eninit_FLAG
                0x0809f13c                enmove_OFFFLAG
 .text          0x0809f5d8      0x614 ua_lmp0.o
                0x0809f5d8                enmove_LMP0
 .text          0x0809fbec      0x744 ua_star.o
                0x0809fd84                eninit_STAR
                0x0809ffcc                enoam_STAR
                0x0809fbec                a_StarSet
                0x0809fdfc                enmove_STAR
 .text          0x080a0330      0xa5c ua_spae.o
                0x080a085c                enmove_SPAE
 .text          0x080a0d8c     0x18b0 ua_pwbk.o
                0x080a1288                enmove_POWBK
                0x080a1ff4                enoam_PWBK
                0x080a1878                enoam_CMOD
                0x080a103c                eninit_PWBK
                0x080a1100                enmove_NORMPOWBK
 .text          0x080a263c     0x1f0c ua_bigboss.o
                0x080a4040                enoam_BIGSUB
                0x080a3a4c                enoam_BIGBOSS
                0x080a3578                enmove_BIGBOSS
                0x080a3ff0                enmove_TILTSMK
                0x080a2a34                eninit_BIGBOSS
 .text          0x080a4548      0x764 ua_gondola.o
                0x080a4c5c                enoam_GONDOLA
                0x080a4548                move_item_gondola
                0x080a4928                enmove_GONDOLA
                0x080a4904                eninit_GONDOLA
 .text          0x080a4cac      0xbc4 ua_gonboss.o
                0x080a5354                enmove_GONBOSS
                0x080a540c                enoam_GONBOSS
                0x080a4cac                eninit_GONBOSS
 .text          0x080a5870      0x350 ua_cherry.o
                0x080a5ac4                enmove_CHERRY
                0x080a5910                Cherry_Set
                0x080a59b4                eninit_CHERRY
 .text          0x080a5bc0     0x1cd8 ua_gohoubi.o
                0x080a6e64                enmove_AKADAMA
                0x080a5bc0                eninit_AKADAMA
                0x080a6508                AKADAMA_BOUND
                0x080a7118                enmove_AODAMA
                0x080a5ea0                TAMA_RIDEIT
                0x080a73a4                enoam_AKADAMA
                0x080a5c58                eninit_AODAMA
                0x080a5ce4                TAMA_BENTIT
 .text          0x080a7898      0x484 ua_toge.o
                0x080a7c7c                enoam_TOGE
                0x080a7898                eninit_TOGE
                0x080a7954                enmove_TOGE
 .text          0x080a7d1c     0x1590 ua_egg.o
                0x080a8d1c                enoam_EGG
                0x080a8a9c                enmove_EGG
                0x080a89e0                EGG_ONPLIT
                0x080a8158                eninit_EGG
                0x080a7d1c                EGGFG_DTSV
                0x080a7e54                EGGST
 .text          0x080a92ac      0x140 ua_mask1.o
                0x080a93a4                enoam_MASK1
                0x080a92c4                enmove_MASK1
                0x080a92ac                eninit_MASK1
 .text          0x080a93ec     0x1204 ua_capsule.o
                0x080a98f8                CapsuleMoveLiftUp
                0x080aa4a8                CapsuleOamsetBreak
                0x080a9d98                enmove_CAPSULE
                0x080aa5b8                enoam_CAPSULE
                0x080a9dd0                CapsuleOamsetHide
                0x080a9de8                CapsuleOamsetGround
                0x080a9640                eninit_CAPSULE
                0x080a9f68                CapsuleOamsetLiftUp
                0x080aa490                CapsuleOamsetThrow
                0x080a997c                CapsuleMoveLiftOn
                0x080a97cc                CapsuleMoveGround
                0x080a9718                CapsuleMoveHide
                0x080a93ec                Unit_Check
                0x080aa1ec                CapsuleOamsetLiftOn
                0x080a9ccc                CapsuleMoveBreak
                0x080a9448                Capsule_Bg_Check
                0x080a95a4                Capsule_Item_Change
                0x080a99f4                CapsuleMoveThrow
 .text          0x080aa5f0      0x658 ua_lift.o
                0x080aa5f0                eninit_LIFT
                0x080aa654                enmove_LIFT
                0x080aa994                enoam_LIFT2
                0x080aa7a4                enoam_LIFT
 .text          0x080aac48      0xc50 ua_bubble.o
                0x080ab490                enoam_BUBBLE
                0x080aaf20                enmove_BUBBLE
                0x080aac48                eninit_BUBBLE
 .text          0x080ab898     0x12d0 ua_sboss.o
                0x080ac404                BOSS_DEMOSPEAK
                0x080abac0                enmove_SBOSS
                0x080ac654                enoam_SBOSS
                0x080ab968                eninit_SBOSS
                0x080ac120                enmove_BOSSDEMO
 .text          0x080acb68      0x5f0 ua_itemball.o
                0x080ace34                enoam_ITEMBALL
                0x080acd44                eninit_ITEMBALL
                0x080acb68                hit_ITEMBALL
                0x080ace1c                enmove_ITEMBALL
 .text          0x080ad158      0x1f8 ua_mosaic.o
                0x080ad338                enoam_MOSAIC
                0x080ad254                enmove_MOSAIC
                0x080ad158                eninit_MOSAIC
 .text          0x080ad350      0xa30 ua_coin.o
                0x080ada04                enoam_COIN
                0x080ad7dc                eninit_BIGCOIN
                0x080ad350                REDCOIN_DTRD
                0x080ad8b4                enmove_BIGCOIN
                0x080ad8ec                enmove_COIN
                0x080ad578                BIGCOIN_GET
 .text          0x080add80      0xc84 ua_effect.o
                0x080ae64c                score_posclc
                0x080ae690                scroe_main
                0x080adde0                mGm_FREE_p_scr
                0x080ae8a8                PL_EFFECT_SET
                0x080ae908                SCORE_CLEAR
                0x080add80                mGm_MALLOC_p_scr
                0x080ae798                EFFECT_SET
 .text          0x080aea04      0xb74 ua_shock.o
                0x080af248                shock_check
                0x080aeddc                shock_move
                0x080af3f0                pl_shock_check
                0x080aed84                hahen_move
 .text          0x080af578     0x1144 ua_stareffect.o
                0x080af6ac                mGm_FREE_p_eff
                0x080af974                CoinEffect_Set
                0x080af578                Effect_Clear
                0x080af5cc                All_Effect_Clear
                0x080af6d8                StarEffect_Set
                0x080b02fc                stareffect_main
                0x080afc04                StoneEffect_Set
                0x080af64c                mGm_MALLOC_p_eff
 .text          0x080b06bc      0x300 ua_bosseffect.o
                0x080b06bc                BOSS_EFCTSET
                0x080b0818                bseft_move
                0x080b08b0                bubble_move
 .text          0x080b09bc     0x128c ua_cros.o
                0x080b0dac                a_ENGIVEUP
                0x080b1bac                BRNCROS
                0x080b19d4                ENCROS
 .text          0x080b1c48     0x10ec up_exst.o
                0x080b2920                ex_star_init
                0x080b2550                ex_stone_init
                0x080b2258                ex_mode_clear
                0x080b2714                ex_stone_move
                0x080b2368                ex_smoke_move
                0x080b1c48                ex_init_main
                0x080b22a4                ex_smoke_init
                0x080b2884                ex_stone_oamset
                0x080b2ae4                ex_star_move
                0x080b1d3c                ex_move_main
                0x080b2450                ex_smoke_oamset
                0x080b2c70                ex_star_oamset
 .text          0x080b2d34     0x1548 um_yscr.o
                0x080b3678                bg23_V_scroll_set
                0x080b2d34                KEY22
                0x080b33cc                V_scroll_auto_YOKO
 .text          0x080b427c      0x750 um_tscr.o
                0x080b427c                KEY11
                0x080b4834                H_scroll_auto_TATE
                0x080b45d8                V_scroll_auto_TATE
 .text          0x080b49cc      0x428 m_mini_malloc.o
                0x080b49cc                cMml_Init
                0x080b4d28                cMml_GarbageCollection
                0x080b4c74                cMml_Free
                0x080b4a88                cMml_Malloc
 .text          0x080b4df4     0x2098 sound/m4aLib.o
                0x080b60bc                SoundVSyncOff_rev01
                0x080b5f2c                SampFreqSet_rev01
                0x080b4df4                umul3232H32
                0x080b5d14                MPlayExtender
                0x080b6068                SoundClear_rev01
                0x080b6e20                ply_xsust
                0x080b5e50                Clear64byte_rev
                0x080b6e0c                ply_xdeca
                0x080b5e38                MusicPlayerJumpTableCopy
                0x080b6de4                ply_xtype
                0x080b69c4                MPlayVolumeControl
                0x080b61bc                MPlayStart_rev01
                0x080b522c                SoundMainBTM
                0x080b6e74                ply_xswee
                0x080b6108                SoundVSyncOn_rev01
                0x080b5cbc                m4aMPlayFadeOut
                0x080b6144                MPlayOpen_rev01
                0x080b56fc                TrackStop_rev01
                0x080b5c90                m4aMPlayAllContinue
                0x080b6df8                ply_xatta
                0x080b63f8                MidiKey2CgbFr
                0x080b6e48                ply_xiecv
                0x080b5c24                m4aSongNumContinue
                0x080b6b9c                MPlayLFOSpeedSet
                0x080b5a4c                DummyFunc
                0x080b5a6c                MPlayFadeOut
                0x080b5958                ply_endtie_rev01
                0x080b5c84                m4aMPlayContinue
                0x080b699c                MPlayTempoControl
                0x080b62b0                FadeOutBody_rev01
                0x080b64a0                CgbOscOff
                0x080b6d88                ply_xxx
                0x080b59e8                MidiKey2fr
                0x080b5b18                m4aSoundMain
                0x080b6d9c                ply_xwave
                0x080b6330                TrkVolPitSet_rev01
                0x080b5b24                m4aSongNumStart
                0x080b59c0                ply_lfos_rev01
                0x080b5a50                MPlayContinue
                0x080b59d4                ply_mod_rev01
                0x080b6a2c                MPlayPitchControl
                0x080b6b08                MP_clear_modM
                0x080b5490                MPlayMain_rev01
                0x080b5740                ply_note_rev01
                0x080b5e64                SoundInit_rev01
                0x080b5b50                m4aSongNumStartOrChange
                0x080b6b28                MPlayModDepthSet
                0x080b5b9c                m4aSongNumStartOrContinue
                0x080b6558                CgbSound
                0x080b6270                MPlayStop_rev01
                0x080b6e88                DummyFunc_rev
                0x080b6d68                ply_xcmd
                0x080b5fd0                SoundMode_rev01
                0x080b6aa0                MPlayPanpotControl
                0x080b5e3c                ClearChain_rev
                0x080b5458                SoundVSync_rev01
                0x080b5a8c                m4aSoundInit
                0x080b6e54                ply_xiecl
                0x080b6e60                ply_xleng
                0x080b5ccc                m4aMPlayImmInit
                0x080b6c10                ply_memacc
                0x080b4e04                SoundMain
                0x080b4e88                SoundMainRAM
                0x080b5c58                m4aMPlayAllStop
                0x080b64f0                CgbModVol
                0x080b522c                Clear64byte
                0x080b5bf0                m4aSongNumStop
                0x080b5294                MPlyJmpTblCopy
                0x080b6e34                ply_xrele
 .text          0x080b6e8c        0x4 C:/agb/lib//libagbsyscall.a(AgbSysCpuFastSet.o)
                0x080b6e8c                CpuFastSet
 .text          0x080b6e90        0x4 C:/agb/lib//libagbsyscall.a(AgbSysCpuSet.o)
                0x080b6e90                CpuSet
 .text          0x080b6e94        0x4 C:/agb/lib//libagbsyscall.a(AgbSysDiv.o)
                0x080b6e94                Div
 .text          0x080b6e98        0x8 C:/agb/lib//libagbsyscall.a(AgbSysDivRem.o)
                0x080b6e98                DivRem
 .text          0x080b6ea0        0x4 C:/agb/lib//libagbsyscall.a(AgbSysHuffUnComp.o)
                0x080b6ea0                HuffUnComp
 .text          0x080b6ea4        0x4 C:/agb/lib//libagbsyscall.a(AgbSysLZ77UnCompVram.o)
                0x080b6ea4                LZ77UnCompVram
 .text          0x080b6ea8        0x8 C:/agb/lib//libagbsyscall.a(AgbSysMultiBoot.o)
                0x080b6ea8                MultiBoot
 .text          0x080b6eb0        0x4 C:/agb/lib//libagbsyscall.a(AgbSysObjAffineSet.o)
                0x080b6eb0                ObjAffineSet
 .text          0x080b6eb4        0x4 C:/agb/lib//libagbsyscall.a(AgbSysRegisterRamReset.o)
                0x080b6eb4                RegisterRamReset
 .text          0x080b6eb8       0x18 C:/agb/lib//libagbsyscall.a(AgbSysSoftReset.o)
                0x080b6eb8                SoftReset
 .text          0x080b6ed0        0x8 C:/agb/lib//libagbsyscall.a(AgbSysSoundBiasReset.o)
                0x080b6ed0                SoundBiasReset
 .text          0x080b6ed8        0x8 C:/agb/lib//libagbsyscall.a(AgbSysSoundBiasSet.o)
                0x080b6ed8                SoundBiasSet
 .text          0x080b6ee0        0x4 C:/agb/lib//libagbsyscall.a(AgbSysSqrt.o)
                0x080b6ee0                Sqrt
 .text          0x080b6ee4       0x1c C:/agb/lib//libagbsyscall.a(AgbSysSoftResetRom.o)
                0x080b6ee4                SoftResetRom
 .text          0x080b6f00      0x41c C:/agb/lib//libagbbackup.a(AgbEeprom.o)
                0x080b70f8                ReadEepromDword
                0x080b7034                StopEepromTimer
                0x080b6f70                SetEepromTimerIntr
                0x080b7078                Dma3Transmit
                0x080b72dc                ProgramEepromDwordEx
                0x080b6f48                EepromTimerIntr
                0x080b7284                VerifyEepromDword
                0x080b6fac                StartEepromTimer
                0x080b6f00                IdentifyEeprom
                0x080b71a8                ProgramEepromDword
 .text          0x080b731c       0x3c C:\PROGRA~1\Cygnus\thumbelf-000512\H-i686-cygwin32\bin/../lib/gcc-lib/thumb-elf/2.9-arm-000512/libgcc.a(_call_via_rX.o)
                0x080b7324                _call_via_r2
                0x080b7334                _call_via_r6
                0x080b7330                _call_via_r5
                0x080b7328                _call_via_r3
                0x080b7348                _call_via_fp
                0x080b733c                _call_via_r8
                0x080b7338                _call_via_r7
                0x080b731c                _call_via_r0
                0x080b7344                _call_via_sl
                0x080b7350                _call_via_sp
                0x080b7340                _call_via_r9
                0x080b732c                _call_via_r4
                0x080b7320                _call_via_r1
                0x080b734c                _call_via_ip
                0x080b7354                _call_via_lr
 .text          0x080b7358       0x94 C:\PROGRA~1\Cygnus\thumbelf-000512\H-i686-cygwin32\bin/../lib/gcc-lib/thumb-elf/2.9-arm-000512/libgcc.a(_divsi3.o)
                0x080b7358                __divsi3
 .text          0x080b73ec        0x4 C:\PROGRA~1\Cygnus\thumbelf-000512\H-i686-cygwin32\bin/../lib/gcc-lib/thumb-elf/2.9-arm-000512/libgcc.a(_dvmd_tls.o)
                0x080b73ec                __div0
 .text          0x080b73f0       0x78 C:\PROGRA~1\Cygnus\thumbelf-000512\H-i686-cygwin32\bin/../lib/gcc-lib/thumb-elf/2.9-arm-000512/libgcc.a(_udivsi3.o)
                0x080b73f0                __udivsi3
 .text          0x080b7468       0xc0 C:\PROGRA~1\Cygnus\thumbelf-000512\H-i686-cygwin32\bin/../lib/gcc-lib/thumb-elf/2.9-arm-000512/libgcc.a(_umodsi3.o)
                0x080b7468                __umodsi3
 .text          0x080b7528       0x24 C:\PROGRA~1\Cygnus\thumbelf-000512\H-i686-cygwin32\bin/../lib/gcc-lib/thumb-elf/2.9-arm-000512/../../../../thumb-elf/lib/libg.a(assert.o)
                0x080b7528                __assert
 .text          0x080b754c       0x14 C:\PROGRA~1\Cygnus\thumbelf-000512\H-i686-cygwin32\bin/../lib/gcc-lib/thumb-elf/2.9-arm-000512/../../../../thumb-elf/lib/libg.a(fiprintf.o)
                0x080b754c                fiprintf
 .text          0x080b7560       0x28 C:\PROGRA~1\Cygnus\thumbelf-000512\H-i686-cygwin32\bin/../lib/gcc-lib/thumb-elf/2.9-arm-000512/../../../../thumb-elf/lib/libg.a(libcfunc.o)
                0x080b7580                isatty
                0x080b7560                abort
                0x080b7584                alarm
 .text          0x080b7588       0x60 C:\PROGRA~1\Cygnus\thumbelf-000512\H-i686-cygwin32\bin/../lib/gcc-lib/thumb-elf/2.9-arm-000512/../../../../thumb-elf/lib/libg.a(memcpy.o)
                0x080b7588                memcpy
 .text          0x080b75e8       0x54 C:\PROGRA~1\Cygnus\thumbelf-000512\H-i686-cygwin32\bin/../lib/gcc-lib/thumb-elf/2.9-arm-000512/../../../../thumb-elf/lib/libg.a(memset.o)
                0x080b75e8                memset
 .text          0x080b763c      0x9a4 C:\PROGRA~1\Cygnus\thumbelf-000512\H-i686-cygwin32\bin/../lib/gcc-lib/thumb-elf/2.9-arm-000512/../../../../thumb-elf/lib/libg.a(vfiprintf.o)
                0x080b76d0                vfiprintf
                0x080b76e4                _vfiprintf_r
 .text          0x080b7fe0       0xac C:\PROGRA~1\Cygnus\thumbelf-000512\H-i686-cygwin32\bin/../lib/gcc-lib/thumb-elf/2.9-arm-000512/../../../../thumb-elf/lib/libg.a(wsetup.o)
                0x080b7fe0                __swsetup
 .text          0x080b808c       0x94 C:\PROGRA~1\Cygnus\thumbelf-000512\H-i686-cygwin32\bin/../lib/gcc-lib/thumb-elf/2.9-arm-000512/../../../../thumb-elf/lib/libg.a(fflush.o)
                0x080b808c                fflush
 .text          0x080b8120      0x15c C:\PROGRA~1\Cygnus\thumbelf-000512\H-i686-cygwin32\bin/../lib/gcc-lib/thumb-elf/2.9-arm-000512/../../../../thumb-elf/lib/libg.a(findfp.o)
                0x080b821c                __sinit
                0x080b8158                __sfmoreglue
                0x080b820c                _cleanup
                0x080b81fc                _cleanup_r
                0x080b8188                __sfp
 .text          0x080b827c      0x280 C:\PROGRA~1\Cygnus\thumbelf-000512\H-i686-cygwin32\bin/../lib/gcc-lib/thumb-elf/2.9-arm-000512/../../../../thumb-elf/lib/libg.a(freer.o)
                0x080b827c                _free_r
                0x080b843c                _malloc_trim_r
 .text          0x080b84fc      0x22c C:\PROGRA~1\Cygnus\thumbelf-000512\H-i686-cygwin32\bin/../lib/gcc-lib/thumb-elf/2.9-arm-000512/../../../../thumb-elf/lib/libg.a(fvwrite.o)
                0x080b84fc                __sfvwrite
 .text          0x080b8728       0x40 C:\PROGRA~1\Cygnus\thumbelf-000512\H-i686-cygwin32\bin/../lib/gcc-lib/thumb-elf/2.9-arm-000512/../../../../thumb-elf/lib/libg.a(fwalk.o)
                0x080b8728                _fwalk
 .text          0x080b8768       0x6c C:\PROGRA~1\Cygnus\thumbelf-000512\H-i686-cygwin32\bin/../lib/gcc-lib/thumb-elf/2.9-arm-000512/../../../../thumb-elf/lib/libg.a(locale.o)
                0x080b8768                _setlocale_r
                0x080b87a4                _localeconv_r
                0x080b87ac                setlocale
                0x080b87c4                localeconv
 .text          0x080b87d4       0xdc C:\PROGRA~1\Cygnus\thumbelf-000512\H-i686-cygwin32\bin/../lib/gcc-lib/thumb-elf/2.9-arm-000512/../../../../thumb-elf/lib/libg.a(makebuf.o)
                0x080b87d4                __smakebuf
 .text          0x080b88b0      0x51c C:\PROGRA~1\Cygnus\thumbelf-000512\H-i686-cygwin32\bin/../lib/gcc-lib/thumb-elf/2.9-arm-000512/../../../../thumb-elf/lib/libg.a(mallocr.o)
                0x080b8a0c                _malloc_r
 .text          0x080b8dcc       0x2c C:\PROGRA~1\Cygnus\thumbelf-000512\H-i686-cygwin32\bin/../lib/gcc-lib/thumb-elf/2.9-arm-000512/../../../../thumb-elf/lib/libg.a(mbtowc_r.o)
                0x080b8dcc                _mbtowc_r
 .text          0x080b8df8       0x80 C:\PROGRA~1\Cygnus\thumbelf-000512\H-i686-cygwin32\bin/../lib/gcc-lib/thumb-elf/2.9-arm-000512/../../../../thumb-elf/lib/libg.a(memchr.o)
                0x080b8df8                memchr
 .text          0x080b8e78       0x88 C:\PROGRA~1\Cygnus\thumbelf-000512\H-i686-cygwin32\bin/../lib/gcc-lib/thumb-elf/2.9-arm-000512/../../../../thumb-elf/lib/libg.a(memmove.o)
                0x080b8e78                memmove
 .text          0x080b8f00        0x8 C:\PROGRA~1\Cygnus\thumbelf-000512\H-i686-cygwin32\bin/../lib/gcc-lib/thumb-elf/2.9-arm-000512/../../../../thumb-elf/lib/libg.a(mlock.o)
                0x080b8f04                __malloc_unlock
                0x080b8f00                __malloc_lock
 .text          0x080b8f08       0x2c C:\PROGRA~1\Cygnus\thumbelf-000512\H-i686-cygwin32\bin/../lib/gcc-lib/thumb-elf/2.9-arm-000512/../../../../thumb-elf/lib/libg.a(sbrkr.o)
                0x080b8f08                _sbrk_r
 .text          0x080b8f34       0xc4 C:\PROGRA~1\Cygnus\thumbelf-000512\H-i686-cygwin32\bin/../lib/gcc-lib/thumb-elf/2.9-arm-000512/../../../../thumb-elf/lib/libg.a(stdio.o)
                0x080b8fa8                __sseek
                0x080b8f34                __sread
                0x080b8fe8                __sclose
                0x080b8f68                __swrite
 .text          0x080b8ff8       0x5c C:\PROGRA~1\Cygnus\thumbelf-000512\H-i686-cygwin32\bin/../lib/gcc-lib/thumb-elf/2.9-arm-000512/../../../../thumb-elf/lib/libg.a(strcmp.o)
                0x080b8ff8                strcmp
 .text          0x080b9054       0x44 C:\PROGRA~1\Cygnus\thumbelf-000512\H-i686-cygwin32\bin/../lib/gcc-lib/thumb-elf/2.9-arm-000512/../../../../thumb-elf/lib/libg.a(strlen.o)
                0x080b9054                strlen
 .text          0x080b9098      0x464 C:\PROGRA~1\Cygnus\thumbelf-000512\H-i686-cygwin32\bin/../lib/gcc-lib/thumb-elf/2.9-arm-000512/../../../../thumb-elf/lib/libg.a(syscalls.o)
                0x080b9454                _getpid
                0x080b9104                initialise_monitor_handles
                0x080b9494                _fstat
                0x080b93c0                _open
                0x080b9458                _sbrk
                0x080b94a8                _raise
                0x080b94d8                _times
                0x080b92a4                _lseek
                0x080b92b0                _swiwrite
                0x080b9220                _swilseek
                0x080b93d4                _swiclose
                0x080b9320                _swiopen
                0x080b94a0                _unlink
                0x080b92d4                _write
                0x080b9434                _kill
                0x080b94ac                _gettimeofday
                0x080b91d8                _read
                0x080b9414                _exit
                0x080b91b4                _swiread
                0x080b9408                _close
 .text          0x080b94fc       0x30 C:\PROGRA~1\Cygnus\thumbelf-000512\H-i686-cygwin32\bin/../lib/gcc-lib/thumb-elf/2.9-arm-000512/../../../../thumb-elf/lib/libg.a(writer.o)
                0x080b94fc                _write_r
 .text          0x080b952c       0x2c C:\PROGRA~1\Cygnus\thumbelf-000512\H-i686-cygwin32\bin/../lib/gcc-lib/thumb-elf/2.9-arm-000512/../../../../thumb-elf/lib/libg.a(closer.o)
                0x080b952c                _close_r
 .text          0x080b9558        0xc C:\PROGRA~1\Cygnus\thumbelf-000512\H-i686-cygwin32\bin/../lib/gcc-lib/thumb-elf/2.9-arm-000512/../../../../thumb-elf/lib/libg.a(errno.o)
                0x080b9558                __errno
 .text          0x080b9564       0x2c C:\PROGRA~1\Cygnus\thumbelf-000512\H-i686-cygwin32\bin/../lib/gcc-lib/thumb-elf/2.9-arm-000512/../../../../thumb-elf/lib/libg.a(fstatr.o)
                0x080b9564                _fstat_r
 .text          0x080b9590       0x30 C:\PROGRA~1\Cygnus\thumbelf-000512\H-i686-cygwin32\bin/../lib/gcc-lib/thumb-elf/2.9-arm-000512/../../../../thumb-elf/lib/libg.a(lseekr.o)
                0x080b9590                _lseek_r
 .text          0x080b95c0       0x30 C:\PROGRA~1\Cygnus\thumbelf-000512\H-i686-cygwin32\bin/../lib/gcc-lib/thumb-elf/2.9-arm-000512/../../../../thumb-elf/lib/libg.a(readr.o)
                0x080b95c0                _read_r
 *(.text.*)
 *(.stub)
 *(.gnu.warning)
 *(.gnu.linkonce.t*)
 *(.glue_7t)
 *(.glue_7)
                0x080b95f0                _etext=.
                0x080b95f0                PROVIDE (etext, .)

.fini
 *(.fini)

.rodata         0x080b95f0   0x2880f8
 *(.rodata)
 .rodata        0x080b95f0       0x14 ba_effect.o
 .rodata        0x080b9604      0x3e4 ba_player.o
                0x080b96a4                WalkSoundDT
                0x080b96f4                WinBitDT
                0x080b9678                BattleDeathXposDT
                0x080b9694                DownAnimeDT
                0x080b969a                WalkAnimeDT
                0x080b9604                playerInitDT
                0x080b978a                POffsetDT
                0x080b968e                BigJumpAnimeDT
                0x080b9708                PLInitScchDT
                0x080b9710                CoinReachFlashDT
                0x080b96a0                HandsUpWalkAnimeDT
                0x080b9780                KamekeriSoundDT
                0x080b969d                VFlipWalkAnimeDT
                0x080b9776                KickScoreDT
                0x080b96f8                PLXPosDT
                0x080b9766                MuTeKiFlashDT
                0x080b9794                ReachPlacardData
                0x080b9668                DeathXposDT
                0x080b9688                HandUpDT
                0x080b96b4                FireDamageColDT
                0x080b9760                DaI_data
                0x080b96d4                IceDamageColDT
 .rodata        0x080b99e8       0x28 ba_reach.o
                0x080b99f0                Reach_Ypos_dt
                0x080b99e8                ReachPLNumDT
 .rodata        0x080b9a10      0x11c cm_game.o
                0x080b9a10                d_error_schDT0
                0x080b9a70                d_error_schDT1
                0x080b9ad0                ErrChr
 .rodata        0x080b9b2c       0x30 m_battle_rom_play.o
 .rodata        0x080b9b5c      0x264 m_classic_play.o
                0x080b9d62                NoBunusAddress
                0x080b9d50                NoBonusDT
                0x080b9c0c                ColData
                0x080b9b98                WaKuDT0
                0x080b9c64                YesChrDT
                0x080b9c08                ColTMDT
                0x080b9c54                ContinueChrDT
                0x080b9c68                CreditChrDT
                0x080b9ba4                WaKuDT1
                0x080b9b5c                PLNumAddressDT
                0x080b9c2c                StartChrDT
                0x080b9d6a                AllPoint3000DT
                0x080b9c00                BonusDT1
                0x080b9b7c                BonusColDT
                0x080b9ccc                MarioYposDT
                0x080b9c70                ContinueWakuObjChrDT
                0x080b9c50                OverChrDT
                0x080b9d44                PerfectDT
                0x080b9d5a                PerfectAddress
                0x080b9d7a                AllPoint5000DT
 .rodata        0x080b9dc0       0x50 m_erase.o
 .rodata        0x080b9e10       0x24 m_game.o
 .rodata        0x080b9e34      0x73c m_game_sub.o
                0x080ba550                YData
                0x080ba3e8                HajimekaraDT
                0x080b9ec4                EnKeIUnitDT2
                0x080ba14c                WinLosechrDT
                0x080b9e3c                MoveYuKaCHRDT2
                0x080ba224                WaKuUpDT
                0x080b9f44                EnKeIUnitDT3
                0x080ba24c                WaKuOffSetDT
                0x080ba3d4                TudukeruDT
                0x080ba18a                LoseTimeTBL
                0x080ba420                OamSetPosTable
                0x080ba0c4                EnKeIPanelDT3
                0x080ba144                BrosRedColorDT
                0x080ba18e                PauseDT
                0x080ba198                continueDT
                0x080ba168                KaChiDT
                0x080ba46a                KattaDT
                0x080ba16c                MaKeDT
                0x080ba1f2                BtlWinCountObjPos
                0x080ba176                PlayerNoDT
                0x080ba1a4                continuePosDT
                0x080ba1c8                PauseWakuObjChrDT
                0x080b9e44                EnKeIUnitDT1
                0x080ba390                chrDT
                0x080ba2c8                RoundMoJiDT
                0x080ba186                WinTimeTBL
                0x080ba044                EnKeIPanelDT1
                0x080ba1bc                restartDT
                0x080b9e34                MoveYuKaCHRDT1
                0x080ba104                EnKeIPanelDT4
                0x080ba238                WaKuDownDT
                0x080ba310                CoinFlashDT
                0x080ba2e8                TotalMoJiDT
                0x080ba084                EnKeIPanelDT2
                0x080ba3b8                PushStartDT
                0x080ba3f4                HajimekaraPosDT
                0x080b9fc4                EnKeIUnitDT4
                0x080ba524                BrosCoinDT
                0x080ba17e                PlayerNoLargeDT
                0x080ba1b0                endDT
                0x080ba170                HikiwakeDT
                0x080ba460                FlashPlttData
                0x080ba472                MaketaDT
 .rodata        0x080ba570       0x90 m_game_title.o
 .rodata        0x080ba600       0xf4 m_main.o
                0x080ba600                IntrTable
                0x080ba68c                TILTDT
 .rodata        0x080ba6f4      0x188 m_opening.o
 .rodata        0x080ba87c       0x30 m_score.o
                0x080ba87c                OffSetDT
 .rodata        0x080ba8ac     0x22e4 m_title.o
                0x080bb0ac                PlttData_Sample
                0x080bb2ac                GAME_schDT
                0x080ba8ac                BgScData_Sample
 .rodata        0x080bcb90      0x108 m_title_sub.o
 .rodata        0x080bcc98      0x298 m_vs.o
                0x080bccd4                PLNumData
                0x080bcd10                IDColTime
                0x080bcd30                PlayerXpos
                0x080bccb0                BattleChr
                0x080bcd0c                PLNumXpos
                0x080bcd2c                PlayerCol
                0x080bcca8                ClassicChr
 .rodata        0x080bcf30       0x34 m_VsGame.o
 .rodata        0x080bcf64       0x6c m_VsMain.o
                0x080bcf64                IntrTable2
 .rodata        0x080bcfd0      0x100 ua_char_set.o
 .rodata        0x080bd0d0      0x110 ua_course.o
 .rodata        0x080bd1e0      0x2c0 ua_ending.o
 .rodata        0x080bd4a0      0x270 ua_game.o
 .rodata        0x080bd710       0x4c ua_game_over.o
 .rodata        0x080bd75c       0x6c ua_pause.o
 .rodata        0x080bd7c8       0x8c ua_score.o
 .rodata        0x080bd854       0x7c ua_warp.o
                0x080bd85c                warp_BG_data
                0x080bd854                WARPDT
 .rodata        0x080bd8d0      0x12c um_bonus.o
 .rodata        0x080bd9fc       0x24 um_courseclear.o
 .rodata        0x080bda20       0xb0 um_select.o
 .rodata        0x080bdad0       0xb4 um_select_sub.o
 .rodata        0x080bdb84      0x110 um_yossy.o
 .rodata        0x080bdc94      0x254 up_common.o
                0x080bdc9c                PLFLDT
 .rodata        0x080bdee8      0x2c8 up_player.o
 .rodata        0x080be1b0     0x2ca8 d_title_bros_obj_Huff.o
                0x080be1b0                d_title_bros_obj_Huff
 .rodata        0x080c0e58     0x2800 d_title_bros_bg_sch.o
                0x080c0e58                d_title_bros_bg_schDT
 .rodata        0x080c3658      0x800 d_title_maruc_ssc.o
                0x080c3658                d_title_maruc_sscDT
 .rodata        0x080c3e58      0x800 d_demo_maruc_ssc.o
                0x080c3e58                d_demo_maruc_sscDT
 .rodata        0x080c4658     0x5460 d_classic_obj_sch_Huff.o
                0x080c4658                d_classic_obj_sch_Huff
 .rodata        0x080c9ab8     0x42a4 d_classic_bg_sch_Huff.o
                0x080c9ab8                d_classic_bg_sch_Huff
 .rodata        0x080cdd5c       0x44 m_boot.o
 .rodata        0x080cdda0       0x24 m_sub.o
 .rodata        0x080cddc4       0x4c m_MultiSio.o
 .rodata        0x080cde10        0x8 MultiBoot.o
 .rodata        0x080cde18       0x14 m_bgcheck.o
 .rodata        0x080cde2c        0x4 m_scroll.o
 .rodata        0x080cde30       0xb8 m_classic_sub.o
                0x080cde30                BackBGIDXData
                0x080cde98                BackBG1AddressData
                0x080cde62                BackBGSize
                0x080cde4c                BackBGAddressData
                0x080cde90                BackBGVRAMDT
                0x080cde34                BackBGTMDT
                0x080cde78                BackBGIndexData
 .rodata        0x080cdee8       0x7c ua_save.o
 .rodata        0x080cdf64       0xe8 um_result.o
 .rodata        0x080ce04c    0x20000 um_math.o
                0x080ce04c                SinTbl_s16
 .rodata        0x080ee04c       0x44 um_oamset.o
                0x080ee054                OffsetData
                0x080ee04c                OamSizeData
 .rodata        0x080ee090        0x8 um_mosaic.o
 .rodata        0x080ee098       0x40 cm_game_title.o
 .rodata        0x080ee0d8       0xcc ua_act.o
 .rodata        0x080ee1a4      0x204 ua_common.o
 .rodata        0x080ee3a8       0x30 ua_bg.o
 .rodata        0x080ee3d8        0x8 ua_unit_change.o
 .rodata        0x080ee3e0      0x110 ua_color.o
 .rodata        0x080ee4f0       0x14 ua_bg3_set.o
 .rodata        0x080ee504      0x114 ua_sort.o
 .rodata        0x080ee618       0x24 ua_eggmeter.o
 .rodata        0x080ee63c       0x68 ba_act.o
                0x080ee654                RotateParam
 .rodata        0x080ee6a4       0xa8 ba_bgYuKa.o
                0x080ee6ac                bgYuKaDT
 .rodata        0x080ee74c       0x9c ba_bucket.o
                0x080ee74c                BuketAnimeMoveDT
                0x080ee764                BringItemDataTBL
 .rodata        0x080ee7e8      0x104 ba_Coin.o
                0x080ee840                CoinAnimeTime
                0x080ee854                CoinOamData
 .rodata        0x080ee8ec       0xbc ba_common.o
                0x080ee96c                BrosScoreDT
 .rodata        0x080ee9a8       0x38 ba_egg.o
                0x080ee9a8                EggCoinDT
 .rodata        0x080ee9e0       0xc0 ba_enFly.o
                0x080ee9ec                fxspd
                0x080eea08                flyyspd
                0x080eea24                fcolor
                0x080eea48                fly_timer
                0x080ee9e0                fly_grav
                0x080eea78                anitimef
                0x080eea60                fanimeDT
                0x080eea68                fanitime
 .rodata        0x080eeaa0       0xdc ba_enKani.o
                0x080eeaf8                animeDTk
                0x080eeb00                HflipDTk
                0x080eeb64                kkHflipDT
                0x080eeb34                kanitime
                0x080eeac4                kcolor
                0x080eeb04                walkChark
                0x080eeb40                kanimetime
                0x080eeb28                kanimeDT
                0x080eeb5c                kkanimeDT
                0x080eeaa0                kxspd
 .rodata        0x080eeb7c      0x134 ba_enmy.o
                0x080eec6c                Icicle_Ypos
                0x080eebac                FreezerSetTableC
                0x080eec04                RedFireSetTable
                0x080eebfa                GreenFireBallSetTimer
                0x080eec64                Icicle_Xpos
                0x080eec7c                Icicle_SetTable
                0x080eebf0                RedFireBallSetTimer
                0x080eec34                BattleFireSetTable
                0x080eec1c                GreenFireSetTable
                0x080eebc4                FreezeFloorTableC
 .rodata        0x080eecb0       0xa8 ba_enToge.o
                0x080eecd4                tcolor
                0x080eed1c                atimet
                0x080eecb0                txspd
                0x080eed0e                tanitime
                0x080eed40                animeDt
                0x080eed08                tanimeDT
 .rodata        0x080eed58       0xd8 ba_fire.o
                0x080eede4                FireBallChrNo
                0x080eed74                gfbxspd
                0x080eed58                FireBallAnimeTime
                0x080eedfc                FireBallFlip
                0x080eed64                xps
                0x080eed7c                rfbxspd
                0x080eed8c                rfbyspd
 .rodata        0x080eee30       0x10 ba_fishBone.o
 .rodata        0x080eee40        0xc ba_heart.o
 .rodata        0x080eee4c       0x7c ba_ice.o
                0x080eee90                aniTime
 .rodata        0x080eeec8       0x48 ba_koura.o
                0x080eeed4                KouraAnimeDT
                0x080eeee0                KouraSpeedDT
                0x080eeedc                KouraFlipDT
                0x080eeef4                KouraAnimeTime
 .rodata        0x080eef10       0x6c ba_kuppa.o
                0x080eef10                kpxspd
                0x080eef40                animeTIME
 .rodata        0x080eef7c       0x30 ba_mutekiStar.o
                0x080eef7c                MutekiStarTMDT
                0x080eef82                MutekiStarChrDT
 .rodata        0x080eefac       0x18 ba_PipeWave.o
 .rodata        0x080eefc4       0x10 ba_point.o
 .rodata        0x080eefd4       0x3c ba_pow.o
 .rodata        0x080ef010       0x14 ba_smoke.o
                0x080ef010                SmokeAnimeDT
 .rodata        0x080ef024       0xa8 ba_spark.o
                0x080ef024                speedDT
 .rodata        0x080ef0cc       0x28 ba_splash.o
 .rodata        0x080ef0f4        0xc ba_star.o
 .rodata        0x080ef100       0x54 ba_icicle.o
                0x080ef11c                IcicleAnime
 .rodata        0x080ef154       0x18 ba_powsmk.o
 .rodata        0x080ef16c       0x78 ua_fairy.o
 .rodata        0x080ef1e4       0x3c ua_walk.o
 .rodata        0x080ef220        0x8 ua_tori.o
 .rodata        0x080ef228        0x8 ua_huck0.o
 .rodata        0x080ef230       0x20 ua_shoot.o
 .rodata        0x080ef250       0x20 ua_force.o
 .rodata        0x080ef270       0x28 ua_burn0.o
 .rodata        0x080ef298       0x24 ua_bird.o
 .rodata        0x080ef2bc        0xc ua_ninja.o
 .rodata        0x080ef2c8       0x14 ua_ninj1.o
 .rodata        0x080ef2dc       0x2c ua_flyng.o
 .rodata        0x080ef308       0x54 ua_pigmo.o
 .rodata        0x080ef35c       0x2c ua_fish0.o
 .rodata        0x080ef388       0x14 ua_musi0.o
 .rodata        0x080ef39c        0x8 ua_tubo.o
 .rodata        0x080ef3a4       0x34 ua_mask.o
 .rodata        0x080ef3d8       0x18 ua_hebi0.o
 .rodata        0x080ef3f0       0x10 ua_hebi1.o
 .rodata        0x080ef400       0x28 ua_sbten.o
 .rodata        0x080ef428       0x64 ua_boss0.o
 .rodata        0x080ef48c       0x34 ua_mikey.o
 .rodata        0x080ef4c0       0xa0 ua_ball1.o
 .rodata        0x080ef560       0x30 ua_snake.o
 .rodata        0x080ef590       0x28 ua_fire1.o
 .rodata        0x080ef5b8       0x3c ua_bkani.o
 .rodata        0x080ef5f4       0x14 ua_flwer.o
 .rodata        0x080ef608       0x24 ua_canon.o
 .rodata        0x080ef62c       0x2c ua_fnsui.o
 .rodata        0x080ef658       0x14 ua_icemn.o
 .rodata        0x080ef66c       0x64 ua_fireb.o
 .rodata        0x080ef6d0       0x4c ua_mamuu.o
 .rodata        0x080ef71c       0x38 ua_bgkao.o
 .rodata        0x080ef754       0x1c ua_whats.o
 .rodata        0x080ef770        0x4 ua_wood.o
 .rodata        0x080ef774       0x40 ua_exit.o
 .rodata        0x080ef7b4       0x60 ua_item.o
 .rodata        0x080ef814       0x28 ua_rocket.o
 .rodata        0x080ef83c       0x1c ua_heart.o
 .rodata        0x080ef858       0xb8 ua_door.o
 .rodata        0x080ef910       0x2c ua_flag.o
 .rodata        0x080ef93c       0x14 ua_lmp0.o
 .rodata        0x080ef950       0x30 ua_star.o
 .rodata        0x080ef980       0x1c ua_spae.o
 .rodata        0x080ef99c       0x68 ua_pwbk.o
 .rodata        0x080efa04       0xac ua_bigboss.o
 .rodata        0x080efab0       0x18 ua_gondola.o
 .rodata        0x080efac8       0x20 ua_gonboss.o
 .rodata        0x080efae8       0x10 ua_cherry.o
 .rodata        0x080efaf8       0x2c ua_gohoubi.o
 .rodata        0x080efb24        0x4 ua_toge.o
 .rodata        0x080efb28       0x5c ua_egg.o
 .rodata        0x080efb84        0xc ua_mask1.o
 .rodata        0x080efb90       0x38 ua_capsule.o
 .rodata        0x080efbc8        0x8 ua_lift.o
 .rodata        0x080efbd0       0x2c ua_bubble.o
 .rodata        0x080efbfc       0x4c ua_sboss.o
 .rodata        0x080efc48       0x14 ua_itemball.o
 .rodata        0x080efc5c        0x4 ua_mosaic.o
 .rodata        0x080efc60       0x48 ua_coin.o
 .rodata        0x080efca8       0x4c ua_effect.o
 .rodata        0x080efcf4       0x3c ua_shock.o
 .rodata        0x080efd30       0x6c ua_stareffect.o
 .rodata        0x080efd9c       0x10 ua_bosseffect.o
 .rodata        0x080efdac       0x5c ua_cros.o
 .rodata        0x080efe08      0x380 up_commondt.o
                0x080f017a                VScroll_Start_Low
                0x080f0178                VScroll_Start_High
                0x080efe08                HScr_Vcounter_UP
                0x080f017c                VScroll_Stop_High
                0x080effc0                HScr_Vcounter_DOWN
                0x080f0184                keyscch_direction
                0x080f0182                scrmvx_pos_data
                0x080f017e                VScroll_Stop_Low
                0x080f0180                VScroll_SCNT_Data
 .rodata        0x080f0188       0xb0 up_exst.o
 .rodata        0x080f0238       0x80 um_yscr.o
                0x080f02a0                Hscr_scrmvx_pos
 .rodata        0x080f02b8       0x4c um_tscr.o
 .rodata        0x080f0304       0x7c m_mini_malloc.o
 .rodata        0x080f0380      0x7d8 course_data.o
                0x080f050e                BrosCouseData1
                0x080f0380                CHR_DATA
                0x080f093e                BrosCouseData3
                0x080f0726                BrosCouseData2
 .rodata        0x080f0b58      0x648 course_classic.o
                0x080f0b58                ClassicCourse1
                0x080f0d70                ClassicCourse2
                0x080f0f88                ClassicCourse3
 .rodata        0x080f11a0      0x200 d_bros_BG_scl.o
                0x080f11a0                d_bros_BG_sclDT
 .rodata        0x080f13a0      0x200 d_Bros_obj_winner_scl.o
                0x080f13a0                d_Bros_obj_winner_sclDT
 .rodata        0x080f15a0      0x200 d_classic_bg_scl.o
                0x080f15a0                d_classic_bg_sclDT
 .rodata        0x080f17a0      0x200 d_classic_obj_scl.o
                0x080f17a0                d_classic_obj_sclDT
 .rodata        0x080f19a0     0x1c00 d_classic_BGanime_sch.o
                0x080f19a0                d_classic_BGanime_schDT
 .rodata        0x080f35a0      0x200 d_Bros_obj_scl.o
                0x080f35a0                d_Bros_obj_sclDT
 .rodata        0x080f37a0      0x200 d_title_bros_bg_scl.o
                0x080f37a0                d_title_bros_bg_sclDT
 .rodata        0x080f39a0      0x800 d_title_kabe_ssc.o
                0x080f39a0                d_title_kabe_sscDT
 .rodata        0x080f41a0      0x800 d_title_waku_ssc.o
                0x080f41a0                d_title_waku_sscDT
 .rodata        0x080f49a0      0x200 d_title_bros_obj_scl.o
                0x080f49a0                d_title_bros_obj_sclDT
 .rodata        0x080f4ba0      0x1bc d_classic_bonus2_1_Huff.o
                0x080f4ba0                classic_bonus2_1_Huff
 .rodata        0x080f4d5c      0x1e8 d_classic_bonus2_2_Huff.o
                0x080f4d5c                classic_bonus2_2_Huff
 .rodata        0x080f4f44      0x214 d_classic_bonus2_3_Huff.o
                0x080f4f44                classic_bonus2_3_Huff
 .rodata        0x080f5158      0x23c d_classic_bonus2_4_Huff.o
                0x080f5158                classic_bonus2_4_Huff
 .rodata        0x080f5394      0x2d8 sound/m4aLib.o
                0x080f54d8                FreqTable
                0x080f55a4                CgbFrTable
                0x080f5394                MPlyJmpTbl
                0x080f55f8                Cgb3vol
                0x080f5424                ScaleTable
                0x080f563c                xcmd_tbl
                0x080f5608                clock_tbl_rev01
                0x080f5520                CgbScTable
                0x080f55bc                NoiseTable
                0x080f5508                pcmVBtbl_rev
 .rodata        0x080f566c     0x2188 sound/SoundDat.o
                0x080f566c                voicegroup000
                0x080f629c                voicegroup003
                0x080f5c9c                voicegroup002
                0x080f5c6c                voicegroup001
                0x080f6878                mplay_table
                0x080f69f8                song_table
 .rodata        0x080f77f4      0x2d8 sound/sn_g_cork.o
                0x080f77f4                sn_g_cork
 .rodata        0x080f7acc       0xf4 sound/sn_g_fletbass.o
                0x080f7acc                sn_g_fletbass
 .rodata        0x080f7bc0      0x468 sound/sn_g_brass3.o
                0x080f7bc0                sn_g_brass3
 .rodata        0x080f8028      0x8dc sound/sn_g_kusa.o
                0x080f8028                sn_g_kusa
 .rodata        0x080f8904     0x13c0 sound/sn_g_yoshi.o
                0x080f8904                sn_g_yoshi
 .rodata        0x080f9cc4      0x7a4 sound/sn_g_steeldr.o
                0x080f9cc4                sn_g_steeldr
 .rodata        0x080fa468      0x70c sound/sn_g_kon.o
                0x080fa468                sn_g_kon
 .rodata        0x080fab74      0x4ac sound/sn_g_hits.o
                0x080fab74                sn_g_hits
 .rodata        0x080fb020      0x764 sound/sn_g_oud.o
                0x080fb020                sn_g_oud
 .rodata        0x080fb784      0x5cc sound/sn_g_timp1g_f.o
                0x080fb784                sn_g_timp1g_f
 .rodata        0x080fbd50      0x2e4 sound/sn_g_slbass7.o
                0x080fbd50                sn_g_slbass7
 .rodata        0x080fc034      0x1a0 sound/sn_g_fantasy.o
                0x080fc034                sn_g_fantasy
 .rodata        0x080fc1d4       0x78 sound/sn_g_panflute.o
                0x080fc1d4                sn_g_panflute
 .rodata        0x080fc24c      0x6cc sound/sn_g_s5honky_3.o
                0x080fc24c                sn_g_s5honky_3
 .rodata        0x080fc918      0x1ec sound/sn_g_marimba3.o
                0x080fc918                sn_g_marimba3
 .rodata        0x080fcb04      0x7c8 sound/sn_g_pisnare.o
                0x080fcb04                sn_g_pisnare
 .rodata        0x080fd2cc      0x800 sound/sn_g_cannon.o
                0x080fd2cc                sn_g_cannon
 .rodata        0x080fdacc       0xac sound/sn_g_clarinet.o
                0x080fdacc                sn_g_clarinet
 .rodata        0x080fdb78      0x270 sound/sn_g_trumpet.o
                0x080fdb78                sn_g_trumpet
 .rodata        0x080fdde8      0x628 sound/sn_g_heavyguitar.o
                0x080fdde8                sn_g_heavyguitar
 .rodata        0x080fe410      0x700 sound/sn_g_lowcg.o
                0x080fe410                sn_g_lowcg
 .rodata        0x080feb10       0x94 sound/sn_g_stringsd5.o
                0x080feb10                sn_g_stringsd5
 .rodata        0x080feba4      0x1d8 sound/sn_g_clhihat2.o
                0x080feba4                sn_g_clhihat2
 .rodata        0x080fed7c      0x2f8 sound/sn_g_bsdrum.o
                0x080fed7c                sn_g_bsdrum
 .rodata        0x080ff074      0x44c sound/sn_g_rvsnare.o
                0x080ff074                sn_g_rvsnare
 .rodata        0x080ff4c0     0x5650 sound/sn_o_usa_00.o
                0x080ff4c0                sn_o_usa_00
 .rodata        0x08104b10     0x44c0 sound/sn_o_br_01.o
                0x08104b10                sn_o_br_01
 .rodata        0x08108fd0     0x2c24 sound/sn_o_ma_07.o
                0x08108fd0                sn_o_ma_07
 .rodata        0x0810bbf4     0x39a4 sound/sn_o_ma_08.o
                0x0810bbf4                sn_o_ma_08
 .rodata        0x0810f598     0x390c sound/sn_o_ma_09.o
                0x0810f598                sn_o_ma_09
 .rodata        0x08112ea4     0x37d0 sound/sn_o_ma_10.o
                0x08112ea4                sn_o_ma_10
 .rodata        0x08116674     0x126c sound/sn_o_ma_11.o
                0x08116674                sn_o_ma_11
 .rodata        0x081178e0     0x1f88 sound/sn_o_ma_12.o
                0x081178e0                sn_o_ma_12
 .rodata        0x08119868     0x131c sound/sn_o_ma_14.o
                0x08119868                sn_o_ma_14
 .rodata        0x0811ab84     0x2764 sound/sn_o_ma_16.o
                0x0811ab84                sn_o_ma_16
 .rodata        0x0811d2e8     0x20d4 sound/sn_o_ma_17.o
                0x0811d2e8                sn_o_ma_17
 .rodata        0x0811f3bc     0x36b4 sound/sn_o_ma_19.o
                0x0811f3bc                sn_o_ma_19
 .rodata        0x08122a70     0x1214 sound/sn_o_ma_20.o
                0x08122a70                sn_o_ma_20
 .rodata        0x08123c84      0xba4 sound/sn_o_ma_21.o
                0x08123c84                sn_o_ma_21
 .rodata        0x08124828     0x6e48 sound/sn_o_ma_22.o
                0x08124828                sn_o_ma_22
 .rodata        0x0812b670     0x3360 sound/sn_o_ma_23.o
                0x0812b670                sn_o_ma_23
 .rodata        0x0812e9d0     0x2084 sound/sn_o_ma_24.o
                0x0812e9d0                sn_o_ma_24
 .rodata        0x08130a54     0x152c sound/sn_o_ma_25.o
                0x08130a54                sn_o_ma_25
 .rodata        0x08131f80     0x24b0 sound/sn_o_ma_26.o
                0x08131f80                sn_o_ma_26
 .rodata        0x08134430     0x1dac sound/sn_o_ma_27.o
                0x08134430                sn_o_ma_27
 .rodata        0x081361dc     0x31e4 sound/sn_o_ma_29.o
                0x081361dc                sn_o_ma_29
 .rodata        0x081393c0     0x27a0 sound/sn_o_ma_30.o
                0x081393c0                sn_o_ma_30
 .rodata        0x0813bb60     0x2d00 sound/sn_o_ma_31.o
                0x0813bb60                sn_o_ma_31
 .rodata        0x0813e860     0x157c sound/sn_o_ma_32.o
                0x0813e860                sn_o_ma_32
 .rodata        0x0813fddc     0x1020 sound/sn_o_ma_33.o
                0x0813fddc                sn_o_ma_33
 .rodata        0x08140dfc     0x2088 sound/sn_o_ma_34.o
                0x08140dfc                sn_o_ma_34
 .rodata        0x08142e84     0x2ec4 sound/sn_o_ma_35.o
                0x08142e84                sn_o_ma_35
 .rodata        0x08145d48     0x2d50 sound/sn_o_ma_36.o
                0x08145d48                sn_o_ma_36
 .rodata        0x08148a98     0x35b4 sound/sn_o_ma_37.o
                0x08148a98                sn_o_ma_37
 .rodata        0x0814c04c     0x5f14 sound/sn_o_mo_01.o
                0x0814c04c                sn_o_mo_01
 .rodata        0x08151f60     0x1c8c sound/sn_o_mo_02.o
                0x08151f60                sn_o_mo_02
 .rodata        0x08153bec     0x6a18 sound/sn_o_mo_03.o
                0x08153bec                sn_o_mo_03
 .rodata        0x0815a604     0x2e70 sound/sn_o_tr_01.o
                0x0815a604                sn_o_tr_01
 .rodata        0x0815d474     0x2b08 sound/sn_o_tr_02.o
                0x0815d474                sn_o_tr_02
 .rodata        0x0815ff7c     0x24e4 sound/sn_o_tr_03.o
                0x0815ff7c                sn_o_tr_03
 .rodata        0x08162460     0x39b4 sound/sn_o_tr_04.o
                0x08162460                sn_o_tr_04
 .rodata        0x08165e14     0x4f54 sound/sn_o_tr_05.o
                0x08165e14                sn_o_tr_05
 .rodata        0x0816ad68     0x738c sound/sn_o_cl_01.o
                0x0816ad68                sn_o_cl_01
 .rodata        0x081720f4     0x2a78 sound/sn_o_cl_02.o
                0x081720f4                sn_o_cl_02
 .rodata        0x08174b6c     0x5ea8 sound/sn_o_cl_03.o
                0x08174b6c                sn_o_cl_03
 .rodata        0x0817aa14     0x4968 sound/sn_o_fl_01.o
                0x0817aa14                sn_o_fl_01
 .rodata        0x0817f37c     0x2a8c sound/sn_o_fl_02.o
                0x0817f37c                sn_o_fl_02
 .rodata        0x08181e08     0x20f4 sound/sn_o_fl_03.o
                0x08181e08                sn_o_fl_03
 .rodata        0x08183efc     0x7878 sound/sn_o_wa_01.o
                0x08183efc                sn_o_wa_01
 .rodata        0x0818b774     0x191c sound/sn_o_wa_02.o
                0x0818b774                sn_o_wa_02
 .rodata        0x0818d090     0x1ee0 sound/sn_o_wa_03.o
                0x0818d090                sn_o_wa_03
 .rodata        0x0818ef70     0x5f3c sound/sn_o_wa_04.o
                0x0818ef70                sn_o_wa_04
 .rodata        0x08194eac     0xd464 sound/sn_o_wa_05.o
                0x08194eac                sn_o_wa_05
 .rodata        0x081a2310     0x4734 sound/sn_o_na_01.o
                0x081a2310                sn_o_na_01
 .rodata        0x081a6a44     0x2e44 sound/sn_o_na_02.o
                0x081a6a44                sn_o_na_02
 .rodata        0x081a9888     0x2900 sound/sn_o_na_04.o
                0x081a9888                sn_o_na_04
 .rodata        0x081ac188     0x280c sound/sn_o_na_05.o
                0x081ac188                sn_o_na_05
 .rodata        0x081ae994     0x3e44 sound/sn_o_pi_01.o
                0x081ae994                sn_o_pi_01
 .rodata        0x081b27d8     0x4ba8 sound/sn_o_pi_02.o
                0x081b27d8                sn_o_pi_02
 .rodata        0x081b7380     0x2058 sound/sn_o_pi_03.o
                0x081b7380                sn_o_pi_03
 .rodata        0x081b93d8     0x6158 sound/sn_o_pi_04.o
                0x081b93d8                sn_o_pi_04
 .rodata        0x081bf530     0x45e8 sound/sn_o_re_01.o
                0x081bf530                sn_o_re_01
 .rodata        0x081c3b18     0x4c20 sound/sn_o_re_02.o
                0x081c3b18                sn_o_re_02
 .rodata        0x081c8738     0x1594 sound/sn_o_re_03.o
                0x081c8738                sn_o_re_03
 .rodata        0x081c9ccc     0x4280 sound/sn_o_re_04.o
                0x081c9ccc                sn_o_re_04
 .rodata        0x081cdf4c     0x5388 sound/sn_o_gr_01.o
                0x081cdf4c                sn_o_gr_01
 .rodata        0x081d32d4     0x6e04 sound/sn_o_gr_02.o
                0x081d32d4                sn_o_gr_02
 .rodata        0x081da0d8     0x1fe8 sound/sn_o_gr_03.o
                0x081da0d8                sn_o_gr_03
 .rodata        0x081dc0c0     0x62e4 sound/sn_o_gr_04.o
                0x081dc0c0                sn_o_gr_04
 .rodata        0x081e23a4     0x2498 sound/sn_o_lu_06.o
                0x081e23a4                sn_o_lu_06
 .rodata        0x081e483c     0x2e60 sound/sn_o_lu_08.o
                0x081e483c                sn_o_lu_08
 .rodata        0x081e769c     0x2630 sound/sn_o_lu_09.o
                0x081e769c                sn_o_lu_09
 .rodata        0x081e9ccc     0x2c40 sound/sn_o_lu_10.o
                0x081e9ccc                sn_o_lu_10
 .rodata        0x081ec90c     0x11b8 sound/sn_o_lu_11.o
                0x081ec90c                sn_o_lu_11
 .rodata        0x081edac4     0x1050 sound/sn_o_lu_12.o
                0x081edac4                sn_o_lu_12
 .rodata        0x081eeb14     0x1db4 sound/sn_o_lu_14.o
                0x081eeb14                sn_o_lu_14
 .rodata        0x081f08c8     0x1930 sound/sn_o_lu_16.o
                0x081f08c8                sn_o_lu_16
 .rodata        0x081f21f8     0x1754 sound/sn_o_lu_17.o
                0x081f21f8                sn_o_lu_17
 .rodata        0x081f394c     0x339c sound/sn_o_lu_19.o
                0x081f394c                sn_o_lu_19
 .rodata        0x081f6ce8      0xfa4 sound/sn_o_lu_20.o
                0x081f6ce8                sn_o_lu_20
 .rodata        0x081f7c8c     0x234c sound/sn_o_lu_21.o
                0x081f7c8c                sn_o_lu_21
 .rodata        0x081f9fd8     0x65cc sound/sn_o_lu_22.o
                0x081f9fd8                sn_o_lu_22
 .rodata        0x082005a4     0x3a9c sound/sn_o_lu_23.o
                0x082005a4                sn_o_lu_23
 .rodata        0x08204040     0x1d70 sound/sn_o_lu_24.o
                0x08204040                sn_o_lu_24
 .rodata        0x08205db0     0x1968 sound/sn_o_lu_25.o
                0x08205db0                sn_o_lu_25
 .rodata        0x08207718     0x1f54 sound/sn_o_lu_26.o
                0x08207718                sn_o_lu_26
 .rodata        0x0820966c     0x2304 sound/sn_o_lu_27.o
                0x0820966c                sn_o_lu_27
 .rodata        0x0820b970     0x372c sound/sn_o_lu_28.o
                0x0820b970                sn_o_lu_28
 .rodata        0x0820f09c     0x2200 sound/sn_o_lu_29.o
                0x0820f09c                sn_o_lu_29
 .rodata        0x0821129c     0x2780 sound/sn_o_lu_30.o
                0x0821129c                sn_o_lu_30
 .rodata        0x08213a1c     0x1eb0 sound/sn_o_lu_31.o
                0x08213a1c                sn_o_lu_31
 .rodata        0x082158cc     0x120c sound/sn_o_lu_32.o
                0x082158cc                sn_o_lu_32
 .rodata        0x08216ad8     0x26e0 sound/sn_o_lu_33.o
                0x08216ad8                sn_o_lu_33
 .rodata        0x082191b8     0x4298 sound/sn_o_lu_34.o
                0x082191b8                sn_o_lu_34
 .rodata        0x0821d450     0x34ac sound/sn_o_lu_35.o
                0x0821d450                sn_o_lu_35
 .rodata        0x082208fc     0x1ff4 sound/sn_o_lu_36.o
                0x082208fc                sn_o_lu_36
 .rodata        0x082228f0     0x30b4 sound/sn_o_pe_06.o
                0x082228f0                sn_o_pe_06
 .rodata        0x082259a4     0x1b40 sound/sn_o_pe_08.o
                0x082259a4                sn_o_pe_08
 .rodata        0x082274e4     0x1268 sound/sn_o_pe_09.o
                0x082274e4                sn_o_pe_09
 .rodata        0x0822874c     0x1f88 sound/sn_o_pe_10.o
                0x0822874c                sn_o_pe_10
 .rodata        0x0822a6d4     0x28f8 sound/sn_o_pe_11.o
                0x0822a6d4                sn_o_pe_11
 .rodata        0x0822cfcc     0x10dc sound/sn_o_pe_13.o
                0x0822cfcc                sn_o_pe_13
 .rodata        0x0822e0a8     0x2644 sound/sn_o_pe_15.o
                0x0822e0a8                sn_o_pe_15
 .rodata        0x082306ec     0x18b4 sound/sn_o_pe_16.o
                0x082306ec                sn_o_pe_16
 .rodata        0x08231fa0     0x3be4 sound/sn_o_pe_18.o
                0x08231fa0                sn_o_pe_18
 .rodata        0x08235b84      0x9f4 sound/sn_o_pe_19.o
                0x08235b84                sn_o_pe_19
 .rodata        0x08236578     0x1864 sound/sn_o_pe_20.o
                0x08236578                sn_o_pe_20
 .rodata        0x08237ddc     0x4810 sound/sn_o_pe_21.o
                0x08237ddc                sn_o_pe_21
 .rodata        0x0823c5ec     0x4110 sound/sn_o_pe_22.o
                0x0823c5ec                sn_o_pe_22
 .rodata        0x082406fc     0x1c3c sound/sn_o_pe_23.o
                0x082406fc                sn_o_pe_23
 .rodata        0x08242338     0x13c8 sound/sn_o_pe_24.o
                0x08242338                sn_o_pe_24
 .rodata        0x08243700     0x16cc sound/sn_o_pe_25.o
                0x08243700                sn_o_pe_25
 .rodata        0x08244dcc     0x201c sound/sn_o_pe_26.o
                0x08244dcc                sn_o_pe_26
 .rodata        0x08246de8     0x3538 sound/sn_o_pe_28.o
                0x08246de8                sn_o_pe_28
 .rodata        0x0824a320     0x21b8 sound/sn_o_pe_29.o
                0x0824a320                sn_o_pe_29
 .rodata        0x0824c4d8     0x2e9c sound/sn_o_pe_30.o
                0x0824c4d8                sn_o_pe_30
 .rodata        0x0824f374     0x1868 sound/sn_o_pe_31.o
                0x0824f374                sn_o_pe_31
 .rodata        0x08250bdc     0x1d9c sound/sn_o_pe_32.o
                0x08250bdc                sn_o_pe_32
 .rodata        0x08252978     0x2db4 sound/sn_o_pe_33.o
                0x08252978                sn_o_pe_33
 .rodata        0x0825572c     0x2a90 sound/sn_o_pe_34.o
                0x0825572c                sn_o_pe_34
 .rodata        0x082581bc     0x2c78 sound/sn_o_pe_35.o
                0x082581bc                sn_o_pe_35
 .rodata        0x0825ae34     0x2e30 sound/sn_o_pe_36.o
                0x0825ae34                sn_o_pe_36
 .rodata        0x0825dc64     0x2564 sound/sn_o_to_06.o
                0x0825dc64                sn_o_to_06
 .rodata        0x082601c8     0x3118 sound/sn_o_to_07.o
                0x082601c8                sn_o_to_07
 .rodata        0x082632e0     0x14a0 sound/sn_o_to_08.o
                0x082632e0                sn_o_to_08
 .rodata        0x08264780     0x2070 sound/sn_o_to_09.o
                0x08264780                sn_o_to_09
 .rodata        0x082667f0     0x22d4 sound/sn_o_to_10.o
                0x082667f0                sn_o_to_10
 .rodata        0x08268ac4     0x34e8 sound/sn_o_to_11.o
                0x08268ac4                sn_o_to_11
 .rodata        0x0826bfac     0x1574 sound/sn_o_to_13.o
                0x0826bfac                sn_o_to_13
 .rodata        0x0826d520     0x25d8 sound/sn_o_to_15.o
                0x0826d520                sn_o_to_15
 .rodata        0x0826faf8      0xda4 sound/sn_o_to_16.o
                0x0826faf8                sn_o_to_16
 .rodata        0x0827089c     0x57cc sound/sn_o_to_18.o
                0x0827089c                sn_o_to_18
 .rodata        0x08276068     0x1bf8 sound/sn_o_to_19.o
                0x08276068                sn_o_to_19
 .rodata        0x08277c60     0x1594 sound/sn_o_to_20.o
                0x08277c60                sn_o_to_20
 .rodata        0x082791f4     0x7518 sound/sn_o_to_21.o
                0x082791f4                sn_o_to_21
 .rodata        0x0828070c     0x4780 sound/sn_o_to_22.o
                0x0828070c                sn_o_to_22
 .rodata        0x08284e8c     0x20b4 sound/sn_o_to_23.o
                0x08284e8c                sn_o_to_23
 .rodata        0x08286f40     0x1758 sound/sn_o_to_24.o
                0x08286f40                sn_o_to_24
 .rodata        0x08288698     0x1e54 sound/sn_o_to_25.o
                0x08288698                sn_o_to_25
 .rodata        0x0828a4ec     0x2ab0 sound/sn_o_to_26.o
                0x0828a4ec                sn_o_to_26
 .rodata        0x0828cf9c     0x3e10 sound/sn_o_to_28.o
                0x0828cf9c                sn_o_to_28
 .rodata        0x08290dac     0x24c0 sound/sn_o_to_29.o
                0x08290dac                sn_o_to_29
 .rodata        0x0829326c     0x1f40 sound/sn_o_to_30.o
                0x0829326c                sn_o_to_30
 .rodata        0x082951ac     0x1e84 sound/sn_o_to_31.o
                0x082951ac                sn_o_to_31
 .rodata        0x08297030     0x23c8 sound/sn_o_to_32.o
                0x08297030                sn_o_to_32
 .rodata        0x082993f8     0x28f4 sound/sn_o_to_33.o
                0x082993f8                sn_o_to_33
 .rodata        0x0829bcec     0x2878 sound/sn_o_to_34.o
                0x0829bcec                sn_o_to_34
 .rodata        0x0829e564     0x2b6c sound/sn_o_to_35.o
                0x0829e564                sn_o_to_35
 .rodata        0x082a10d0     0x3538 sound/sn_o_to_36.o
                0x082a10d0                sn_o_to_36
 .rodata        0x082a4608     0x45e8 sound/sn_o_me_01.o
                0x082a4608                sn_o_me_01
 .rodata        0x082a8bf0     0x4c20 sound/sn_o_me_02.o
                0x082a8bf0                sn_o_me_02
 .rodata        0x082ad810     0x1594 sound/sn_o_me_03.o
                0x082ad810                sn_o_me_03
 .rodata        0x082aeda4     0x4280 sound/sn_o_me_04.o
                0x082aeda4                sn_o_me_04
 .rodata        0x082b3024     0x1ac0 sound/sn_o_ma_17ya.o
                0x082b3024                sn_o_ma_17ya
 .rodata        0x082b4ae4     0x181c sound/sn_o_lu_17ya.o
                0x082b4ae4                sn_o_lu_17ya
 .rodata        0x082b6300      0xd64 sound/sn_o_pe_16ya.o
                0x082b6300                sn_o_pe_16ya
 .rodata        0x082b7064      0x944 sound/sn_o_to_16ya.o
                0x082b7064                sn_o_to_16ya
 .rodata        0x082b79a8      0x324 sound/sn_TITLE.o
                0x082b7cac                sn_TITLE
 .rodata        0x082b7ccc       0x74 sound/sn_STAGE1.o
                0x082b7d30                sn_STAGE1
 .rodata        0x082b7d40       0x4c sound/sn_STAGE2.o
                0x082b7d7c                sn_STAGE2
 .rodata        0x082b7d8c       0xf0 sound/sn_CLEAR.o
                0x082b7e70                sn_CLEAR
 .rodata        0x082b7e7c       0xa4 sound/sn_GAMEOVER.o
                0x082b7f10                sn_GAMEOVER
 .rodata        0x082b7f20       0x1c sound/sn_BONUS.o
                0x082b7f30                sn_BONUS
 .rodata        0x082b7f3c       0x1c sound/sn_KEKKA.o
                0x082b7f4c                sn_KEKKA
 .rodata        0x082b7f58       0x40 sound/sn_PERFECT.o
                0x082b7f88                sn_PERFECT
 .rodata        0x082b7f98       0xec sound/sn_BATTLE_DEAD.o
                0x082b8078                sn_BATTLE_DEAD
 .rodata        0x082b8084       0x2c sound/sn_HEART.o
                0x082b80a4                sn_HEART
 .rodata        0x082b80b0       0xb0 sound/sn_COIN5.o
                0x082b8154                sn_COIN5
 .rodata        0x082b8160       0x40 sound/sn_JUMP.o
                0x082b8194                sn_JUMP
 .rodata        0x082b81a0       0x20 sound/sn_SLIP.o
                0x082b81b4                sn_SLIP
 .rodata        0x082b81c0       0x1c sound/sn_WALK_C.o
                0x082b81d0                sn_WALK_C
 .rodata        0x082b81dc       0x1c sound/sn_WALK_E.o
                0x082b81ec                sn_WALK_E
 .rodata        0x082b81f8       0x1c sound/sn_WALK_G.o
                0x082b8208                sn_WALK_G
 .rodata        0x082b8214       0x34 sound/sn_MR_DEAD.o
                0x082b823c                sn_MR_DEAD
 .rodata        0x082b8248       0x3c sound/sn_MR_DOWN.o
                0x082b8278                sn_MR_DOWN
 .rodata        0x082b8284       0x64 sound/sn_MR_NEXT.o
                0x082b82dc                sn_MR_NEXT
 .rodata        0x082b82e8       0x40 sound/sn_POW.o
                0x082b831c                sn_POW
 .rodata        0x082b8328       0x2c sound/sn_PAUSE1UP.o
                0x082b8348                sn_PAUSE1UP
 .rodata        0x082b8354       0x1c sound/sn_KAME.o
                0x082b8364                sn_KAME
 .rodata        0x082b8370       0x3c sound/sn_KANI.o
                0x082b83a0                sn_KANI
 .rodata        0x082b83ac       0x6c sound/sn_HAE.o
                0x082b840c                sn_HAE
 .rodata        0x082b8418       0x50 sound/sn_COIN_OUT.o
                0x082b845c                sn_COIN_OUT
 .rodata        0x082b8468       0x40 sound/sn_TEKI_ATTACK.o
                0x082b849c                sn_TEKI_ATTACK
 .rodata        0x082b84a8       0x5c sound/sn_TEKI_DEAD.o
                0x082b84f8                sn_TEKI_DEAD
 .rodata        0x082b8504       0x20 sound/sn_DOBON.o
                0x082b8518                sn_DOBON
 .rodata        0x082b8524       0x48 sound/sn_COIN_GET.o
                0x082b8560                sn_COIN_GET
 .rodata        0x082b856c       0x54 sound/sn_FREEZER.o
                0x082b85b4                sn_FREEZER
 .rodata        0x082b85c0       0x70 sound/sn_FREEZ_DEAD.o
                0x082b8624                sn_FREEZ_DEAD
 .rodata        0x082b8630       0x38 sound/sn_FIRE.o
                0x082b865c                sn_FIRE
 .rodata        0x082b8668      0x114 sound/sn_boss_bros.o
                0x082b8768                sn_boss_bros
 .rodata        0x082b877c       0xec sound/sn_star_bros.o
                0x082b8850                sn_star_bros
 .rodata        0x082b8868      0x13c sound/sn_KUPPA.o
                0x082b8990                sn_KUPPA
 .rodata        0x082b89a4       0x68 sound/sn_KUPPA_DOSIN.o
                0x082b8a00                sn_KUPPA_DOSIN
 .rodata        0x082b8a0c       0xa4 sound/sn_win1.o
                0x082b8a94                sn_win1
 .rodata        0x082b8ab0       0xdc sound/sn_lose1.o
                0x082b8b74                sn_lose1
 .rodata        0x082b8b8c       0xd4 sound/sn_win2.o
                0x082b8c48                sn_win2
 .rodata        0x082b8c60       0xa8 sound/sn_lose2.o
                0x082b8cf0                sn_lose2
 .rodata        0x082b8d08      0x290 sound/sn_battle2.o
                0x082b8f7c                sn_battle2
 .rodata        0x082b8f98      0x15c sound/sn_battlekekka.o
                0x082b90d8                sn_battlekekka
 .rodata        0x082b90f4       0x80 sound/sn_zelda_fan.o
                0x082b915c                sn_zelda_fan
 .rodata        0x082b9174       0x28 sound/sn_KUPPAFIRE.o
                0x082b9190                sn_KUPPAFIRE
 .rodata        0x082b919c       0x1c sound/sn_BAKETU.o
                0x082b91ac                sn_BAKETU
 .rodata        0x082b91b8       0x3c sound/sn_MOTI.o
                0x082b91e8                sn_MOTI
 .rodata        0x082b91f4       0x24 sound/sn_NAGE.o
                0x082b920c                sn_NAGE
 .rodata        0x082b9218       0x28 sound/sn_TAME.o
                0x082b9234                sn_TAME
 .rodata        0x082b9240       0x60 sound/sn_DAMAGE.o
                0x082b9294                sn_DAMAGE
 .rodata        0x082b92a0       0x78 sound/sn_TIBI.o
                0x082b930c                sn_TIBI
 .rodata        0x082b9318       0x38 sound/sn_NORI.o
                0x082b9344                sn_NORI
 .rodata        0x082b9350       0x30 sound/sn_BUTUKARI.o
                0x082b9374                sn_BUTUKARI
 .rodata        0x082b9380       0x20 sound/sn_HEART_GET.o
                0x082b9394                sn_HEART_GET
 .rodata        0x082b93a0       0x50 sound/sn_DEKA.o
                0x082b93e4                sn_DEKA
 .rodata        0x082b93f0       0xb8 sound/sn_KAO.o
                0x082b949c                sn_KAO
 .rodata        0x082b94a8       0x2c sound/sn_PUSH.o
                0x082b94c8                sn_PUSH
 .rodata        0x082b94d4       0x80 sound/sn_KUPPA_DAMAGE.o
                0x082b9548                sn_KUPPA_DAMAGE
 .rodata        0x082b9554       0xf4 sound/sn_KUPPA_DEAD.o
                0x082b963c                sn_KUPPA_DEAD
 .rodata        0x082b9648       0x2c sound/sn_SHIFT.o
                0x082b9668                sn_SHIFT
 .rodata        0x082b9674       0x5c sound/sn_SAVE.o
                0x082b96bc                sn_SAVE
 .rodata        0x082b96d0       0xd0 sound/sn_intro_battle.o
                0x082b9788                sn_intro_battle
 .rodata        0x082b97a0       0x1c sound/sn_KAMEKERI1.o
                0x082b97b0                sn_KAMEKERI1
 .rodata        0x082b97bc       0x1c sound/sn_KAMEKERI2.o
                0x082b97cc                sn_KAMEKERI2
 .rodata        0x082b97d8       0x1c sound/sn_KAMEKERI3.o
                0x082b97e8                sn_KAMEKERI3
 .rodata        0x082b97f4       0x1c sound/sn_KAMEKERI4.o
                0x082b9804                sn_KAMEKERI4
 .rodata        0x082b9810       0x2c sound/sn_PINPON.o
                0x082b9830                sn_PINPON
 .rodata        0x082b983c       0x24 sound/sn_BUU.o
                0x082b9854                sn_BUU
 .rodata        0x082b9860       0x84 sound/sn_battlekekka_intro.o
                0x082b98d0                sn_battlekekka_intro
 .rodata        0x082b98e4       0x1c sound/sn_FIREDEAD.o
                0x082b98f4                sn_FIREDEAD
 .rodata        0x082b9900       0x24 sound/sn_TURARA_DEAD.o
                0x082b9918                sn_TURARA_DEAD
 .rodata        0x082b9924      0x4ac sound/sn_battle3.o
                0x082b9db4                sn_battle3
 .rodata        0x082b9dd0      0x328 sound/sn_battle4.o
                0x082ba0dc                sn_battle4
 .rodata        0x082ba0f8      0x3b8 sound/sn_bassdrum3.o
                0x082ba494                sn_bassdrum3
 .rodata        0x082ba4b0       0xdc sound/sn_intro_bonus.o
                0x082ba570                sn_intro_bonus
 .rodata        0x082ba58c       0x1c sound/sn_NOBONUS.o
                0x082ba59c                sn_NOBONUS
 .rodata        0x082ba5a8      0x8f4 sound/sn_usa_title.o
                0x082bae74                sn_usa_title
 .rodata        0x082bae9c      0xa70 sound/sn_tijou.o
                0x082bb8ec                sn_tijou
 .rodata        0x082bb90c      0x214 sound/sn_chika.o
                0x082bbb04                sn_chika
 .rodata        0x082bbb20      0x2e4 sound/sn_ura.o
                0x082bbde4                sn_ura
 .rodata        0x082bbe04      0x594 sound/sn_select.o
                0x082bc378                sn_select
 .rodata        0x082bc398      0x2cc sound/sn_boss.o
                0x082bc644                sn_boss
 .rodata        0x082bc664      0x3e0 sound/sn_boss_mamu.o
                0x082bca24                sn_boss_mamu
 .rodata        0x082bca44      0x11c sound/sn_boss_clear.o
                0x082bcb44                sn_boss_clear
 .rodata        0x082bcb60       0xe4 sound/sn_suishou.o
                0x082bcc28                sn_suishou
 .rodata        0x082bcc44       0xcc sound/sn_game_over.o
                0x082bccf0                sn_game_over
 .rodata        0x082bcd10       0x88 sound/sn_slot_start.o
                0x082bcd80                sn_slot_start
 .rodata        0x082bcd98       0xa4 sound/sn_usa_dead.o
                0x082bce24                sn_usa_dead
 .rodata        0x082bce3c      0x188 sound/sn_star.o
                0x082bcfa8                sn_star
 .rodata        0x082bcfc4      0x350 sound/sn_warp.o
                0x082bd2f8                sn_warp
 .rodata        0x082bd314      0x968 sound/sn_usa_ending.o
                0x082bdc5c                sn_usa_ending
 .rodata        0x082bdc7c       0x28 sound/sn_se_final.o
                0x082bdc98                sn_se_final
 .rodata        0x082bdca4       0x24 sound/sn_se_kettei.o
                0x082bdcbc                sn_se_kettei
 .rodata        0x082bdcc8       0x24 sound/sn_se_nage.o
                0x082bdce0                sn_se_nage
 .rodata        0x082bdcec       0x20 sound/sn_se_chery.o
                0x082bdd00                sn_se_chery
 .rodata        0x082bdd0c       0x28 sound/sn_se_tekidead.o
                0x082bdd28                sn_se_tekidead
 .rodata        0x082bdd34       0x28 sound/sn_se_hasigo.o
                0x082bdd50                sn_se_hasigo
 .rodata        0x082bdd5c       0x60 sound/sn_se_damage.o
                0x082bddb0                sn_se_damage
 .rodata        0x082bddbc       0x1c sound/sn_se_moti1.o
                0x082bddcc                sn_se_moti1
 .rodata        0x082bddd8       0x3c sound/sn_se_moti2.o
                0x082bde08                sn_se_moti2
 .rodata        0x082bde14       0x28 sound/sn_se_timer.o
                0x082bde30                sn_se_timer
 .rodata        0x082bde3c       0x48 sound/sn_se_dooropen.o
                0x082bde78                sn_se_dooropen
 .rodata        0x082bde84       0x34 sound/sn_se_doorclose.o
                0x082bdeac                sn_se_doorclose
 .rodata        0x082bdeb8       0x30 sound/sn_se_kamen.o
                0x082bdedc                sn_se_kamen
 .rodata        0x082bdee8       0x2c sound/sn_se_kujira.o
                0x082bdf08                sn_se_kujira
 .rodata        0x082bdf14       0x28 sound/sn_se_bomb.o
                0x082bdf30                sn_se_bomb
 .rodata        0x082bdf3c       0x1c sound/sn_se_coin.o
                0x082bdf4c                sn_se_coin
 .rodata        0x082bdf58       0x28 sound/sn_se_tame.o
                0x082bdf74                sn_se_tame
 .rodata        0x082bdf80       0x30 sound/sn_se_tuboin.o
                0x082bdfa4                sn_se_tuboin
 .rodata        0x082bdfb0       0x30 sound/sn_se_tuboout.o
                0x082bdfd4                sn_se_tuboout
 .rodata        0x082bdfe0       0x24 sound/sn_se_1up.o
                0x082bdff8                sn_se_1up
 .rodata        0x082be004       0x48 sound/sn_se_pow.o
                0x082be040                sn_se_pow
 .rodata        0x082be04c       0x20 sound/sn_se_pause.o
                0x082be060                sn_se_pause
 .rodata        0x082be06c       0x50 sound/sn_se_toriopen.o
                0x082be0b0                sn_se_toriopen
 .rodata        0x082be0bc       0x50 sound/sn_se_toriclose.o
                0x082be100                sn_se_toriclose
 .rodata        0x082be10c       0x54 sound/sn_se_kinoko.o
                0x082be154                sn_se_kinoko
 .rodata        0x082be160       0x24 sound/sn_se_slotroll.o
                0x082be178                sn_se_slotroll
 .rodata        0x082be184       0x20 sound/sn_se_slotkettei.o
                0x082be198                sn_se_slotkettei
 .rodata        0x082be1a4       0x6c sound/sn_se_slotdrum1.o
                0x082be204                sn_se_slotdrum1
 .rodata        0x082be210       0x24 sound/sn_se_slotdrum2.o
                0x082be228                sn_se_slotdrum2
 .rodata        0x082be234       0x40 sound/sn_se_bossdamage.o
                0x082be268                sn_se_bossdamage
 .rodata        0x082be274       0x38 sound/sn_se_bosshaku.o
                0x082be2a0                sn_se_bosshaku
 .rodata        0x082be2ac       0x98 sound/sn_se_rakka.o
                0x082be338                sn_se_rakka
 .rodata        0x082be344       0x4c sound/sn_se_bossdead.o
                0x082be384                sn_se_bossdead
 .rodata        0x082be390       0x34 sound/sn_se_kourakie.o
                0x082be3b8                sn_se_kourakie
 .rodata        0x082be3c4       0x3c sound/sn_se_jump.o
                0x082be3f4                sn_se_jump
 .rodata        0x082be400       0x44 sound/sn_se_rocket.o
                0x082be438                sn_se_rocket
 .rodata        0x082be444       0x78 sound/sn_se_tibi.o
                0x082be4b0                sn_se_tibi
 .rodata        0x082be4bc       0x38 sound/sn_se_slip.o
                0x082be4e8                sn_se_slip
 .rodata        0x082be4f4       0x1c sound/sn_se_kamekeri0.o
                0x082be504                sn_se_kamekeri0
 .rodata        0x082be510       0x1c sound/sn_se_kamekeri1.o
                0x082be520                sn_se_kamekeri1
 .rodata        0x082be52c       0x1c sound/sn_se_kamekeri2.o
                0x082be53c                sn_se_kamekeri2
 .rodata        0x082be548       0x1c sound/sn_se_kamekeri3.o
                0x082be558                sn_se_kamekeri3
 .rodata        0x082be564       0x1c sound/sn_se_kamekeri4.o
                0x082be574                sn_se_kamekeri4
 .rodata        0x082be580       0x1c sound/sn_se_kamekeri5.o
                0x082be590                sn_se_kamekeri5
 .rodata        0x082be59c       0x1c sound/sn_se_kamekeri6.o
                0x082be5ac                sn_se_kamekeri6
 .rodata        0x082be5b8       0x1c sound/sn_se_kamekeri7.o
                0x082be5c8                sn_se_kamekeri7
 .rodata        0x082be5d4       0x1c sound/sn_se_kamekeri8.o
                0x082be5e4                sn_se_kamekeri8
 .rodata        0x082be5f0       0x58 sound/sn_se_mamu.o
                0x082be63c                sn_se_mamu
 .rodata        0x082be648       0xbc sound/sn_se_mamudead.o
                0x082be6f8                sn_se_mamudead
 .rodata        0x082be704       0x1c sound/sn_se_fire.o
                0x082be714                sn_se_fire
 .rodata        0x082be720       0x34 sound/sn_se_mamukemuri.o
                0x082be748                sn_se_mamukemuri
 .rodata        0x082be754       0x1c sound/sn_se_yoshi.o
                0x082be764                sn_se_yoshi
 .rodata        0x082be770      0x25c sound/sn_tubo.o
                0x082be9ac                sn_tubo
 .rodata        0x082be9cc      0x3b8 sound/sn_worldkekka.o
                0x082bed64                sn_worldkekka
 .rodata        0x082bed84       0x68 sound/sn_se_awa.o
                0x082bede0                sn_se_awa
 .rodata        0x082bedec      0x110 sound/sn_se_big.o
                0x082beef0                sn_se_big
 .rodata        0x082beefc       0x64 sound/sn_se_tama.o
                0x082bef54                sn_se_tama
 .rodata        0x082bef60      0x654 sound/sn_boss_mae.o
                0x082bf594                sn_boss_mae
 .rodata        0x082bf5b4      0x30c sound/sn_gamesel.o
                0x082bf8a0                sn_gamesel
 .rodata        0x082bf8c0       0x74 sound/sn_se_jampdai.o
                0x082bf928                sn_se_jampdai
 .rodata        0x082bf934       0x40 sound/sn_se_bossbig.o
                0x082bf968                sn_se_bossbig
 .rodata        0x082bf974       0x28 sound/sn_se_bombfire.o
                0x082bf990                sn_se_bombfire
 .rodata        0x082bf99c       0x38 sound/sn_se_cansel.o
                0x082bf9c8                sn_se_cansel
 .rodata        0x082bf9d4       0x58 sound/sn_se_heart.o
                0x082bfa18                sn_se_heart
 .rodata        0x082bfa2c       0x34 sound/sn_se_biribiri.o
                0x082bfa50                sn_se_biribiri
 .rodata        0x082bfa60       0xcc sound/sn_tamago.o
                0x082bfb10                sn_tamago
 .rodata        0x082bfb2c       0x2c sound/sn_se_shift.o
                0x082bfb4c                sn_se_shift
 .rodata        0x082bfb58       0x54 sound/sn_se_start.o
                0x082bfb9c                sn_se_start
 .rodata        0x082bfbac       0x58 sound/sn_se_save.o
                0x082bfbf0                sn_se_save
 .rodata        0x082bfc04       0x38 sound/sn_se_kamen_okori.o
                0x082bfc2c                sn_se_kamen_okori
 .rodata        0x082bfc3c       0x24 sound/sn_se_kabe.o
                0x082bfc54                sn_se_kabe
 .rodata        0x082bfc60       0xd8 sound/sn_se_titlemoti.o
                0x082bfd28                sn_se_titlemoti
 .rodata        0x082bfd38       0x38 sound/sn_se_titledosun2.o
                0x082bfd64                sn_se_titledosun2
 .rodata        0x082bfd70       0x38 sound/sn_se_titledosun3.o
                0x082bfd9c                sn_se_titledosun3
 .rodata        0x082bfda8       0x24 sound/sn_se_tamago.o
                0x082bfdc0                sn_se_tamago
 .rodata        0x082bfdcc      0x654 sound/sn_boss_mae_r.o
                0x082c0400                sn_boss_mae_r
 .rodata        0x082c0420      0x2cc sound/sn_boss_r.o
                0x082c06cc                sn_boss_r
 .rodata        0x082c06ec      0x120 sound/sn_se_kirakira.o
                0x082c07f8                sn_se_kirakira
 .rodata        0x082c080c       0x20 sound/sn_se_cork.o
                0x082c0820                sn_se_cork
 .rodata        0x082c082c       0x20 sound/sn_v_usa_00.o
                0x082c0840                sn_v_usa_00
 .rodata        0x082c084c       0x20 sound/sn_v_br_01.o
                0x082c0860                sn_v_br_01
 .rodata        0x082c086c       0x20 sound/sn_v_ma_07.o
                0x082c0880                sn_v_ma_07
 .rodata        0x082c088c       0x20 sound/sn_v_ma_08.o
                0x082c08a0                sn_v_ma_08
 .rodata        0x082c08ac       0x20 sound/sn_v_ma_09.o
                0x082c08c0                sn_v_ma_09
 .rodata        0x082c08cc       0x20 sound/sn_v_ma_10.o
                0x082c08e0                sn_v_ma_10
 .rodata        0x082c08ec       0x20 sound/sn_v_ma_11.o
                0x082c0900                sn_v_ma_11
 .rodata        0x082c090c       0x20 sound/sn_v_ma_12.o
                0x082c0920                sn_v_ma_12
 .rodata        0x082c092c       0x20 sound/sn_v_ma_14.o
                0x082c0940                sn_v_ma_14
 .rodata        0x082c094c       0x20 sound/sn_v_ma_16.o
                0x082c0960                sn_v_ma_16
 .rodata        0x082c096c       0x20 sound/sn_v_ma_17.o
                0x082c0980                sn_v_ma_17
 .rodata        0x082c098c       0x20 sound/sn_v_ma_19.o
                0x082c09a0                sn_v_ma_19
 .rodata        0x082c09ac       0x20 sound/sn_v_ma_20.o
                0x082c09c0                sn_v_ma_20
 .rodata        0x082c09cc       0x20 sound/sn_v_ma_21.o
                0x082c09e0                sn_v_ma_21
 .rodata        0x082c09ec       0x20 sound/sn_v_ma_22.o
                0x082c0a00                sn_v_ma_22
 .rodata        0x082c0a0c       0x20 sound/sn_v_ma_23.o
                0x082c0a20                sn_v_ma_23
 .rodata        0x082c0a2c       0x20 sound/sn_v_ma_24.o
                0x082c0a40                sn_v_ma_24
 .rodata        0x082c0a4c       0x20 sound/sn_v_ma_25.o
                0x082c0a60                sn_v_ma_25
 .rodata        0x082c0a6c       0x20 sound/sn_v_ma_26.o
                0x082c0a80                sn_v_ma_26
 .rodata        0x082c0a8c       0x20 sound/sn_v_ma_27.o
                0x082c0aa0                sn_v_ma_27
 .rodata        0x082c0aac       0x20 sound/sn_v_ma_29.o
                0x082c0ac0                sn_v_ma_29
 .rodata        0x082c0acc       0x20 sound/sn_v_ma_30.o
                0x082c0ae0                sn_v_ma_30
 .rodata        0x082c0aec       0x20 sound/sn_v_ma_31.o
                0x082c0b00                sn_v_ma_31
 .rodata        0x082c0b0c       0x20 sound/sn_v_ma_32.o
                0x082c0b20                sn_v_ma_32
 .rodata        0x082c0b2c       0x20 sound/sn_v_ma_33.o
                0x082c0b40                sn_v_ma_33
 .rodata        0x082c0b4c       0x20 sound/sn_v_ma_34.o
                0x082c0b60                sn_v_ma_34
 .rodata        0x082c0b6c       0x20 sound/sn_v_ma_35.o
                0x082c0b80                sn_v_ma_35
 .rodata        0x082c0b8c       0x20 sound/sn_v_ma_36.o
                0x082c0ba0                sn_v_ma_36
 .rodata        0x082c0bac       0x20 sound/sn_v_ma_37.o
                0x082c0bc0                sn_v_ma_37
 .rodata        0x082c0bcc       0x20 sound/sn_v_ma_17ya.o
                0x082c0be0                sn_v_ma_17ya
 .rodata        0x082c0bec       0x20 sound/sn_v_mo_01.o
                0x082c0c00                sn_v_mo_01
 .rodata        0x082c0c0c       0x20 sound/sn_v_mo_02.o
                0x082c0c20                sn_v_mo_02
 .rodata        0x082c0c2c       0x20 sound/sn_v_mo_03.o
                0x082c0c40                sn_v_mo_03
 .rodata        0x082c0c4c       0x20 sound/sn_v_tr_01.o
                0x082c0c60                sn_v_tr_01
 .rodata        0x082c0c6c       0x20 sound/sn_v_tr_02.o
                0x082c0c80                sn_v_tr_02
 .rodata        0x082c0c8c       0x20 sound/sn_v_tr_03.o
                0x082c0ca0                sn_v_tr_03
 .rodata        0x082c0cac       0x20 sound/sn_v_tr_04.o
                0x082c0cc0                sn_v_tr_04
 .rodata        0x082c0ccc       0x20 sound/sn_v_tr_05.o
                0x082c0ce0                sn_v_tr_05
 .rodata        0x082c0cec       0x20 sound/sn_v_cl_01.o
                0x082c0d00                sn_v_cl_01
 .rodata        0x082c0d0c       0x20 sound/sn_v_cl_02.o
                0x082c0d20                sn_v_cl_02
 .rodata        0x082c0d2c       0x20 sound/sn_v_cl_03.o
                0x082c0d40                sn_v_cl_03
 .rodata        0x082c0d4c       0x20 sound/sn_v_fl_01.o
                0x082c0d60                sn_v_fl_01
 .rodata        0x082c0d6c       0x20 sound/sn_v_fl_02.o
                0x082c0d80                sn_v_fl_02
 .rodata        0x082c0d8c       0x20 sound/sn_v_fl_03.o
                0x082c0da0                sn_v_fl_03
 .rodata        0x082c0dac       0x20 sound/sn_v_wa_01.o
                0x082c0dc0                sn_v_wa_01
 .rodata        0x082c0dcc       0x20 sound/sn_v_wa_02.o
                0x082c0de0                sn_v_wa_02
 .rodata        0x082c0dec       0x20 sound/sn_v_wa_03.o
                0x082c0e00                sn_v_wa_03
 .rodata        0x082c0e0c       0x20 sound/sn_v_wa_04.o
                0x082c0e20                sn_v_wa_04
 .rodata        0x082c0e2c       0x20 sound/sn_v_wa_05.o
                0x082c0e40                sn_v_wa_05
 .rodata        0x082c0e4c       0x20 sound/sn_v_na_01.o
                0x082c0e60                sn_v_na_01
 .rodata        0x082c0e6c       0x20 sound/sn_v_na_02.o
                0x082c0e80                sn_v_na_02
 .rodata        0x082c0e8c       0x20 sound/sn_v_na_04.o
                0x082c0ea0                sn_v_na_04
 .rodata        0x082c0eac       0x20 sound/sn_v_na_05.o
                0x082c0ec0                sn_v_na_05
 .rodata        0x082c0ecc       0x20 sound/sn_v_pi_01.o
                0x082c0ee0                sn_v_pi_01
 .rodata        0x082c0eec       0x20 sound/sn_v_pi_02.o
                0x082c0f00                sn_v_pi_02
 .rodata        0x082c0f0c       0x20 sound/sn_v_pi_03.o
                0x082c0f20                sn_v_pi_03
 .rodata        0x082c0f2c       0x20 sound/sn_v_pi_04.o
                0x082c0f40                sn_v_pi_04
 .rodata        0x082c0f4c       0x20 sound/sn_v_re_01.o
                0x082c0f60                sn_v_re_01
 .rodata        0x082c0f6c       0x20 sound/sn_v_re_02.o
                0x082c0f80                sn_v_re_02
 .rodata        0x082c0f8c       0x20 sound/sn_v_re_03.o
                0x082c0fa0                sn_v_re_03
 .rodata        0x082c0fac       0x20 sound/sn_v_re_04.o
                0x082c0fc0                sn_v_re_04
 .rodata        0x082c0fcc       0x20 sound/sn_v_gr_01.o
                0x082c0fe0                sn_v_gr_01
 .rodata        0x082c0fec       0x20 sound/sn_v_gr_02.o
                0x082c1000                sn_v_gr_02
 .rodata        0x082c100c       0x20 sound/sn_v_gr_03.o
                0x082c1020                sn_v_gr_03
 .rodata        0x082c102c       0x20 sound/sn_v_gr_04.o
                0x082c1040                sn_v_gr_04
 .rodata        0x082c104c       0x20 sound/sn_v_me_01.o
                0x082c1060                sn_v_me_01
 .rodata        0x082c106c       0x20 sound/sn_v_me_02.o
                0x082c1080                sn_v_me_02
 .rodata        0x082c108c       0x20 sound/sn_v_me_03.o
                0x082c10a0                sn_v_me_03
 .rodata        0x082c10ac       0x20 sound/sn_v_me_04.o
                0x082c10c0                sn_v_me_04
 .rodata        0x082c10cc       0x20 sound/sn_v_lu_06.o
                0x082c10e0                sn_v_lu_06
 .rodata        0x082c10ec       0x20 sound/sn_v_lu_08.o
                0x082c1100                sn_v_lu_08
 .rodata        0x082c110c       0x20 sound/sn_v_lu_10.o
                0x082c1120                sn_v_lu_10
 .rodata        0x082c112c       0x20 sound/sn_v_lu_09.o
                0x082c1140                sn_v_lu_09
 .rodata        0x082c114c       0x20 sound/sn_v_lu_11.o
                0x082c1160                sn_v_lu_11
 .rodata        0x082c116c       0x20 sound/sn_v_lu_12.o
                0x082c1180                sn_v_lu_12
 .rodata        0x082c118c       0x20 sound/sn_v_lu_14.o
                0x082c11a0                sn_v_lu_14
 .rodata        0x082c11ac       0x20 sound/sn_v_lu_16.o
                0x082c11c0                sn_v_lu_16
 .rodata        0x082c11cc       0x20 sound/sn_v_lu_17.o
                0x082c11e0                sn_v_lu_17
 .rodata        0x082c11ec       0x20 sound/sn_v_lu_19.o
                0x082c1200                sn_v_lu_19
 .rodata        0x082c120c       0x20 sound/sn_v_lu_20.o
                0x082c1220                sn_v_lu_20
 .rodata        0x082c122c       0x20 sound/sn_v_lu_21.o
                0x082c1240                sn_v_lu_21
 .rodata        0x082c124c       0x20 sound/sn_v_lu_22.o
                0x082c1260                sn_v_lu_22
 .rodata        0x082c126c       0x20 sound/sn_v_lu_23.o
                0x082c1280                sn_v_lu_23
 .rodata        0x082c128c       0x20 sound/sn_v_lu_24.o
                0x082c12a0                sn_v_lu_24
 .rodata        0x082c12ac       0x20 sound/sn_v_lu_25.o
                0x082c12c0                sn_v_lu_25
 .rodata        0x082c12cc       0x20 sound/sn_v_lu_26.o
                0x082c12e0                sn_v_lu_26
 .rodata        0x082c12ec       0x20 sound/sn_v_lu_27.o
                0x082c1300                sn_v_lu_27
 .rodata        0x082c130c       0x20 sound/sn_v_lu_28.o
                0x082c1320                sn_v_lu_28
 .rodata        0x082c132c       0x20 sound/sn_v_lu_29.o
                0x082c1340                sn_v_lu_29
 .rodata        0x082c134c       0x20 sound/sn_v_lu_30.o
                0x082c1360                sn_v_lu_30
 .rodata        0x082c136c       0x20 sound/sn_v_lu_31.o
                0x082c1380                sn_v_lu_31
 .rodata        0x082c138c       0x20 sound/sn_v_lu_32.o
                0x082c13a0                sn_v_lu_32
 .rodata        0x082c13ac       0x20 sound/sn_v_lu_33.o
                0x082c13c0                sn_v_lu_33
 .rodata        0x082c13cc       0x20 sound/sn_v_lu_34.o
                0x082c13e0                sn_v_lu_34
 .rodata        0x082c13ec       0x20 sound/sn_v_lu_35.o
                0x082c1400                sn_v_lu_35
 .rodata        0x082c140c       0x20 sound/sn_v_lu_36.o
                0x082c1420                sn_v_lu_36
 .rodata        0x082c142c       0x20 sound/sn_v_lu_17ya.o
                0x082c1440                sn_v_lu_17ya
 .rodata        0x082c144c       0x20 sound/sn_v_pe_06.o
                0x082c1460                sn_v_pe_06
 .rodata        0x082c146c       0x20 sound/sn_v_pe_08.o
                0x082c1480                sn_v_pe_08
 .rodata        0x082c148c       0x20 sound/sn_v_pe_09.o
                0x082c14a0                sn_v_pe_09
 .rodata        0x082c14ac       0x20 sound/sn_v_pe_10.o
                0x082c14c0                sn_v_pe_10
 .rodata        0x082c14cc       0x20 sound/sn_v_pe_11.o
                0x082c14e0                sn_v_pe_11
 .rodata        0x082c14ec       0x20 sound/sn_v_pe_13.o
                0x082c1500                sn_v_pe_13
 .rodata        0x082c150c       0x20 sound/sn_v_pe_15.o
                0x082c1520                sn_v_pe_15
 .rodata        0x082c152c       0x20 sound/sn_v_pe_16.o
                0x082c1540                sn_v_pe_16
 .rodata        0x082c154c       0x20 sound/sn_v_pe_18.o
                0x082c1560                sn_v_pe_18
 .rodata        0x082c156c       0x20 sound/sn_v_pe_19.o
                0x082c1580                sn_v_pe_19
 .rodata        0x082c158c       0x20 sound/sn_v_pe_20.o
                0x082c15a0                sn_v_pe_20
 .rodata        0x082c15ac       0x20 sound/sn_v_pe_21.o
                0x082c15c0                sn_v_pe_21
 .rodata        0x082c15cc       0x20 sound/sn_v_pe_22.o
                0x082c15e0                sn_v_pe_22
 .rodata        0x082c15ec       0x20 sound/sn_v_pe_23.o
                0x082c1600                sn_v_pe_23
 .rodata        0x082c160c       0x20 sound/sn_v_pe_24.o
                0x082c1620                sn_v_pe_24
 .rodata        0x082c162c       0x20 sound/sn_v_pe_25.o
                0x082c1640                sn_v_pe_25
 .rodata        0x082c164c       0x20 sound/sn_v_pe_26.o
                0x082c1660                sn_v_pe_26
 .rodata        0x082c166c       0x20 sound/sn_v_pe_28.o
                0x082c1680                sn_v_pe_28
 .rodata        0x082c168c       0x20 sound/sn_v_pe_29.o
                0x082c16a0                sn_v_pe_29
 .rodata        0x082c16ac       0x20 sound/sn_v_pe_30.o
                0x082c16c0                sn_v_pe_30
 .rodata        0x082c16cc       0x20 sound/sn_v_pe_31.o
                0x082c16e0                sn_v_pe_31
 .rodata        0x082c16ec       0x20 sound/sn_v_pe_32.o
                0x082c1700                sn_v_pe_32
 .rodata        0x082c170c       0x20 sound/sn_v_pe_33.o
                0x082c1720                sn_v_pe_33
 .rodata        0x082c172c       0x20 sound/sn_v_pe_34.o
                0x082c1740                sn_v_pe_34
 .rodata        0x082c174c       0x20 sound/sn_v_pe_35.o
                0x082c1760                sn_v_pe_35
 .rodata        0x082c176c       0x20 sound/sn_v_pe_36.o
                0x082c1780                sn_v_pe_36
 .rodata        0x082c178c       0x20 sound/sn_v_pe_16ya.o
                0x082c17a0                sn_v_pe_16ya
 .rodata        0x082c17ac       0x20 sound/sn_v_to_06.o
                0x082c17c0                sn_v_to_06
 .rodata        0x082c17cc       0x20 sound/sn_v_to_07.o
                0x082c17e0                sn_v_to_07
 .rodata        0x082c17ec       0x20 sound/sn_v_to_08.o
                0x082c1800                sn_v_to_08
 .rodata        0x082c180c       0x20 sound/sn_v_to_09.o
                0x082c1820                sn_v_to_09
 .rodata        0x082c182c       0x20 sound/sn_v_to_10.o
                0x082c1840                sn_v_to_10
 .rodata        0x082c184c       0x20 sound/sn_v_to_11.o
                0x082c1860                sn_v_to_11
 .rodata        0x082c186c       0x20 sound/sn_v_to_13.o
                0x082c1880                sn_v_to_13
 .rodata        0x082c188c       0x20 sound/sn_v_to_15.o
                0x082c18a0                sn_v_to_15
 .rodata        0x082c18ac       0x20 sound/sn_v_to_16.o
                0x082c18c0                sn_v_to_16
 .rodata        0x082c18cc       0x20 sound/sn_v_to_18.o
                0x082c18e0                sn_v_to_18
 .rodata        0x082c18ec       0x20 sound/sn_v_to_19.o
                0x082c1900                sn_v_to_19
 .rodata        0x082c190c       0x20 sound/sn_v_to_20.o
                0x082c1920                sn_v_to_20
 .rodata        0x082c192c       0x20 sound/sn_v_to_21.o
                0x082c1940                sn_v_to_21
 .rodata        0x082c194c       0x20 sound/sn_v_to_22.o
                0x082c1960                sn_v_to_22
 .rodata        0x082c196c       0x20 sound/sn_v_to_23.o
                0x082c1980                sn_v_to_23
 .rodata        0x082c198c       0x20 sound/sn_v_to_24.o
                0x082c19a0                sn_v_to_24
 .rodata        0x082c19ac       0x20 sound/sn_v_to_25.o
                0x082c19c0                sn_v_to_25
 .rodata        0x082c19cc       0x20 sound/sn_v_to_26.o
                0x082c19e0                sn_v_to_26
 .rodata        0x082c19ec       0x20 sound/sn_v_to_28.o
                0x082c1a00                sn_v_to_28
 .rodata        0x082c1a0c       0x20 sound/sn_v_to_29.o
                0x082c1a20                sn_v_to_29
 .rodata        0x082c1a2c       0x20 sound/sn_v_to_30.o
                0x082c1a40                sn_v_to_30
 .rodata        0x082c1a4c       0x20 sound/sn_v_to_31.o
                0x082c1a60                sn_v_to_31
 .rodata        0x082c1a6c       0x20 sound/sn_v_to_32.o
                0x082c1a80                sn_v_to_32
 .rodata        0x082c1a8c       0x20 sound/sn_v_to_33.o
                0x082c1aa0                sn_v_to_33
 .rodata        0x082c1aac       0x20 sound/sn_v_to_34.o
                0x082c1ac0                sn_v_to_34
 .rodata        0x082c1acc       0x20 sound/sn_v_to_35.o
                0x082c1ae0                sn_v_to_35
 .rodata        0x082c1aec       0x20 sound/sn_v_to_36.o
                0x082c1b00                sn_v_to_36
 .rodata        0x082c1b0c       0x20 sound/sn_v_to_16ya.o
                0x082c1b20                sn_v_to_16ya
 .rodata        0x082c1b2c       0x84 C:/agb/lib//libagbbackup.a(AgbEeprom.o)
 .rodata        0x082c1bb0      0x200 USA_data/usa_data.a(ud_title_scl.o)
                0x082c1bb0                title_sclDT
 .rodata        0x082c1db0    0x2b43c USA_data/usa_data.a(ud_game_base_chr.o)
                0x082c65c0                base_chenge_chrDT
                0x082c1db0                base_bg_char_table1
                0x082dcdc0                d_bg1_200_schDT
                0x082cddc0                bg_2_1_schDT
                0x082cc5c0                bg_2_0_schDT
                0x082dddc0                d_bg1_240_schDT
                0x082e35ec                obj_dat2DT
                0x082e0dec                obj_jyochu_sch1DT
                0x082de5dc                base_obj_char_table13
                0x082c1dc0                base_char1DT
                0x082d7dc0                bg_2_3_schDT
                0x082c45c0                base_char2DT
                0x082d2dc0                bg_2_2_schDT
                0x082de5ec                obj_jyochu_schDT
                0x082de5c0                base_obj_char_table11
                0x082e55ec                obj_dat3DT
                0x082e15ec                obj_dat1DT
                0x082de5ce                base_obj_char_table12
                0x082e95ec                obj_tensoDT
                0x082c4dc0                base_char3DT
                0x082ea1ec                d_baikaku_schDT
 .rodata        0x082ed1ec     0x8000 USA_data/usa_data.a(ud_player_sch.o)
                0x082ed1ec                d_player_schDT
 .rodata        0x082f51ec      0x220 USA_data/usa_data.a(ud_base_col.o)
                0x082f52ac                d_gradation_sclDT2
                0x082f52ec                d_gradation_sclDT4
                0x082f530c                ud_usa_score_sclDT
                0x082f51ec                d_debu_chasalin_sclDT
                0x082f528c                d_gradation_sclDT1
                0x082f52cc                d_gradation_sclDT3
                0x082f534c                ud_yoshi_tamago_sclDT
 .rodata        0x082f540c     0x4000 USA_data/usa_data.a(ud_hajimari_sch.o)
                0x082f540c                d_hajimari_schDT
 .rodata        0x082f940c       0xe0 USA_data/usa_data.a(ud_hajimari_obj_sch.o)
                0x082f940c                d_hajimari_obj_schDT
 .rodata        0x082f94ec      0x200 USA_data/usa_data.a(ud_player_sel_scl.o)
                0x082f94ec                d_player_sel_sclDT
 .rodata        0x082f96ec      0x3e8 USA_data/usa_data.a(ud_player_sel_BG1_ssc.o)
                0x082f96ec                d_player_sel_BG1_sscDTCP
 .rodata        0x082f9ad4      0x230 USA_data/usa_data.a(ud_hajimari_main_ssc.o)
                0x082f9ad4                d_hajimari_main_sscDTCP
 .rodata        0x082f9d04      0x2b0 USA_data/usa_data.a(ud_hajimari_main_yossy_ssc.o)
                0x082f9d04                d_hajimari_main_yossy_sscDTCP
 .rodata        0x082f9fb4       0x6c USA_data/usa_data.a(ud_hajimari_win2_ssc.o)
                0x082f9fb4                d_hajimari_win2_sscDTCP
 .rodata        0x082fa020      0x590 USA_data/usa_data.a(ud_hajimari_win_ssc.o)
                0x082fa020                d_hajimari_win_sscDTCP
 .rodata        0x082fa5b0      0x630 USA_data/usa_data.a(ud_hajimari_win_yossy_ssc.o)
                0x082fa5b0                d_hajimari_win_yossy_sscDTCP
 .rodata        0x082fabe0      0x508 USA_data/usa_data.a(ud_redcoin_normal_ssc.o)
                0x082fabe0                d_redcoin_normal_sscDTCP
 .rodata        0x082fb0e8      0x520 USA_data/usa_data.a(ud_redcoin_yossy_ssc.o)
                0x082fb0e8                d_redcoin_yossy_sscDTCP
 .rodata        0x082fb608      0x1c4 USA_data/usa_data.a(ud_course_sel_ssc.o)
                0x082fb608                d_course_sel_sscDTCP
 .rodata        0x082fb7cc     0x1000 USA_data/usa_data.a(ud_hajimari_tenso_sch.o)
                0x082fb7cc                d_hajimari_tenso_schDT
 .rodata        0x082fc7cc     0x1000 USA_data/usa_data.a(ud_bg3_sch.o)
                0x082fc7cc                d_bg3_schDT
 .rodata        0x082fd7cc       0x68 USA_data/usa_data.a(ud_slot_BG1_ssc.o)
                0x082fd7cc                d_slot_BG1_sscDTCP
 .rodata        0x082fd834      0x800 USA_data/usa_data.a(ud_slot_BG2_ssc.o)
                0x082fd834                ud_slot_BG2_sscDT
 .rodata        0x082fe034      0x480 USA_data/usa_data.a(ud_slot_scl.o)
                0x082fe034                d_leach_sclDT
                0x082fe434                d_coinup_sclDT
                0x082fe234                d_atari_sclDT
 .rodata        0x082fe4b4     0x1400 USA_data/usa_data.a(ud_slot_obj_sch.o)
                0x082fe4b4                d_slot_obj_schDT
 .rodata        0x082ff8b4      0x200 USA_data/usa_data.a(ud_slot_obj_scl.o)
                0x082ff8b4                d_slot_obj_sclDT
 .rodata        0x082ffab4      0x800 USA_data/usa_data.a(ud_game_over_ssc.o)
                0x082ffab4                d_game_over_sscDT
 .rodata        0x083002b4      0x800 USA_data/usa_data.a(ud_warp_ssc.o)
                0x083002b4                d_warp_sscDT
 .rodata        0x08300ab4     0x1000 USA_data/usa_data.a(ud_pause_sch.o)
                0x08300ab4                ud_pause_schDT
 .rodata        0x08301ab4      0x800 USA_data/usa_data.a(ud_ending_sch.o)
                0x08301ab4                ud_ending_schDT
 .rodata        0x083022b4     0x3800 USA_data/usa_data.a(ud_ending_ssc.o)
                0x08303ab4                ud_ending1_1_sscDT
                0x083032b4                ud_ending0_3_sscDT
                0x083042b4                ud_ending1_2_sscDT
                0x08302ab4                ud_ending0_2_sscDT
                0x08304ab4                ud_ending1_3_sscDT
                0x083022b4                ud_ending0_1_sscDT
                0x083052b4                ud_ending2_1_sscDT
 .rodata        0x08305ab4       0x60 USA_data/usa_data.a(ud_ending_scl.o)
                0x08305ab4                ud_ending_sclDT
 .rodata        0x08305b14      0xc00 USA_data/usa_data.a(ud_ending1_sch.o)
                0x08305b14                ud_ending1_schDT
 .rodata        0x08306714     0x2000 USA_data/usa_data.a(ud_ending1_obj_sch.o)
                0x08306714                ud_ending1_obj_schDT
 .rodata        0x08308714      0x400 USA_data/usa_data.a(ud_ending1_scl.o)
                0x08308714                ud_ending1_bg_sclDT
                0x08308914                ud_ending1_obj_sclDT
 .rodata        0x08308b14      0x400 USA_data/usa_data.a(ud_ending2_scl.o)
                0x08308d14                ud_ending2_obj_sclDT
                0x08308b14                ud_ending2_bg_sclDT
 .rodata        0x08308f14     0x6000 USA_data/usa_data.a(ud_ending2_bg_sch.o)
                0x08308f14                ud_ending2_bg_schDT
 .rodata        0x0830ef14     0x1800 USA_data/usa_data.a(ud_ending2_bg_base_sch.o)
                0x0830ef14                ud_ending2_bg_base_schDT
 .rodata        0x08310714     0x4800 USA_data/usa_data.a(ud_ending2_obj_sch.o)
                0x08310714                ud_ending2_obj_schDT
 .rodata        0x08314f14     0x2800 USA_data/usa_data.a(ud_gondola_BG_sch.o)
                0x08314f14                ud_gondola_BG_schDT
 .rodata        0x08317714       0x80 USA_data/usa_data.a(ud_gondola_BG_scl.o)
                0x08317714                ud_gondola_BG_sclDT
 .rodata        0x08317794      0x800 USA_data/usa_data.a(ud_gondola_BG2_ssc.o)
                0x08317794                ud_gondola_BG2_sscDT
 .rodata        0x08317f94      0x800 USA_data/usa_data.a(ud_gondola_BG3_ssc.o)
                0x08317f94                ud_gondola_BG3_sscDT
 .rodata        0x08318794      0x120 USA_data/usa_data.a(ud_gondola_OBJ_scl.o)
                0x08318794                ud_gondola_OBJ_sclDT
 .rodata        0x083188b4      0x200 USA_data/usa_data.a(ud_gondola_obj2_sch.o)
                0x083188b4                ud_gondola_obj2_schDT
 .rodata        0x08318ab4       0x60 USA_data/usa_data.a(ud_tubo_BG_scl.o)
                0x08318ab4                ud_tubo_BG_sclDT
 .rodata        0x08318b14      0x400 USA_data/usa_data.a(ud_bighakkun_sch.o)
                0x08318b14                ud_bighakkun_schDT
 .rodata        0x08318f14     0x6e00 USA_data/usa_data.a(ad_select_obj_sch.o)
                0x08318f14                ad_select_obj_schDT
 .rodata        0x0831fd14      0x200 USA_data/usa_data.a(ad_select_obj_scl.o)
                0x0831fd14                ad_select_obj_sclDT
 .rodata        0x0831ff14     0x4000 USA_data/usa_data.a(ad_select_bg_sch.o)
                0x0831ff14                ad_select_bg_schDT
 .rodata        0x08323f14      0x200 USA_data/usa_data.a(ad_select_bg_scl.o)
                0x08323f14                ad_select_bg_sclDT
 .rodata        0x08324114      0x100 USA_data/usa_data.a(ad_selectbg1_game_ssc.o)
                0x08324114                ad_selectbg1_game_sscDT
 .rodata        0x08324214      0x100 USA_data/usa_data.a(ad_selectbg1_file_ssc.o)
                0x08324214                ad_selectbg1_file_sscDT
 .rodata        0x08324314      0x280 USA_data/usa_data.a(ad_selectbg2_ssc.o)
                0x08324314                ad_selectbg2_sscDT
 .rodata        0x08324594      0x3c0 USA_data/usa_data.a(ad_selectbg2_2_ssc.o)
                0x08324594                ad_selectbg2_2_sscDT
 .rodata        0x08324954      0x260 USA_data/usa_data.a(ad_selectbg3_ssc.o)
                0x08324954                ad_selectbg3_sscDTCP
 .rodata        0x08324bb4      0x378 USA_data/usa_data.a(ad_selectbg4_ssc.o)
                0x08324bb4                ad_selectbg4_sscDTCP
 .rodata        0x08324f2c      0x200 USA_data/usa_data.a(ud_yoshi_scl.o)
                0x08324f2c                d_yoshi_sclDT
 .rodata        0x0832512c     0x1800 USA_data/usa_data.a(ud_yoshi_BG_sch.o)
                0x0832512c                d_yoshi_BG_schDT
                0x0832672c                d_yoshi_BG2_schDT
 .rodata        0x0832692c     0x3c00 USA_data/usa_data.a(ud_yoshi_obj_sch.o)
                0x0832692c                d_yoshi_obj_schDT
 .rodata        0x0832a52c      0x104 USA_data/usa_data.a(ud_yoshi_BG0_ssc.o)
                0x0832a52c                d_yoshi_BG0_sscDTCP
 .rodata        0x0832a630      0x3f0 USA_data/usa_data.a(ud_yoshi_BG1_ssc.o)
                0x0832a828                d_yoshi_BG1_2_sscDTCP
                0x0832a630                d_yoshi_BG1_sscDTCP
 .rodata        0x0832aa20      0x780 USA_data/usa_data.a(ud_yoshi_BG2_ssc.o)
                0x0832aa20                d_yoshi_BG2_sscDT
 .rodata        0x0832b1a0      0x200 USA_data/usa_data.a(ud_player_selobj_scl.o)
                0x0832b1a0                d_player_selobj_sclDT
 .rodata        0x0832b3a0     0x4800 USA_data/usa_data.a(ud_player_selobj_sch.o)
                0x0832b3a0                d_player_selobj_schDT
 .rodata        0x0832fba0      0xe00 USA_data/usa_data.a(ud_courseclear_sch.o)
                0x0832fba0                ud_courseclear_schDT
 .rodata        0x083309a0     0x1000 USA_data/usa_data.a(ad_demo_4bit_sch.o)
                0x083309a0                d_demo_4bit_schDT
 .rodata        0x083319a0     0x5000 USA_data/usa_data.a(ad_demo_8bit_sch.o)
                0x083319a0                d_demo_8bit_schDT
 .rodata        0x083369a0      0x200 USA_data/usa_data.a(ad_demo_8bit4bit_scl.o)
                0x083369a0                d_demo_8bit4bit_sclDT
 .rodata        0x08336ba0     0x1000 USA_data/usa_data.a(ad_demo_map_ssc.o)
                0x08336ba0                d_demo_map_sscDT
 .rodata        0x08337ba0      0x1c0 USA_data/usa_data.a(ad_demo_minititle_ssc.o)
                0x08337ba0                d_demo_minititle_sscDT
 .rodata        0x08337d60     0x3800 USA_data/usa_data.a(ad_demo_obj_sch.o)
                0x08337d60                d_demo_obj_schDT
 .rodata        0x0833b560      0x200 USA_data/usa_data.a(ad_demo_obj_scl.o)
                0x0833b560                d_demo_obj_sclDT
 .rodata        0x0833b760      0x800 USA_data/usa_data.a(ad_demo_sky_ssc.o)
                0x0833b760                d_demo_sky_sscDT
 .rodata        0x0833bf60      0x400 USA_data/usa_data.a(ad_demo_usatitle_ssc.o)
                0x0833bf60                d_demo_usatitle_sscDT
 .rodata        0x0833c360      0x500 USA_data/usa_data.a(ad_demo_mask_ssc.o)
                0x0833c360                d_demo_mask_sscDT
 .rodata        0x0833c860       0x60 USA_data/usa_data.a(ad_demo_sky4bit_scl.o)
                0x0833c860                d_demo_sky4bit_sclDT
 .rodata        0x0833c8c0      0x600 USA_data/usa_data.a(ud_back_up_sch.o)
                0x0833c8c0                ud_back_up_schDT
 .rodata        0x0833cec0      0x200 USA_data/usa_data.a(ud_back_up_scl.o)
                0x0833cec0                ud_back_up_sclDT
 .rodata        0x0833d0c0     0x1e00 USA_data/usa_data.a(ud_waku_base_sch.o)
                0x0833d0c0                ud_waku_base_schDT
 .rodata        0x0833eec0     0x2200 USA_data/usa_data.a(ud_waku_tenso_sch.o)
                0x0833eec0                ud_waku_tenso_schDT
 .rodata        0x083410c0      0x528 COS_data/usa_cos.a(ud_next_goto.o)
                0x08341430                bg_2_table3
                0x08341278                bg_2_table2
                0x083410c0                bg_2_table1
 .rodata        0x083415e8       0x2c C:\PROGRA~1\Cygnus\thumbelf-000512\H-i686-cygwin32\bin/../lib/gcc-lib/thumb-elf/2.9-arm-000512/../../../../thumb-elf/lib/libg.a(assert.o)
 .rodata        0x08341614        0x4 C:\PROGRA~1\Cygnus\thumbelf-000512\H-i686-cygwin32\bin/../lib/gcc-lib/thumb-elf/2.9-arm-000512/../../../../thumb-elf/lib/libg.a(impure.o)
 .rodata        0x08341618       0x6c C:\PROGRA~1\Cygnus\thumbelf-000512\H-i686-cygwin32\bin/../lib/gcc-lib/thumb-elf/2.9-arm-000512/../../../../thumb-elf/lib/libg.a(vfiprintf.o)
 .rodata        0x08341684       0x3c C:\PROGRA~1\Cygnus\thumbelf-000512\H-i686-cygwin32\bin/../lib/gcc-lib/thumb-elf/2.9-arm-000512/../../../../thumb-elf/lib/libg.a(locale.o)
 .rodata        0x083416c0       0x28 C:\PROGRA~1\Cygnus\thumbelf-000512\H-i686-cygwin32\bin/../lib/gcc-lib/thumb-elf/2.9-arm-000512/../../../../thumb-elf/lib/libg.a(syscalls.o)
 *(.rodata.*)
 *(.gnu.linkonce.r*)

.rodata1
 *(.rodata1)
                0x083417e8                .=(ALIGN(0x100)+(.&0xff))

.data           0x083417e8    0xaadb4
 *(.data)
 .data          0x083417e8       0x40 ba_effect.o
                0x0834180c                effectAct_menu
                0x083417e8                effectActInitDT
 .data          0x08341828      0x36c ba_player.o
                0x08341b1c                ScoreCoinBGAddress
 .data          0x08341b94        0xc cm_game.o
                0x08341b94                cm_game_menu
 .data          0x08341ba0       0x58 m_battle_rom_play.o
                0x08341ba0                cgame_play_menu
 .data          0x08341bf8       0x58 m_classic_play.o
                0x08341bf8                game_play_menu
 .data          0x08341c50      0x43c m_erase.o
                0x08342048                msg2_adr_table
                0x08342078                msg2_data3
                0x08341d56                eeprom_msg4
                0x0834205c                msg2_data2
                0x08341fb2                eeprom_msg11
                0x08342030                erase_menu
                0x08341d1a                eeprom_msg3
                0x08341e86                eeprom_msg8
                0x08341c8e                eeprom_msg2
                0x08342024                error_set
                0x08341f4e                eeprom_msg10
                0x08342050                msg2_data1
                0x08341da0                eeprom_msg5
                0x08341e34                eeprom_msg7
                0x08341ff8                eeprom_msg_table
                0x08341eea                eeprom_msg9
                0x08341dea                eeprom_msg6
                0x08341c50                eeprom_msg1
 .data          0x0834208c       0x3c m_game.o
                0x0834208c                us_menu
                0x083420b0                MAIN_menu
                0x083420a8                M_game_menu
 .data          0x083420c8      0x128 m_game_title.o
                0x08342190                PlateData
                0x083421d8                game_title_menu
 .data          0x083421f0       0x3c m_main.o
                0x08342224                Oamclr
                0x083421f0                VCountIntr_menu
                0x08342200                nmi_sub
 .data          0x0834222c      0xd70 m_opening.o
                0x0834284c                Op_eff_clr
                0x08342efc                op_mario_move_tbl
                0x08342f14                op_peach_move_tbl
                0x08342eb0                op_egg_move_tbl
                0x08342f28                op_kinopio_move_tbl
                0x08342f3c                op_luigi_move_tbl
                0x08342828                Op_obj_clr
                0x08342f60                op_obj_oam_tbl
                0x08342ec0                op_obj_move_tbl
                0x08342f50                Opening_menu
 .data          0x08342f9c       0x24 m_title.o
                0x08342fa4                M_title_menu
                0x08342f9c                M_ique_menu
 .data          0x08342fc0      0xffc m_title_sub.o
                0x08343ee4                title_obj_move_tbl
                0x083435d0                Ts_obj_clr
                0x08343f50                title_obj_oam_tbl
                0x08343e78                tlsel_objdt_tbl
 .data          0x08343fbc      0x118 m_vs.o
                0x08343fbc                Message_0
                0x08343fe4                Message_3
                0x08343fd0                Message_1
                0x08343fd8                Message_2
                0x08343fec                Message_4
 .data          0x083440d4        0xc m_VsGame.o
                0x083440d4                vs_game_menu
 .data          0x083440e0      0x630 ua_course.o
                0x083446e8                BOSROM
                0x083446dc                unit_table
                0x083446f8                one_room_in
                0x08344704                one_room_out
 .data          0x08344710      0xc98 ua_ending.o
                0x08345178                ending_DEMAIN_table
                0x08344dc4                u_ending_plmod_table
                0x08344d78                ending_table
                0x08345330                ending_CASTMV_table
 .data          0x083453a8      0x690 ua_game.o
                0x083459a4                game_menu
                0x083459e8                sort_flag_data
 .data          0x08345a38      0x834 ua_game_over.o
 .data          0x0834626c      0x9ac ua_pause.o
 .data          0x08346c18      0x62c ua_score.o
                0x08347224                pt_addspd
                0x08347234                scr_pw1up
                0x08347214                pt_addtim
 .data          0x08347244      0x890 ua_warp.o
                0x08347ac0                warp_table
 .data          0x08347ad4      0x630 um_bonus.o
                0x083480f4                bonus_menu
 .data          0x08348104      0x5fc um_courseclear.o
 .data          0x08348700      0x62c um_select.o
                0x08348d10                select_menu
 .data          0x08348d2c      0x9c0 um_select_sub.o
 .data          0x083496ec      0x810 um_yossy.o
                0x08349ee0                ys_mode_tbl
                0x08349d3a                YossyAnim_Ptn
                0x08349ec0                yossy_menu
                0x08349d1c                YossyAnim_Tim
                0x08349d16                YossyCol_Tbl
                0x08349db8                YossyDT
                0x08349ce8                ys_obj_clr
 .data          0x08349efc      0x6e4 up_common.o
                0x0834a51c                play_xwidth
                0x0834a524                play_yoffset_Bjump
                0x0834a4f8                player_OBJXYST_menu
                0x0834a51e                play_ywidth
                0x0834a51a                play_yoffset
                0x0834a548                EVPSDT
                0x0834a530                player_CROSSET_menu
                0x0834a520                play_xoffset_Bjump
                0x0834a52c                play_ywidth_Bjump
                0x0834a54c                TAMABOUND
                0x0834a518                play_xoffset
                0x0834a510                XSPCKDT
                0x0834a5d8                Voice_Index
                0x0834a568                PLAY_WKATYAD_BIG
                0x0834a558                KTSTYD
                0x0834a54a                PLHFCKDT
                0x0834a554                HDFTCMP
                0x0834a528                play_xwidth_Bjump
 .data          0x0834a5e0      0x72c up_player.o
                0x0834ac50                ERVXSP
                0x0834ac28                SLIPDT_ML
                0x0834ac30                WKTIMER
                0x0834abdc                player_menu
                0x0834aca6                ENSYNODT
                0x0834ac10                CHGSND_VOICE
                0x0834ac52                BGCRDT
                0x0834ad06                XPLASDT
                0x0834ac0c                CHGSND
                0x0834ac80                TRBCPSL
                0x0834ac40                XDWNDT
                0x0834ac60                SPKTTM
                0x0834ac66                KTTMDT_BIG
                0x0834ac20                XPOWDT_PK
                0x0834aca2                CRFGDT1
                0x0834ac7e                TRBCPSH
                0x0834ac8a                TRBCDT
                0x0834acf8                NAORXSP
                0x0834ac84                CHTMDT
                0x0834ac82                TRENPSL
                0x0834ac18                XPOWDT_ML
                0x0834ad00                NAORXSP_BK
                0x0834acbd                stone_set_unit
                0x0834ac54                KTCHDT
                0x0834ac3d                PLRNPAT
                0x0834ac5a                KTCHDT_BIG
                0x0834ac14                FLYSPDT
                0x0834ac48                XDWNDT_ONEN
                0x0834acf4                BPSHBGIN
                0x0834ad02                NAORYSP
                0x0834acd4                door_initial_menu
                0x0834ac3a                PLWKPAT
 .data          0x0834ad0c      0x5fc m_boot.o
 .data          0x0834b308       0x38 ua_save.o
 .data          0x0834b340      0x638 um_result.o
                0x0834b95c                rs_egg_move_tbl
                0x0834b950                result_menu
                0x0834b96c                rs_mode_tbl
 .data          0x0834b978      0x5fc um_oamset.o
 .data          0x0834bf74      0x5fc um_mosaic.o
 .data          0x0834c570      0x30c um_coursecleardt.o
                0x0834c580                clear_Dt1
                0x0834c731                clear_DtE
                0x0834c744                clear_effect_ptn1
                0x0834c5f8                clear_Dt5
                0x0834c742                clear_DtF
                0x0834c5ae                clear_Dt3
                0x0834c6da                clear_DtB
                0x0834c595                clear_Dt2
                0x0834c7e0                clear_effect_ptn2
                0x0834c67b                clear_Dt8
                0x0834c690                clear_Dt9
                0x0834c625                clear_Dt6
                0x0834c6bd                clear_DtA
                0x0834c570                clear_hosei_Dt
                0x0834c64a                clear_Dt7
                0x0834c714                clear_DtD
                0x0834c5cf                clear_Dt4
                0x0834c6f7                clear_DtC
 .data          0x0834c87c       0x10 cm_game_title.o
                0x0834c87c                multi_title_menu
 .data          0x0834c88c      0x654 ua_act.o
                0x0834ce88                actmem_menu
 .data          0x0834cee0      0x650 ua_common.o
                0x0834d52c                gohoubi_en
 .data          0x0834d530     0x1ef8 ua_commondt.o
                0x0834df9e                BALL1_Dt
                0x0834e1ca                FLWE1_Dt
                0x0834e996                WATCH_Dt
                0x0834dd06                BALLM_Dt
                0x0834e8b4                CRPET_Dt
                0x0834f070                POINT100_Dt
                0x0834ea76                BIGDR_Dt
                0x0834f1a4                BIGHAHEN_Dt
                0x0834e5b0                WHAT1_Dt
                0x0834ef04                SKANI_Dt
                0x0834f092                POINT200_Dt
                0x0834e210                DANGN_Dt
                0x0834f122                UP1_Dt
                0x0834ed26                GONDOLA_Dt
                0x0834e244                ICEMN_Dt
                0x0834dfa8                SNAKE_Dt
                0x0834f15e                HAHEN_Dt
                0x0834f006                SFIRFL_Dt
                0x0834f3d8                scr_oamset_tbl
                0x0834dc7c                BIRD_Dt
                0x0834efbc                PWBKFL_Dt
                0x0834e256                FIREB_Dt
                0x0834e1b8                FLWER_Dt
                0x0834e8aa                ONEUP_Dt
                0x0834db9c                score_clear
                0x0834eeb2                MOSAIC_Dt
                0x0834eee8                SSNAKE_Dt
                0x0834eb86                RIBON_Dt
                0x0834dbee                TORI_Dt
                0x0834eeae                LIFT_Dt
                0x0834f3bc                act_enmodoam_tbl
                0x0834f0d6                POINT800_Dt
                0x0834dd18                PIGMO_Dt
                0x0834f18a                BIGSHOCK_Dt
                0x0834dd4e                TBO00_Dt
                0x0834dce2                FLYNG_Dt
                0x0834f144                SHOCK_Dt
                0x0834e8a0                HEART_Dt
                0x0834dd2a                FISH0_Dt
                0x0834ed44                AKADAMA_Dt
                0x0834dcbe                NINJA_Dt
                0x0834efaa                SUND_Dt
                0x0834f028                POINT10_Dt
                0x0834ef44                BLAK_Dt
                0x0834e940                EXITR_Dt
                0x0834ed30                TOGE_Dt
                0x0834e09c                BKANI_Dt
                0x0834dc48                FORCE_Dt
                0x0834e9a0                BOMB_Dt
                0x0834f1d8                act_oamset_tbl
                0x0834eaa0                WOODDR_Dt
                0x0834dcd0                NINJ1_Dt
                0x0834dcf4                FLYN1_Dt
                0x0834e5e6                HAPPA_Dt
                0x0834e6da                RKET_Dt
                0x0834dbc0                FAIRY_Dt
                0x0834e98c                STAR_Dt
                0x0834e222                FNSUI_Dt
                0x0834ef56                BURN_Dt
                0x0834e5c2                WHAT2_Dt
                0x0834dd3c                MUSI0_Dt
                0x0834ed4e                AODAMA_Dt
                0x0834f1ae                BSEFT_Dt
                0x0834dbca                WALK0_Dt
                0x0834dd72                MASK0_Dt
                0x0834db2c                abase_clear
                0x0834de10                BALL0_Dt
                0x0834e884                KEY_Dt
                0x0834e82c                BRK_Dt
                0x0834e88e                LMP0_Dt
                0x0834f168                HANABI_Dt
                0x0834ed62                HIKARI_Dt
                0x0834ee7e                BIGBALL_Dt
                0x0834ddfe                SBTEN_Dt
                0x0834dc36                SHOO2_Dt
                0x0834de1a                BOSS0_Dt
                0x0834e5f0                KABU_Dt
                0x0834eed6                SMIKEY_Dt
                0x0834f1cc                POINT4_Dt
                0x0834e63e                COIN_Dt
                0x0834e8fe                EXITL_Dt
                0x0834f05e                POINT80_Dt
                0x0834ef1e                ITEMBALL_Dt
                0x0834dd7c                HEBI_Dt
                0x0834eb90                BIGBOSS_Dt
                0x0834eb62                BIGWALK_Dt
                0x0834e5d4                WHAT3_Dt
                0x0834e678                BKDN_Dt
                0x0834eeb0                LIFT2_Dt
                0x0834e982                XTAL_Dt
                0x0834f03a                POINT20_Dt
                0x0834ec82                BIGSMK_Dt
                0x0834edac                BIGHIKARI_Dt
                0x0834e852                DOOR_Dt
                0x0834e1dc                FLWE2_Dt
                0x0834dd60                TBO01_Dt
                0x0834ef68                SMOK_Dt
                0x0834e836                PWBK_Dt
                0x0834e612                BIGKABU_Dt
                0x0834eefa                SFIREB_Dt
                0x0834ed3a                CHERRY_Dt
                0x0834f0b4                POINT400_Dt
                0x0834eb74                BIGWALK1_Dt
                0x0834dc12                SHOOT_Dt
                0x0834f0f8                POINT1000_Dt
                0x0834f1c2                POINT1_Dt
                0x0834dc00                HUCK0_Dt
                0x0834ed58                EGG_Dt
                0x0834ee88                TILTSMK_Dt
                0x0834ef20                BIGCOIN_Dt
                0x0834e4ac                BGKAO_Dt
                0x0834dbdc                WALK1_Dt
                0x0834ef32                BIGNINJI_Dt
                0x0834dc6a                BURN0_Dt
                0x0834f04c                POINT40_Dt
                0x0834e1ae                BISHI_Dt
                0x0834e61c                FACE_Dt
                0x0834f1b8                BIGBSEFT_Dt
                0x0834e9b2                KEMURI_Dt
                0x0834e082                FIRE1_Dt
                0x0834ecc4                BIGPWBK_Dt
                0x0834eea2                KABUFAIRY_Dt
                0x0834e398                FIRES_Dt
                0x0834eeb4                BUBBLE_Dt
                0x0834dedc                MIKEY_Dt
                0x0834dc24                SHOO1_Dt
                0x0834e9f4                KEMURI2_Dt
                0x0834e1ee                CANON_Dt
                0x0834e59e                WHATS_Dt
                0x0834e840                WOOD_Dt
                0x0834e3ba                MAMUU_Dt
                0x0834eeac                CAPSULE_Dt
 .data          0x0834f428      0x134 ua_color.o
                0x0834f554                TOUPAT
 .data          0x0834f55c      0x6c4 ua_sort.o
                0x0834fbdc                Sort_Tbl
 .data          0x0834fc20      0x5fc ua_eggmeter.o
 .data          0x0835021c       0x88 ba_act.o
                0x0835021c                acterInitDT
                0x08350258                acter_menu
 .data          0x083502a4      0x130 ba_bucket.o
                0x083502cc                d_bucket_sob_01
                0x083502a4                d_bucket_sob_00
                0x08350314                d_bucket_sob_02
                0x0835033c                d_bucket_sob_03
                0x08350364                d_bucket_sob_04
 .data          0x083503d4       0x38 ba_Coin.o
                0x083503d4                Coin_menu
                0x083503f0                Coin_anime
 .data          0x0835040c        0xc ba_egg.o
 .data          0x08350418       0x68 ba_enFly.o
                0x08350418                Fly_menu
                0x0835044c                Fly_anime
 .data          0x08350480       0x68 ba_enKani.o
                0x08350480                Kani_menu
                0x083504b4                Kani_anime
 .data          0x083504e8       0x10 ba_enmy.o
 .data          0x083504f8       0x68 ba_enToge.o
                0x083504f8                Togezo_menu
                0x0835052c                Togezo_anime
 .data          0x08350560       0x30 ba_fire.o
                0x08350560                Fire_menu
                0x08350578                Fire_anime
 .data          0x08350590        0x8 ba_fishBone.o
 .data          0x08350598      0x12c ba_ice.o
                0x08350650                IceOamTable
                0x083505d0                IceOamData_4
                0x083505f0                IceOamData_6
                0x08350598                IceOamData_0
                0x083505e0                IceOamData_5
                0x083505b0                IceOamData_2
                0x08350628                IceOamData_8
                0x083505a0                IceOamData_1
                0x083505c0                IceOamData_3
                0x08350600                IceOamData_7
                0x0835069c                Ice_anime
                0x08350674                Ice_menu
 .data          0x083506c4       0x18 ba_koura.o
 .data          0x083506dc      0x9d8 ba_kuppa.o
                0x08350ec8                KppFireOam_10
                0x08350c48                KppFireOam_8
                0x08350d48                KppFireOam_C
                0x083507f4                KppOamData_4
                0x08350e40                KppFireOam_F
                0x08350fc0                KppFireOam_13
                0x08350a18                KppFireOam_2
                0x083506e4                KppOamData_1
                0x083509b8                Kuppa_anime
                0x08350b98                KppFireOam_6
                0x0835093c                KppOamData_8
                0x083510ac                KppFire_menu
                0x083509d0                KppFireOam_0
                0x08351038                KppFireTable
                0x08350d08                KppFireOam_B
                0x08350e00                KppFireOam_E
                0x08350c90                KppFireOam_9
                0x0835074c                KppOamData_3
                0x08350f18                KppFireOam_11
                0x08350ad0                KppFireOam_4
                0x08350a48                KppFireOam_3
                0x08350974                KppOamTable
                0x08351008                KppFireOam_14
                0x08350904                KppOamData_7
                0x0835085c                KppOamData_6
                0x083506dc                KppOamData_0
                0x08350be8                KppFireOam_7
                0x083509d8                KppFireOam_1
                0x083508ac                KppOamData_A
                0x08350d78                KppFireOam_D
                0x0835079c                KppOamData_9
                0x08350cd8                KppFireOam_A
                0x08350f78                KppFireOam_12
                0x08350714                KppOamData_2
                0x08350b10                KppFireOam_5
                0x083509a0                Kuppa_menu
                0x08350824                KppOamData_5
 .data          0x083510b4       0xec ba_PipeWave.o
 .data          0x083511a0       0x28 ba_point.o
                0x083511c0                Point_menu
 .data          0x083511c8       0x1c ba_pow.o
 .data          0x083511e4        0x8 ba_spark.o
 .data          0x083511ec       0xd0 ba_splash.o
                0x083512b4                Splash_menu
 .data          0x083512bc       0xf4 ba_icicle.o
                0x083512fc                IcicleData_4
                0x0835130c                IcicleData_5
                0x08351398                Icicle_menu
                0x0835134c                IcicleData_8
                0x083512ec                IcicleData_3
                0x083512c4                IcicleData_1
                0x0835133c                IcicleData_7
                0x083512bc                IcicleData_0
                0x08351324                IcicleData_6
                0x083512dc                IcicleData_2
                0x08351374                IcicleTable
 .data          0x083513b0       0xa4 ba_powsmk.o
                0x0835144c                Powsmk_menu
 .data          0x08351454      0x618 ua_fairy.o
                0x08351a5c                FairyMoveTable
                0x08351a50                FairyIdouTable
 .data          0x08351a6c      0x604 ua_walk.o
                0x08352068                BIGSIZDT
 .data          0x08352070      0x5fc ua_tori.o
 .data          0x0835266c      0x5fc ua_huck0.o
 .data          0x08352c68      0x5fc ua_shoot.o
 .data          0x08353264      0x5fc ua_force.o
 .data          0x08353860      0x5fc ua_burn0.o
 .data          0x08353e5c      0x5fc ua_bird.o
 .data          0x08354458      0x5fc ua_ninja.o
 .data          0x08354a54      0x5fc ua_ninj1.o
 .data          0x08355050      0x5fc ua_flyng.o
 .data          0x0835564c      0x5fc ua_pigmo.o
 .data          0x08355c48      0x5fc ua_fish0.o
 .data          0x08356244      0x604 ua_musi0.o
                0x08356840                MUSI_BGCK
 .data          0x08356848      0x5fc ua_tubo.o
 .data          0x08356e44      0x5fc ua_mask.o
 .data          0x08357440      0x5fc ua_hebi0.o
 .data          0x08357a3c      0x5fc ua_hebi1.o
 .data          0x08358038      0x610 ua_sbten.o
 .data          0x08358648      0x5fc ua_boss0.o
 .data          0x08358c44      0x5fc ua_mikey.o
 .data          0x08359240      0x5fc ua_ball1.o
 .data          0x0835983c      0x5fc ua_snake.o
 .data          0x08359e38      0x5fc ua_fire1.o
 .data          0x0835a434      0x5fc ua_bkani.o
 .data          0x0835aa30      0x5fc ua_flwer.o
 .data          0x0835b02c      0x5fc ua_canon.o
 .data          0x0835b628      0x620 ua_fnsui.o
 .data          0x0835bc48      0x5fc ua_icemn.o
 .data          0x0835c244      0x5fc ua_fireb.o
 .data          0x0835c840      0x5fc ua_mamuu.o
 .data          0x0835ce3c      0x5fc ua_bgkao.o
 .data          0x0835d438      0x5fc ua_whats.o
 .data          0x0835da34      0x5fc ua_wood.o
 .data          0x0835e030      0x5fc ua_exit.o
 .data          0x0835e62c      0x5fc ua_item.o
 .data          0x0835ec28      0x5fc ua_rocket.o
 .data          0x0835f224      0x5fc ua_heart.o
 .data          0x0835f820      0x67c ua_door.o
                0x0835fe8c                DRCHST2_menu
 .data          0x0835fe9c      0x60c ua_flag.o
 .data          0x083604a8      0x5fc ua_lmp0.o
 .data          0x08360aa4      0x5fc ua_star.o
 .data          0x083610a0      0x5fc ua_spae.o
 .data          0x0836169c      0x62c ua_pwbk.o
 .data          0x08361cc8      0x64c ua_bigboss.o
                0x083622cb                bgbs_NOMVTM
                0x083622c4                bgbs_OBJSIZDT
                0x083622f4                bgbsmv_menu
                0x083622d4                bgbsit_menu
 .data          0x08362314      0x5fc ua_gondola.o
 .data          0x08362910      0x608 ua_gonboss.o
                0x08362f10                color_table
                0x08362f0c                gondola_color_table
 .data          0x08362f18      0x6c8 ua_gondata.o
                0x08363557                gondola_init_data4_3
                0x08363560                gondola_init_data5_1
                0x08363514                gondola_init_data1_1
                0x0836357c                gondola_init_data6_2
                0x08363530                gondola_init_data2_2
                0x08363586                gondola_init_data7_1
                0x0836357d                gondola_init_data6_3
                0x0836356a                gondola_init_data5_3
                0x08363556                gondola_init_data4_2
                0x0836354c                gondola_init_data3_3
                0x08363527                gondola_init_data2_1
                0x0836351e                gondola_init_data1_3
                0x08363573                gondola_init_data6_1
                0x0836358b                gondola_init_data7_2
                0x08363561                gondola_init_data5_2
                0x08363542                gondola_init_data3_1
                0x0836354b                gondola_init_data3_2
                0x08363555                gondola_init_data4_1
                0x08363590                gondola_init_data_table
                0x08363539                gondola_init_data2_3
                0x0836351d                gondola_init_data1_2
 .data          0x083635e0      0x5fc ua_cherry.o
 .data          0x08363bdc      0x5fc ua_gohoubi.o
 .data          0x083641d8      0x5fc ua_toge.o
 .data          0x083647d4      0x5fc ua_egg.o
 .data          0x08364dd0      0x5fc ua_mask1.o
 .data          0x083653cc      0x62c ua_capsule.o
                0x083659e0                CapsuleOamsetTable
                0x083659c8                CapsuleMoveTable
 .data          0x083659f8      0x5fc ua_lift.o
 .data          0x08365ff4      0x610 ua_bubble.o
                0x083665f0                b_mxspd
 .data          0x08366604      0x5fc ua_sboss.o
 .data          0x08366c00      0x5fc ua_itemball.o
 .data          0x083671fc      0x5fc ua_mosaic.o
 .data          0x083677f8      0x604 ua_coin.o
 .data          0x08367dfc      0x1d4 ua_endat0a.o
                0x08367e8c                FIYSDT
                0x08367dfc                BOSFDT1
                0x08367e7d                MSXSDT
                0x08367eb6                BSSHTM
                0x08367e74                MSPWDT
                0x08367e7a                MSYLTD
                0x08367ea4                FBSXAD
                0x08367e58                PGYMXSDT
                0x08367f76                BTAMSD
                0x08367fc6                KAFLTM
                0x08367eb0                FRSYSD
                0x08367ef6                SNHDAD
                0x08367f7b                PAGTOP
                0x08367e50                PGXMXSDT
                0x08367f06                MMBLYD
                0x08367f0a                DRXPSL
                0x08367e36                FISYSDT
                0x08367e22                FLIXPS
                0x08367e34                FISYPS
                0x08367eb4                BS0BXAD
                0x08367f40                BMYAD
                0x08367e84                FIXSDT
                0x08367eb9                KSFITM
                0x08367f12                DRXSPD
                0x08367f64                BTAMSZ
                0x08367e60                CRPTSDT
                0x08367f84                COUSE_DT
                0x08367e6c                ICEXMXSDT
                0x08367ed3                KNISYD
                0x08367e77                MSXLTD
                0x08367e80                MSYSDT
                0x08367ede                SNFRXSD
                0x08367fa0                KAMROM
                0x08367ed0                KNISXD
                0x08367e94                FBSXSD
                0x08367e42                NIN1YSD
                0x08367f0e                DRYPSL
                0x08367e02                hibana_xdt
                0x08367e48                PGPOWDT
                0x08367ec0                ISYSDT
                0x08367fa8                KACGDT
                0x08367eea                SNFRYSD
                0x08367ed6                ISJPDT
                0x08367e64                ICEPOWDT
                0x08367e24                FLYSDT
                0x08367f1c                BMXAD
                0x08367ea8                FBSYAD
                0x08367e12                hibana_ydt
                0x08367ebc                BKDNYSPD
                0x08367ec8                KNYSDT
                0x08367eac                FRSAND
 .data          0x08367fd0      0x7cc ua_endat0b.o
                0x08368723                SORTDT
                0x0836831c                OSZBGBS1_Dt
                0x08368320                OSZBGBS2_Dt
                0x08368328                OSZITEMBALL1_Dt
                0x08367fd0                BSZBIG_Dt
                0x083682fc                OSZTOGE_Dt
                0x0836844d                act_ENOJSZ_tbl
                0x083682c8                OSZBOMB_Dt
                0x083682b8                OSZCN_Dt
                0x0836853f                ENATDT
                0x08368284                OSZ0_Dt
                0x08368334                OSZBIGWALK1_Dt
                0x08368324                OSZITEMBALL0_Dt
                0x08368070                BSZCRPT_Dt
                0x083682bc                OSZMM_Dt
                0x08368304                OSZEXIT3_Dt
                0x0836832c                OSZITEMBALL2_Dt
                0x08368300                OSZEXIT2_Dt
                0x0836830c                OSZEGG_Dt
                0x08368631                CROSMD
                0x08368020                BSZSHO_Dt
                0x083684c6                ENCLDT
                0x083682ec                OSZGONDOLA_Dt
                0x083682b0                OSZ03_Dt
                0x08368050                BSZTAMA_Dt
                0x08368344                act_hit_tbl
                0x083682b4                OSZSNK_Dt
                0x083682a0                OSZEXIT_Dt
                0x08368040                BSZ9_Dt
                0x083682a8                OSZ3_Dt
                0x083682f8                OSZBIGBR_Dt
                0x083682dc                OSZBLUE1_Dt
                0x083682c4                OSZKN_Dt
                0x083682d8                OSZFISH4_Dt
                0x08367fe0                BSZBGBS_Dt
                0x0836833c                OSZBIGWALK3_Dt
                0x083682e4                OSZBLUE3_Dt
                0x083682e8                OSZBLUE4_Dt
                0x083682d0                OSZFISH2_Dt
                0x08368010                BSZ2_Dt
                0x08368340                OSZBIGWALK4_Dt
                0x08368288                OSZBIG_Dt
                0x08368338                OSZBIGWALK2_Dt
                0x08368090                BSZFACE_Dt
                0x08368318                OSZBGBS0_Dt
                0x08368310                OSZFACE_Dt
                0x08367ff0                BSZ0_Dt
                0x083682e0                OSZBLUE2_Dt
                0x083682f4                OSZLIFT2_Dt
                0x083682d4                OSZFISH3_Dt
                0x083682cc                OSZFISH1_Dt
                0x083682ac                OSZ02_Dt
                0x08368060                BSZB_Dt
                0x08368330                OSZBIGCOIN_Dt
                0x08368080                BSZBOMB_Dt
                0x083682c0                OSZFN_Dt
                0x083680a0                act_bgcross_tbl
                0x08368030                BSZS_Dt
                0x08368418                ENOZSZ_Dt
                0x08368308                OSZMASK1_Dt
                0x083682f0                OSZLIFT_Dt
                0x08368314                OSZBIRD_Dt
                0x083686aa                ENCRSMD
                0x0836829c                OSZCRPT_Dt
                0x08368000                BSZ1_Dt
                0x083685b8                ENMDDT
                0x08368290                OSZ2_Dt
                0x08368294                OSZB_Dt
                0x08368298                OSZWOOD_Dt
                0x083682a4                OSZBGKAO_Dt
                0x0836828c                OSZ1_Dt
 .data          0x0836879c     0x2634 ua_endt.o
                0x08369968                ENDT9_10
                0x0836991c                ENDT9_7
                0x0836a936                ENDT20_7
                0x0836aa60                couse_endt_tbl
                0x0836915a                ENDT3_3
                0x08369606                ENDT7_4
                0x083692c8                ENDT5_1
                0x0836a5ec                ENDT19_1
                0x0836aa4a                ENDT20_10
                0x08369a52                ENDT10_2
                0x0836a2ee                ENDT16_7
                0x08369666                ENDT8_0
                0x083697d0                ENDT9_3
                0x0836956c                ENDT6_10
                0x083691ec                ENDT3_4
                0x0836a438                ENDT18_1
                0x0836a564                ENDT18_4
                0x08368d98                ENDT_EMPTY
                0x0836a1a4                ENDT15_5
                0x08369742                ENDT8_2
                0x08369a54                ENDT10_4
                0x0836a73e                ENDT20_1
                0x0836a78e                ENDT20_2
                0x0836a71c                ENDT19_10
                0x0836a33c                ENDT17_1
                0x08369f20                ENDT14_2
                0x08368f38                ENDT1_10
                0x08368e0a                ENDT1_2
                0x08369d18                ENDT12_3
                0x08369a88                ENDT11_1
                0x08368ffc                ENDT2_4
                0x08369786                ENDT9_2
                0x0836a1c0                ENDT16_0
                0x0836a2a4                ENDT16_3
                0x08369c28                ENDT12_0
                0x08369da0                ENDT13_0
                0x08369354                ENDT5_2
                0x08369d6a                ENDT12_6
                0x08369a5c                ENDT11_0
                0x0836a07e                ENDT15_2
                0x0836940c                ENDT6_0
                0x08368dc6                ENDT1_1
                0x08369558                ENDT6_7
                0x0836a2d2                ENDT16_5
                0x0836a6f4                ENDT19_4
                0x0836a2f0                ENDT16_10
                0x08369202                ENDT4_0
                0x0836aa30                ENDT20_9
                0x083698f6                ENDT9_6
                0x0836a828                ENDT20_4
                0x08369c02                ENDT11_4
                0x08369404                ENDT5_10
                0x083691fa                ENDT3_10
                0x0836a0aa                ENDT15_3
                0x08369258                ENDT4_1
                0x08368fa2                ENDT2_1
                0x08369fae                ENDT14_4
                0x0836a45e                ENDT18_2
                0x0836a596                ENDT18_5
                0x083693ea                ENDT5_5
                0x083699fc                ENDT10_1
                0x0836a40a                ENDT17_2
                0x08368ed2                ENDT1_3
                0x083695e0                ENDT7_3
                0x08368fd4                ENDT2_2
                0x0836a23a                ENDT16_1
                0x08368f18                ENDT1_5
                0x08369296                ENDT4_2
                0x0836a7ea                ENDT20_3
                0x08369e3a                ENDT13_2
                0x0836a1b8                ENDT15_10
                0x083692aa                ENDT4_4
                0x08369756                ENDT8_3
                0x08369ffc                ENDT15_0
                0x08369e70                ENDT14_1
                0x0836a2c4                ENDT16_4
                0x083690d4                ENDT3_2
                0x0836a66c                ENDT19_2
                0x08369380                ENDT5_3
                0x08369ca4                ENDT12_2
                0x08369d98                ENDT12_10
                0x08369466                ENDT6_3
                0x08369b56                ENDT11_2
                0x083695d8                ENDT7_2
                0x083693e2                ENDT5_4
                0x08369d8a                ENDT12_7
                0x0836945e                ENDT6_2
                0x08369fee                ENDT14_10
                0x0836a2e6                ENDT16_6
                0x0836a5d0                ENDT18_10
                0x0836a5d8                ENDT19_0
                0x08369954                ENDT9_8
                0x083698ca                ENDT9_5
                0x0836a88a                ENDT20_5
                0x0836a892                ENDT20_6
                0x083694da                ENDT6_4
                0x08368efe                ENDT1_4
                0x0836a70e                ENDT19_5
                0x08369632                ENDT7_5
                0x0836a9a4                ENDT20_8
                0x08368fee                ENDT2_3
                0x0836a142                ENDT15_4
                0x083690c0                ENDT3_1
                0x0836a5b0                ENDT18_6
                0x0836a430                ENDT18_0
                0x0836a4c6                ENDT18_3
                0x08368f40                ENDT2_0
                0x08369414                ENDT6_1
                0x0836a2f8                ENDT17_0
                0x08369f70                ENDT14_3
                0x08369582                ENDT7_1
                0x0836965e                ENDT7_10
                0x083692b2                ENDT4_10
                0x0836986e                ENDT9_4
                0x0836a27e                ENDT16_2
                0x08369e5a                ENDT13_10
                0x08369970                ENDT10_0
                0x08369fc2                ENDT14_5
                0x0836a724                ENDT20_0
                0x0836954a                ENDT6_6
                0x08369dc0                ENDT13_1
                0x08369004                ENDT3_0
                0x08368d9a                ENDT1_0
                0x08369d50                ENDT12_5
                0x083692ba                ENDT5_0
                0x083696fe                ENDT8_1
                0x08369c36                ENDT12_1
                0x0836975e                ENDT9_0
                0x08369e62                ENDT14_0
                0x0836a016                ENDT15_1
                0x083694e2                ENDT6_5
                0x08369574                ENDT7_0
                0x0836a6a4                ENDT19_3
                0x0836976c                ENDT9_1
                0x08369bd6                ENDT11_3
 .data          0x0836add0      0x5fc ua_effect.o
 .data          0x0836b3cc      0x11c ua_effectdt.o
                0x0836b4d6                bseft_yspd_dt
                0x0836b43e                score_point_talbe
                0x0836b40e                bighahen_psdt
                0x0836b3cc                stareft_plttdt
                0x0836b45e                score_addpoint_table
                0x0836b3ee                hahen_psdt
                0x0836b486                hanabi_dt
                0x0836b4c6                bseft_xspd_dt
                0x0836b44e                score_pwpit_talbe
 .data          0x0836b4e8      0x5fc ua_shock.o
 .data          0x0836bae4      0x6a8 ua_stareffect.o
 .data          0x0836c18c      0x5fc ua_bosseffect.o
 .data          0x0836c788      0x618 ua_cros.o
                0x0836cd84                enmy_giveup_menu
 .data          0x0836cda0      0x478 up_commondt.o
                0x0836d178                player_BGcheck_Y_left
                0x0836d120                SLDATA4
                0x0836d170                player_BGcheck_X_left
                0x0836d1ac                player_BGcheck_X_data
                0x0836d210                no_katsugi_time
                0x0836d188                player_BGcheck_Y_right
                0x0836d196                player_BGcheck_Y_mtsuru
                0x0836cfe0                player_oamdt_Bjump_Big_01
                0x0836d040                player_OAM_data_Bjump_Big
                0x0836d192                player_BGcheck_Y_tsuru
                0x0836d008                player_oamdt_Bjump_Big_02
                0x0836d1d0                player_BGcheck_Y_data
                0x0836d160                player_BGcheck_X_foot
                0x0836d204                TSRXSP
                0x0836cda0                player_OAM_data
                0x0836d1f4                DORCKDT
                0x0836d198                player_BGcheck_X_front
                0x0836d094                player_oamdt_Bjump_Small_02
                0x0836d207                TSRYSP
                0x0836d0d8                SLDATA1
                0x0836d158                player_BGcheck_Y_head
                0x0836d194                player_BGcheck_X_mtsuru
                0x0836d074                player_oamdt_Bjump_Small_01
                0x0836d0d4                player_OAM_count_Bjump_Small
                0x0836d138                play_seldata_tbl
                0x0836d0f0                SLDATA2
                0x0836d108                SLDATA3
                0x0836d19c                player_BGcheck_X_nage
                0x0836d190                player_BGcheck_X_tsuru
                0x0836d050                player_OAM_count_Bjump_Big
                0x0836d20a                LFITDT
                0x0836d168                player_BGcheck_Y_foot
                0x0836d1a4                player_BGcheck_Y_nage
                0x0836d148                player_PLSYDT
                0x0836d20e                no_katsugi_char
                0x0836d199                player_BGcheck_Y_front
                0x0836d180                player_BGcheck_X_right
                0x0836d0a4                player_oamdt_Bjump_Small_03
                0x0836d020                player_oamdt_Bjump_Big_03
                0x0836d0c4                player_OAM_data_Bjump_Small
                0x0836d19a                player_BGcheck_X_tsubo
                0x0836d19b                player_BGcheck_Y_tsubo
                0x0836d212                back_jump_time
                0x0836cfc0                player_oamdt_Bjump_Big_00
                0x0836d150                player_BGcheck_X_head
                0x0836d054                player_oamdt_Bjump_Small_00
 .data          0x0836d218      0x6fc up_exst.o
                0x0836d874                stone_OAM_data
                0x0836d860                stone_Xspd_in
                0x0836d870                stone_wait_time
                0x0836d88e                star_color
                0x0836d820                ex_move_menu
                0x0836d892                star_OAM_data
                0x0836d830                smoke_OAM_data
                0x0836d889                star_pattern
                0x0836d884                star_timer
                0x0836d87c                WFSTTM
                0x0836d82c                ex_oamcount
                0x0836d814                ex_init_menu
                0x0836d850                stone_Xoffset
                0x0836d858                stone_Yoffset
                0x0836d868                stone_Yspd_in
 .data          0x0836d914        0x8 um_yscr.o
                0x0836d914                H_scroll_select
 .data          0x0836d91c        0x8 um_tscr.o
                0x0836d91c                V_scroll_select
 .data          0x0836d924      0x2e0 course_data.o
                0x0836db48                MapData5
                0x0836dae4                MapData0
                0x0836db5c                MapData6
                0x0836dac4                EnDtBtl_0B
                0x0836d964                EnDtBtl_00
                0x0836d9e4                EnDtBtl_04
                0x0836db98                MapData9
                0x0836db34                MapData4
                0x0836d954                BGCoinData
                0x0836dbc0                MapDataB
                0x0836daa4                EnDtBtl_0A
                0x0836da64                EnDtBtl_08
                0x0836dbac                MapDataA
                0x0836db20                MapData3
                0x0836d924                BrosCourseTable
                0x0836d9c4                EnDtBtl_03
                0x0836da44                EnDtBtl_07
                0x0836da04                EnDtBtl_05
                0x0836db84                MapData8
                0x0836dbd4                MapDataTBL
                0x0836daf8                MapData1
                0x0836db70                MapData7
                0x0836db0c                MapData2
                0x0836da84                EnDtBtl_09
                0x0836d984                EnDtBtl_01
                0x0836d9a4                EnDtBtl_02
                0x0836da24                EnDtBtl_06
 .data          0x0836dc04      0x440 course_classic.o
                0x0836de7c                MapClas6
                0x0836df6c                MapClas12
                0x0836df08                MapClasD
                0x0836dfd0                MapClas17
                0x0836dda4                EnDtCls_09
                0x0836dca4                EnDtCls_01
                0x0836de04                MapClas0
                0x0836dd64                EnDtCls_07
                0x0836dd04                EnDtCls_04
                0x0836de54                MapClas4
                0x0836def4                MapClasC
                0x0836dcc4                EnDtCls_02
                0x0836de40                MapClas3
                0x0836dc64                BGCCoinData
                0x0836dfbc                MapClas16
                0x0836dc04                ClassicCourseTable
                0x0836df30                MapClasF
                0x0836df1c                MapClasE
                0x0836df44                MapClas10
                0x0836dfe4                MapClassic
                0x0836dde4                EnDtCls_0C
                0x0836decc                MapClasA
                0x0836dfa8                MapClas15
                0x0836dd44                EnDtCls_06
                0x0836de18                MapClas1
                0x0836deb8                MapClas9
                0x0836dd24                EnDtCls_05
                0x0836dee0                MapClasB
                0x0836de90                MapClas7
                0x0836df94                MapClas14
                0x0836df80                MapClas13
                0x0836dd84                EnDtCls_08
                0x0836dc84                EnDtCls_00
                0x0836df58                MapClas11
                0x0836ddc4                EnDtCls_0A
                0x0836dea4                MapClas8
                0x0836de68                MapClas5
                0x0836de2c                MapClas2
                0x0836dce4                EnDtCls_03
 .data          0x0836e044      0x53c d_classic_haikeiA_LZ.o
                0x0836e044                d_classic_haikeiA_LZ
 .data          0x0836e580      0x5a4 d_classic_haikeiB_LZ.o
                0x0836e580                d_classic_haikeiB_LZ
 .data          0x0836eb24      0x560 d_classic_haikeiC_LZ.o
                0x0836eb24                d_classic_haikeiC_LZ
 .data          0x0836f084      0x4cc d_classic_haikeiD_LZ.o
                0x0836f084                d_classic_haikeiD_LZ
 .data          0x0836f550      0x2f0 d_playerA_sob.o
                0x0836f620                d_playerA_sob_0B
                0x0836f748                d_playerA_sob_16
                0x0836f568                d_playerA_sob_01
                0x0836f6a8                d_playerA_sob_11
                0x0836f5c8                d_playerA_sob_05
                0x0836f608                d_playerA_sob_0A
                0x0836f648                d_playerA_sob_0D
                0x0836f790                d_playerA_sob_18
                0x0836f7e8                d_playerA_sob_1B
                0x0836f6d8                d_playerA_sob_13
                0x0836f550                d_playerA_sob_00
                0x0836f5e0                d_playerA_sob_08
                0x0836f7b8                d_playerA_sob_19
                0x0836f818                d_playerA_sob_1D
                0x0836f6c0                d_playerA_sob_12
                0x0836f690                d_playerA_sob_10
                0x0836f580                d_playerA_sob_02
                0x0836f7d0                d_playerA_sob_1A
                0x0836f718                d_playerA_sob_15
                0x0836f678                d_playerA_sob_0F
                0x0836f630                d_playerA_sob_0C
                0x0836f6f0                d_playerA_sob_14
                0x0836f5b0                d_playerA_sob_04
                0x0836f5f8                d_playerA_sob_09
                0x0836f800                d_playerA_sob_1C
                0x0836f768                d_playerA_sob_17
                0x0836f660                d_playerA_sob_0E
                0x0836f598                d_playerA_sob_03
 .data          0x0836f840      0x2d8 d_playerB_sob.o
                0x0836f980                d_playerB_sob_0F
                0x0836f938                d_playerB_sob_0C
                0x0836f870                d_playerB_sob_02
                0x0836f9b0                d_playerB_sob_11
                0x0836f928                d_playerB_sob_0B
                0x0836faf0                d_playerB_sob_1C
                0x0836fad8                d_playerB_sob_1B
                0x0836fa38                d_playerB_sob_15
                0x0836f8d0                d_playerB_sob_06
                0x0836f840                d_playerB_sob_00
                0x0836f968                d_playerB_sob_0E
                0x0836f858                d_playerB_sob_01
                0x0836f8e8                d_playerB_sob_08
                0x0836f900                d_playerB_sob_09
                0x0836fa08                d_playerB_sob_14
                0x0836fb00                d_playerB_sob_1D
                0x0836fa50                d_playerB_sob_16
                0x0836fa78                d_playerB_sob_17
                0x0836f888                d_playerB_sob_03
                0x0836f950                d_playerB_sob_0D
                0x0836f9c8                d_playerB_sob_12
                0x0836f910                d_playerB_sob_0A
                0x0836f998                d_playerB_sob_10
                0x0836fac0                d_playerB_sob_1A
                0x0836f9e0                d_playerB_sob_13
                0x0836fa90                d_playerB_sob_18
                0x0836faa8                d_playerB_sob_19
                0x0836f8a0                d_playerB_sob_04
                0x0836f8b8                d_playerB_sob_05
 .data          0x0836fb18      0x898 ud_course_data.o
                0x0836fcd0                cos_buf_table1
                0x0836fb18                cos_init_table
                0x08370040                cos_buf_table2
 .data          0x083703b0     0x5394 client.o
                0x08375744                _binary_client_bin_end
                0x083703b0                _binary_client_bin_start
 .data          0x08375744     0x2800 bros_bg.o
                0x08375744                _binary_bros_bg_bin_start
                0x08377f44                _binary_bros_bg_bin_end
 .data          0x08377f44     0x7300 bros_obj1.o
                0x08377f44                _binary_bros_obj1_bin_start
                0x0837f244                _binary_bros_obj1_bin_end
 .data          0x0837f244    0x384e8 vs.o
                0x083b772c                _binary_vs_bin_end
                0x0837f244                _binary_vs_bin_start
 .data          0x083b772c      0xd00 bros_obj0.o
                0x083b772c                _binary_bros_obj0_bin_start
                0x083b842c                _binary_bros_obj0_bin_end
 .data          0x083b842c     0x27dc USA_data/usa_data.a(ud_crosdt.o)
                0x083b842c                tokuten_table
 .data          0x083bac08     0x1404 USA_data/usa_data.a(ud_ending.o)
                0x083bbe54                ending_save
                0x083bb8cc                XSPDT
                0x083bb8ba                YPOSDT
                0x083bb926                ending_BANZDT
                0x083bb914                TMDT
                0x083bb768                ending_HEBIDT
                0x083bbcb4                ending_DSPEND_table
                0x083bb8f0                YSPDT
                0x083bb8a8                XPOSDT
                0x083bbd5c                ending_ENSTRTD
                0x083bb7a8                ending_MAMUDT
                0x083bb91d                CLRDT
                0x083bb830                ending_ADRCAL_table
 .data          0x083bc00c     0x3734 USA_data/usa_data.a(ud_base_col.o)
                0x083be40c                m_bg_col7
                0x083bf2c4                m_obj_col5
                0x083bde0c                m_bg_col6
                0x083beea4                KSRCD2
                0x083bef84                PSRCD0
                0x083bef04                LSRCD0
                0x083bf084                m_obj_col2
                0x083bea4c                W63CGDT
                0x083beaac                STCGDT
                0x083bf384                m_obj_col6
                0x083bf66c                MAMUCGDT
                0x083bec54                TOCGDT07
                0x083bef64                NSRCD1
                0x083bea6c                W23CGDT
                0x083bee84                KSRCD1
                0x083bf730                gradation_table
                0x083bcc0c                m_bg_col3
                0x083bf704                player_pjumpcol_table
                0x083bf714                obj_col_table
                0x083bc00c                m_bg_col1
                0x083bf204                m_obj_col4
                0x083bede4                m_MARIO_col
                0x083bc60c                m_bg_col2
                0x083bec5c                TOCGDT0C
                0x083bf6a8                player_col_table
                0x083bf144                m_obj_col3
                0x083bd20c                m_bg_col4
                0x083bf6f4                LUIJI_pjump_col
                0x083bf444                m_obj_col7
                0x083bf6d4                PEACH_pjump_col
                0x083bec64                m_obj_base
                0x083bf564                chasa_table
                0x083bee44                m_LUIJI_col
                0x083bf6b8                KSRTBL
                0x083beee4                MSRCD1
                0x083befc4                m_obj_col1
                0x083bf68c                bg_col_table
                0x083bee04                m_PIECH_col
                0x083beacc                ICCGDT
                0x083bf58c                m_boss_col
                0x083bea8c                TNCGDT
                0x083bef24                LSRCD1
                0x083bf504                m_chasa_col
                0x083bf6e4                KINOPIO_pjump_col
                0x083beec4                MSRCD0
                0x083bf6c4                MARIO_pjump_col
                0x083befa4                PSRCD1
                0x083bec4c                TOCGDT06
                0x083bef44                NSRCD0
                0x083bee64                KSRCD0
                0x083bee24                m_KINOPIO_col
                0x083bea0c                W22CGDT
                0x083bd80c                m_bg_col5
 .data          0x083bf740      0x170 USA_data/usa_data.a(ud_player_sel_BG0_ssc.o)
                0x083bf740                d_player_sel_BG0_sscDTCP
 .data          0x083bf8b0       0xe0 USA_data/usa_data.a(ud_player_sel_BG2_ssc.o)
                0x083bf8b0                d_player_sel_BG2_sscDTCP
 .data          0x083bf990      0x1b0 USA_data/usa_data.a(ud_player_sel_BG3_ssc.o)
                0x083bf990                d_player_sel_BG3_sscDTCP
 .data          0x083bfb40      0xa5c USA_data/usa_data.a(ud_slot_ssc.o)
                0x083bff90                d_slot_effect_sscDTCP
                0x083bfb40                d_slot_sscDTCP
 .data          0x083c059c      0xce0 USA_data/usa_data.a(ud_unit.o)
                0x083c0a94                unit_data1
                0x083c059c                unit_data0
                0x083c0c0c                unit_data2
 .data          0x083c127c     0x222c USA_data/usa_data.a(ud_unit2.o)
                0x083c31dc                unit_TUBO
                0x083c14e4                unit_W11UNT
                0x083c1544                unit_W13UNT
                0x083c2ccc                unit_W52UNT
                0x083c1d7c                unit_W22UNT
                0x083c127c                unit_W10UNT
                0x083c2e84                unit_W53UNT
                0x083c2344                unit_W33UNT
                0x083c19bc                unit_W20UNT
                0x083c2f64                unit_KEYUNT
                0x083c255c                unit_W71UNT
                0x083c1ba4                unit_W21UNT
                0x083c292c                unit_W72UNT
                0x083c1ecc                unit_W40UNT
                0x083c1f4c                unit_W41UNT
                0x083c346c                unit2_table
 .data          0x083c34a8      0x2c4 USA_data/usa_data.a(ud_unit3.o)
                0x083c3578                unit3_BGUNT01
                0x083c34a8                unit3_BGUNT00
                0x083c35c0                unit3_BGUNT02
                0x083c3680                unit3_table
                0x083c3690                unit3_table_COSDAT3
                0x083c3620                unit3_BGUNT03
 .data          0x083c376c      0x5c8 USA_data/usa_data.a(ud_tubo_bg2.o)
                0x083c376c                tubo_bg2_1
                0x083c3a10                tubo_bg2_4
                0x083c3827                tubo_bg2_2
                0x083c3ba7                tubo_bg2_5
                0x083c38e0                tubo_bg2_3
 .data          0x083c3d34      0x9bc USA_data/usa_data.a(ud_bg3.o)
                0x083c3fe3                BG3_CLOD04
                0x083c46c4                STAR05
                0x083c42b9                BG3_CLOD07
                0x083c3e80                BG3_CLOD02
                0x083c4660                STAR01
                0x083c46dc                BG3_star_table
                0x083c4630                BG3_KUMVAL
                0x083c3d60                BG3_CLOD00
                0x083c43ab                BG3_CLOD08
                0x083c468e                STAR03
                0x083c40d5                BG3_CLOD05
                0x083c41c7                BG3_CLOD06
                0x083c458f                BG3_CLOD0A
                0x083c45dc                BG3_CLOD0B
                0x083c3d34                pattern_KUMOPAT
                0x083c46ab                STAR04
                0x083c3de4                BG3_CLOD01
                0x083c449d                BG3_CLOD09
                0x083c4679                STAR02
                0x083c3f11                BG3_CLOD03
 .data          0x083c46f0      0x2c0 COS_data/usa_cos.a(ud_cos1_1_0.o)
                0x083c46f0                cos1_1_0CP
 .data          0x083c49b0      0x4a0 COS_data/usa_cos.a(ud_cos1_1_1.o)
                0x083c49b0                cos1_1_1CP
 .data          0x083c4e50      0x7d0 COS_data/usa_cos.a(ud_cos1_1_2.o)
                0x083c4e50                cos1_1_2CP
 .data          0x083c5620      0x420 COS_data/usa_cos.a(ud_cos1_1_3.o)
                0x083c5620                cos1_1_3CP
 .data          0x083c5a40      0x308 COS_data/usa_cos.a(ud_cos1_1_4.o)
                0x083c5a40                cos1_1_4CP
 .data          0x083c5d48      0x2e0 COS_data/usa_cos.a(ud_cos1_1_5.o)
                0x083c5d48                cos1_1_5CP
 .data          0x083c6028      0x748 COS_data/usa_cos.a(ud_cos1_2_0.o)
                0x083c6028                cos1_2_0CP
 .data          0x083c6770      0x410 COS_data/usa_cos.a(ud_cos1_2_1.o)
                0x083c6770                cos1_2_1CP
 .data          0x083c6b80      0x2c0 COS_data/usa_cos.a(ud_cos1_2_2.o)
                0x083c6b80                cos1_2_2CP
 .data          0x083c6e40      0x140 COS_data/usa_cos.a(ud_cos1_2_3.o)
                0x083c6e40                cos1_2_3CP
 .data          0x083c6f80      0x140 COS_data/usa_cos.a(ud_cos1_2_4.o)
                0x083c6f80                cos1_2_4CP
 .data          0x083c70c0      0x860 COS_data/usa_cos.a(ud_cos1_3_0.o)
                0x083c70c0                cos1_3_0CP
 .data          0x083c7920      0x174 COS_data/usa_cos.a(ud_cos1_3_1.o)
                0x083c7920                cos1_3_1CP
 .data          0x083c7a94      0x8f0 COS_data/usa_cos.a(ud_cos1_3_2.o)
                0x083c7a94                cos1_3_2CP
 .data          0x083c8384      0x28c COS_data/usa_cos.a(ud_cos1_3_3.o)
                0x083c8384                cos1_3_3CP
 .data          0x083c8610      0x204 COS_data/usa_cos.a(ud_cos1_3_4.o)
                0x083c8610                cos1_3_4CP
 .data          0x083c8814      0x40c COS_data/usa_cos.a(ud_cos2_1_0.o)
                0x083c8814                cos2_1_0CP
 .data          0x083c8c20      0x3b8 COS_data/usa_cos.a(ud_cos2_1_1.o)
                0x083c8c20                cos2_1_1CP
 .data          0x083c8fd8      0x34c COS_data/usa_cos.a(ud_cos2_1_2.o)
                0x083c8fd8                cos2_1_2CP
 .data          0x083c9324      0x1a0 COS_data/usa_cos.a(ud_cos2_1_3.o)
                0x083c9324                cos2_1_3CP
 .data          0x083c94c4      0x170 COS_data/usa_cos.a(ud_cos2_1_4.o)
                0x083c94c4                cos2_1_4CP
 .data          0x083c9634      0x210 COS_data/usa_cos.a(ud_cos2_2_0.o)
                0x083c9634                cos2_2_0CP
 .data          0x083c9844      0x488 COS_data/usa_cos.a(ud_cos2_2_1.o)
                0x083c9844                cos2_2_1CP
 .data          0x083c9ccc      0x3e0 COS_data/usa_cos.a(ud_cos2_2_2.o)
                0x083c9ccc                cos2_2_2CP
 .data          0x083ca0ac      0x550 COS_data/usa_cos.a(ud_cos2_2_3.o)
                0x083ca0ac                cos2_2_3CP
 .data          0x083ca5fc      0x16c COS_data/usa_cos.a(ud_cos2_2_4.o)
                0x083ca5fc                cos2_2_4CP
 .data          0x083ca768      0x2f4 COS_data/usa_cos.a(ud_cos2_2_5.o)
                0x083ca768                cos2_2_5CP
 .data          0x083caa5c      0x16c COS_data/usa_cos.a(ud_cos2_2_6.o)
                0x083caa5c                cos2_2_6CP
 .data          0x083cabc8      0x214 COS_data/usa_cos.a(ud_cos2_2_7.o)
                0x083cabc8                cos2_2_7CP
 .data          0x083caddc       0xac COS_data/usa_cos.a(ud_cos2_3_0.o)
                0x083caddc                cos2_3_0CP
 .data          0x083cae88      0x594 COS_data/usa_cos.a(ud_cos2_3_1.o)
                0x083cae88                cos2_3_1CP
 .data          0x083cb41c      0x1f8 COS_data/usa_cos.a(ud_cos2_3_2.o)
                0x083cb41c                cos2_3_2CP
 .data          0x083cb614      0x8d4 COS_data/usa_cos.a(ud_cos2_3_3.o)
                0x083cb614                cos2_3_3CP
 .data          0x083cbee8      0x164 COS_data/usa_cos.a(ud_cos2_3_4.o)
                0x083cbee8                cos2_3_4CP
 .data          0x083cc04c      0x4b0 COS_data/usa_cos.a(ud_cos2_3_5.o)
                0x083cc04c                cos2_3_5CP
 .data          0x083cc4fc      0x1f8 COS_data/usa_cos.a(ud_cos2_3_6.o)
                0x083cc4fc                cos2_3_6CP
 .data          0x083cc6f4      0x120 COS_data/usa_cos.a(ud_cos2_3_7.o)
                0x083cc6f4                cos2_3_7CP
 .data          0x083cc814      0x280 COS_data/usa_cos.a(ud_cos3_1_0.o)
                0x083cc814                cos3_1_0CP
 .data          0x083cca94      0x54c COS_data/usa_cos.a(ud_cos3_1_1.o)
                0x083cca94                cos3_1_1CP
 .data          0x083ccfe0      0x258 COS_data/usa_cos.a(ud_cos3_1_2.o)
                0x083ccfe0                cos3_1_2CP
 .data          0x083cd238      0x4cc COS_data/usa_cos.a(ud_cos3_1_3.o)
                0x083cd238                cos3_1_3CP
 .data          0x083cd704      0x330 COS_data/usa_cos.a(ud_cos3_1_4.o)
                0x083cd704                cos3_1_4CP
 .data          0x083cda34      0x214 COS_data/usa_cos.a(ud_cos3_1_5.o)
                0x083cda34                cos3_1_5CP
 .data          0x083cdc48      0x75c COS_data/usa_cos.a(ud_cos3_2_0.o)
                0x083cdc48                cos3_2_0CP
 .data          0x083ce3a4      0x984 COS_data/usa_cos.a(ud_cos3_2_1.o)
                0x083ce3a4                cos3_2_1CP
 .data          0x083ced28      0x29c COS_data/usa_cos.a(ud_cos3_2_2.o)
                0x083ced28                cos3_2_2CP
 .data          0x083cefc4      0x23c COS_data/usa_cos.a(ud_cos3_3_0.o)
                0x083cefc4                cos3_3_0CP
 .data          0x083cf200      0x1f0 COS_data/usa_cos.a(ud_cos3_3_1.o)
                0x083cf200                cos3_3_1CP
 .data          0x083cf3f0      0x1cc COS_data/usa_cos.a(ud_cos3_3_2.o)
                0x083cf3f0                cos3_3_2CP
 .data          0x083cf5bc      0xbc8 COS_data/usa_cos.a(ud_cos3_3_3.o)
                0x083cf5bc                cos3_3_3CP
 .data          0x083d0184      0x6ac COS_data/usa_cos.a(ud_cos3_3_4.o)
                0x083d0184                cos3_3_4CP
 .data          0x083d0830      0x310 COS_data/usa_cos.a(ud_cos3_3_5.o)
                0x083d0830                cos3_3_5CP
 .data          0x083d0b40      0x168 COS_data/usa_cos.a(ud_cos3_3_6.o)
                0x083d0b40                cos3_3_6CP
 .data          0x083d0ca8       0xcc COS_data/usa_cos.a(ud_cos3_3_7.o)
                0x083d0ca8                cos3_3_7CP
 .data          0x083d0d74      0x27c COS_data/usa_cos.a(ud_cos3_3_8.o)
                0x083d0d74                cos3_3_8CP
 .data          0x083d0ff0      0x36c COS_data/usa_cos.a(ud_cos4_1_0.o)
                0x083d0ff0                cos4_1_0CP
 .data          0x083d135c      0x4fc COS_data/usa_cos.a(ud_cos4_1_1.o)
                0x083d135c                cos4_1_1CP
 .data          0x083d1858      0x16c COS_data/usa_cos.a(ud_cos4_1_2.o)
                0x083d1858                cos4_1_2CP
 .data          0x083d19c4      0x16c COS_data/usa_cos.a(ud_cos4_1_4.o)
                0x083d19c4                cos4_1_4CP
 .data          0x083d1b30      0x22c COS_data/usa_cos.a(ud_cos4_2_0.o)
                0x083d1b30                cos4_2_0CP
 .data          0x083d1d5c      0x118 COS_data/usa_cos.a(ud_cos4_2_1.o)
                0x083d1d5c                cos4_2_1CP
 .data          0x083d1e74      0x534 COS_data/usa_cos.a(ud_cos4_2_2.o)
                0x083d1e74                cos4_2_2CP
 .data          0x083d23a8      0x304 COS_data/usa_cos.a(ud_cos4_2_3.o)
                0x083d23a8                cos4_2_3CP
 .data          0x083d26ac      0x2c4 COS_data/usa_cos.a(ud_cos4_2_4.o)
                0x083d26ac                cos4_2_4CP
 .data          0x083d2970      0x1d8 COS_data/usa_cos.a(ud_cos4_3_0.o)
                0x083d2970                cos4_3_0CP
 .data          0x083d2b48      0x63c COS_data/usa_cos.a(ud_cos4_3_1.o)
                0x083d2b48                cos4_3_1CP
 .data          0x083d3184      0x624 COS_data/usa_cos.a(ud_cos4_3_2.o)
                0x083d3184                cos4_3_2CP
 .data          0x083d37a8      0x628 COS_data/usa_cos.a(ud_cos4_3_3.o)
                0x083d37a8                cos4_3_3CP
 .data          0x083d3dd0      0x22c COS_data/usa_cos.a(ud_cos4_3_4.o)
                0x083d3dd0                cos4_3_4CP
 .data          0x083d3ffc      0x15c COS_data/usa_cos.a(ud_cos4_3_5.o)
                0x083d3ffc                cos4_3_5CP
 .data          0x083d4158      0x130 COS_data/usa_cos.a(ud_cos4_3_6.o)
                0x083d4158                cos4_3_6CP
 .data          0x083d4288       0xc0 COS_data/usa_cos.a(ud_cos4_3_7.o)
                0x083d4288                cos4_3_7CP
 .data          0x083d4348      0x2ac COS_data/usa_cos.a(ud_cos5_1_0.o)
                0x083d4348                cos5_1_0CP
 .data          0x083d45f4      0x734 COS_data/usa_cos.a(ud_cos5_1_1.o)
                0x083d45f4                cos5_1_1CP
 .data          0x083d4d28      0x188 COS_data/usa_cos.a(ud_cos5_1_2.o)
                0x083d4d28                cos5_1_2CP
 .data          0x083d4eb0      0x1c8 COS_data/usa_cos.a(ud_cos5_2_0.o)
                0x083d4eb0                cos5_2_0CP
 .data          0x083d5078      0x7d0 COS_data/usa_cos.a(ud_cos5_2_1.o)
                0x083d5078                cos5_2_1CP
 .data          0x083d5848      0x578 COS_data/usa_cos.a(ud_cos5_2_2.o)
                0x083d5848                cos5_2_2CP
 .data          0x083d5dc0      0xa48 COS_data/usa_cos.a(ud_cos5_2_3.o)
                0x083d5dc0                cos5_2_3CP
 .data          0x083d6808      0x1d4 COS_data/usa_cos.a(ud_cos5_2_4.o)
                0x083d6808                cos5_2_4CP
 .data          0x083d69dc      0x260 COS_data/usa_cos.a(ud_cos5_2_5.o)
                0x083d69dc                cos5_2_5CP
 .data          0x083d6c3c      0x248 COS_data/usa_cos.a(ud_cos5_3_0.o)
                0x083d6c3c                cos5_3_0CP
 .data          0x083d6e84      0x8a4 COS_data/usa_cos.a(ud_cos5_3_1.o)
                0x083d6e84                cos5_3_1CP
 .data          0x083d7728      0x600 COS_data/usa_cos.a(ud_cos5_3_2.o)
                0x083d7728                cos5_3_2CP
 .data          0x083d7d28      0x754 COS_data/usa_cos.a(ud_cos5_3_3.o)
                0x083d7d28                cos5_3_3CP
 .data          0x083d847c      0x82c COS_data/usa_cos.a(ud_cos5_3_4.o)
                0x083d847c                cos5_3_4CP
 .data          0x083d8ca8      0x1a8 COS_data/usa_cos.a(ud_cos5_3_5.o)
                0x083d8ca8                cos5_3_5CP
 .data          0x083d8e50      0x3e4 COS_data/usa_cos.a(ud_cos6_1_0.o)
                0x083d8e50                cos6_1_0CP
 .data          0x083d9234      0x34c COS_data/usa_cos.a(ud_cos6_1_1.o)
                0x083d9234                cos6_1_1CP
 .data          0x083d9580      0x218 COS_data/usa_cos.a(ud_cos6_1_2.o)
                0x083d9580                cos6_1_2CP
 .data          0x083d9798      0x25c COS_data/usa_cos.a(ud_cos6_1_3.o)
                0x083d9798                cos6_1_3CP
 .data          0x083d99f4      0x144 COS_data/usa_cos.a(ud_cos6_1_4.o)
                0x083d99f4                cos6_1_4CP
 .data          0x083d9b38      0x270 COS_data/usa_cos.a(ud_cos6_1_5.o)
                0x083d9b38                cos6_1_5CP
 .data          0x083d9da8      0x138 COS_data/usa_cos.a(ud_cos6_1_6.o)
                0x083d9da8                cos6_1_6CP
 .data          0x083d9ee0      0x13c COS_data/usa_cos.a(ud_cos6_1_7.o)
                0x083d9ee0                cos6_1_7CP
 .data          0x083da01c      0x238 COS_data/usa_cos.a(ud_cos6_2_0.o)
                0x083da01c                cos6_2_0CP
 .data          0x083da254      0x3d0 COS_data/usa_cos.a(ud_cos6_2_1.o)
                0x083da254                cos6_2_1CP
 .data          0x083da624      0x2bc COS_data/usa_cos.a(ud_cos6_2_2.o)
                0x083da624                cos6_2_2CP
 .data          0x083da8e0       0xbc COS_data/usa_cos.a(ud_cos6_3_0.o)
                0x083da8e0                cos6_3_0CP
 .data          0x083da99c      0x360 COS_data/usa_cos.a(ud_cos6_3_1.o)
                0x083da99c                cos6_3_1CP
 .data          0x083dacfc      0x7f4 COS_data/usa_cos.a(ud_cos6_3_2.o)
                0x083dacfc                cos6_3_2CP
 .data          0x083db4f0      0xd68 COS_data/usa_cos.a(ud_cos6_3_3.o)
                0x083db4f0                cos6_3_3CP
 .data          0x083dc258      0x1a0 COS_data/usa_cos.a(ud_cos6_3_4.o)
                0x083dc258                cos6_3_4CP
 .data          0x083dc3f8       0xc0 COS_data/usa_cos.a(ud_cos6_3_5.o)
                0x083dc3f8                cos6_3_5CP
 .data          0x083dc4b8      0x1cc COS_data/usa_cos.a(ud_cos6_3_6.o)
                0x083dc4b8                cos6_3_6CP
 .data          0x083dc684      0x214 COS_data/usa_cos.a(ud_cos6_3_7.o)
                0x083dc684                cos6_3_7CP
 .data          0x083dc898       0xa0 COS_data/usa_cos.a(ud_cos7_1_0.o)
                0x083dc898                cos7_1_0CP
 .data          0x083dc938      0x400 COS_data/usa_cos.a(ud_cos7_1_1.o)
                0x083dc938                cos7_1_1CP
 .data          0x083dcd38      0x1e4 COS_data/usa_cos.a(ud_cos7_1_2.o)
                0x083dcd38                cos7_1_2CP
 .data          0x083dcf1c      0x304 COS_data/usa_cos.a(ud_cos7_1_3.o)
                0x083dcf1c                cos7_1_3CP
 .data          0x083dd220      0x218 COS_data/usa_cos.a(ud_cos7_1_4.o)
                0x083dd220                cos7_1_4CP
 .data          0x083dd438      0x130 COS_data/usa_cos.a(ud_cos7_1_5.o)
                0x083dd438                cos7_1_5CP
 .data          0x083dd568      0x210 COS_data/usa_cos.a(ud_cos7_2_0.o)
                0x083dd568                cos7_2_0CP
 .data          0x083dd778      0x478 COS_data/usa_cos.a(ud_cos7_2_1.o)
                0x083dd778                cos7_2_1CP
 .data          0x083ddbf0      0xb78 COS_data/usa_cos.a(ud_cos7_2_2.o)
                0x083ddbf0                cos7_2_2CP
 .data          0x083de768      0x390 COS_data/usa_cos.a(ud_cos7_2_3.o)
                0x083de768                cos7_2_3CP
 .data          0x083deaf8      0x684 COS_data/usa_cos.a(ud_cos7_2_4.o)
                0x083deaf8                cos7_2_4CP
 .data          0x083df17c      0x45c COS_data/usa_cos.a(ud_cos7_2_5.o)
                0x083df17c                cos7_2_5CP
 .data          0x083df5d8      0xbd8 COS_data/usa_cos.a(ud_cos7_2_6.o)
                0x083df5d8                cos7_2_6CP
 .data          0x083e01b0      0x404 COS_data/usa_cos.a(ud_cos7_2_7.o)
                0x083e01b0                cos7_2_7CP
 .data          0x083e05b4      0x8bc COS_data/usa_cos.a(ud_cos7_2_8.o)
                0x083e05b4                cos7_2_8CP
 .data          0x083e0e70      0x490 COS_data/usa_cos.a(ud_cos7_2_9.o)
                0x083e0e70                cos7_2_9CP
 .data          0x083e1300      0x7f4 COS_data/usa_cos.a(ud_cos21_1.o)
                0x083e1525                cos21_1_3CP
                0x083e1300                cos21_1_0CP
                0x083e135b                cos21_1_2CP
                0x083e1a98                cos21_1_5CP
 .data          0x083e1af4      0xd84 COS_data/usa_cos.a(ud_cos21_3.o)
                0x083e268a                cos21_3_4CP
                0x083e1c23                cos21_3_2CP
                0x083e2168                cos21_3_3CP
                0x083e1af4                cos21_3_1CP
 .data          0x083e2878      0xb2c COS_data/usa_cos.a(ud_cos22_1.o)
                0x083e2878                cos22_1_0CP
                0x083e29cd                cos22_1_1CP
                0x083e336d                cos22_1_4CP
                0x083e2d96                cos22_1_2CP
 .data          0x083e33a4      0x460 COS_data/usa_cos.a(ud_cos22_2.o)
                0x083e37aa                cos22_2_4CP
                0x083e3516                cos22_2_1CP
                0x083e36b9                cos22_2_3CP
                0x083e33a4                cos22_2_0CP
 .data          0x083e3804      0x2a4 COS_data/usa_cos.a(ud_cos22_3.o)
                0x083e38df                cos22_3_6CP
                0x083e3804                cos22_3_4CP
 .data          0x083e3aa8       0xf4 COS_data/usa_cos.a(ud_cos23_1.o)
                0x083e3aa8                cos23_1_0CP
                0x083e3b3f                cos23_1_3CP
 .data          0x083e3b9c      0x320 COS_data/usa_cos.a(ud_cos23_2.o)
                0x083e3db1                cos23_2_2CP
                0x083e3b9c                cos23_2_0CP
                0x083e3ca7                cos23_2_1CP
 .data          0x083e3ebc      0x130 COS_data/usa_cos.a(ud_cos23_3.o)
                0x083e3ebc                cos23_3_7CP
 .data          0x083e3fec      0x4b8 COS_data/usa_cos.a(ud_cos24_1.o)
                0x083e419e                cos24_1_1CP
                0x083e3fec                cos24_1_0CP
 .data          0x083e44a4      0x290 COS_data/usa_cos.a(ud_cos24_2.o)
                0x083e46d9                cos24_2_3CP
                0x083e44a4                cos24_2_0CP
 .data          0x083e4734       0x5c COS_data/usa_cos.a(ud_cos24_3.o)
                0x083e4734                cos24_3_4CP
 .data          0x083e4790       0x74 COS_data/usa_cos.a(ud_cos25_1.o)
                0x083e4790                cos25_1_0CP
 .data          0x083e4804      0x774 COS_data/usa_cos.a(ud_cos25_2.o)
                0x083e4dfc                cos25_2_4CP
                0x083e4b84                cos25_2_3CP
                0x083e4804                cos25_2_1CP
                0x083e49d0                cos25_2_2CP
                0x083e4e9e                cos25_2_5CP
 .data          0x083e4f78      0x8ac COS_data/usa_cos.a(ud_cos25_3.o)
                0x083e564a                cos25_3_4CP
                0x083e4f78                cos25_3_3CP
                0x083e56a5                cos25_3_5CP
 .data          0x083e5824      0x220 COS_data/usa_cos.a(ud_cos26_1.o)
                0x083e5824                cos26_1_3CP
                0x083e59ea                cos26_1_6CP
                0x083e591e                cos26_1_5CP
                0x083e58f0                cos26_1_4CP
 .data          0x083e5a44      0x1f8 COS_data/usa_cos.a(ud_cos26_2.o)
                0x083e5a44                cos26_2_1CP
 .data          0x083e5c3c      0x224 COS_data/usa_cos.a(ud_cos26_3.o)
                0x083e5c97                cos26_3_6CP
                0x083e5c3c                cos26_3_4CP
 .data          0x083e5e60      0x8bc COS_data/usa_cos.a(ud_cos27_1.o)
                0x083e653d                cos27_1_5CP
                0x083e5e60                cos27_1_1CP
                0x083e6360                cos27_1_4CP
                0x083e60e0                cos27_1_2CP
 .data          0x083e671c     0x2fec COS_data/usa_cos.a(ud_cos27_2.o)
                0x083e8caf                cos27_2_7CP
                0x083e6ef2                cos27_2_2CP
                0x083e671c                cos27_2_0CP
                0x083e7de8                cos27_2_4CP
                0x083e91da                cos27_2_8CP
                0x083e8784                cos27_2_6CP
                0x083e8563                cos27_2_5CP
                0x083e766d                cos27_2_3CP
                0x083e6777                cos27_2_1CP
 .data          0x083e9708     0x157c COS_data/usa_cos.a(ud_tubo.o)
                0x083ea4d0                tubo5_2
                0x083e9a42                tubo2_1
                0x083e9b50                tubo2_2
                0x083ea1a4                tubo4_2
                0x083ea7fc                tubo6_2
                0x083ea6ee                tubo6_1
                0x083eaa18                tubo7_1
                0x083ea3c2                tubo5_1
                0x083e9e7a                tubo3_2
                0x083e9c5e                tubo2_3
                0x083ea2b2                tubo4_3
                0x083e9d6c                tubo3_1
                0x083e981e                tubo1_2
                0x083ea90a                tubo6_3
                0x083eac34                tubo_bg1_table
                0x083e992c                tubo1_3
                0x083e9f88                tubo3_3
                0x083eab26                tubo7_2
                0x083ea5e0                tubo5_3
                0x083ea096                tubo4_1
                0x083e9708                tubo1_1
 .data          0x083eac84     0x11d0 COS_data/usa_cos.a(ud_next_goto.o)
                0x083eac84                next_data
                0x083ebddc                kinoko_data
                0x083ebe18                egg_data
                0x083ebc24                cos_unit2_dat
                0x083ebe40                boss_grand_no
                0x083ebd00                yos_col_address
 .data          0x083ebe54      0x2f0 C:\PROGRA~1\Cygnus\thumbelf-000512\H-i686-cygwin32\bin/../lib/gcc-lib/thumb-elf/2.9-arm-000512/../../../../thumb-elf/lib/libg.a(impure.o)
                0x083ec140                _impure_ptr
 .data          0x083ec144       0x14 C:\PROGRA~1\Cygnus\thumbelf-000512\H-i686-cygwin32\bin/../lib/gcc-lib/thumb-elf/2.9-arm-000512/../../../../thumb-elf/lib/libg.a(locale.o)
                0x083ec144                __mb_cur_max
 .data          0x083ec158      0x444 C:\PROGRA~1\Cygnus\thumbelf-000512\H-i686-cygwin32\bin/../lib/gcc-lib/thumb-elf/2.9-arm-000512/../../../../thumb-elf/lib/libg.a(mallocr.o)
                0x083ec564                __malloc_top_pad
                0x083ec56c                __malloc_max_sbrked_mem
                0x083ec568                __malloc_sbrk_base
                0x083ec574                __malloc_current_mallinfo
                0x083ec158                __malloc_av_
                0x083ec570                __malloc_max_total_mem
                0x083ec560                __malloc_trim_threshold
 *(.data.*)
 *(.gnu.linkonce.d*)

.data1
 *(.data1)

.ctors
 EXCLUDE_FILE ( *crtend.o )*(.ctors)
 *(SORT(.ctors.*))
 *crtend(.ctors)

.dtors
 EXCLUDE_FILE ( *crtend.o )*(.dtors)
 *(SORT(.dtors.*))
 *crtend.o(.dtors)

.got
 *(.got.plt)
 *(.got)

.dynamic
 *(.dynamic)

.sdata
 *(.sdata)
 *(.sdata.*)
                0x083ec59c                _edata=.
                0x083ec59c                PROVIDE (edata, .)
                0x083ec59c                __bss_start=.
                0x083ec59c                __bss_start__=.

.sbss
 *(.sbss)
 *(.scommon)

.bss            0x03000000     0x7328
 *(.dynbss)
 *(.bss)
 .bss           0x03000000        0x4 um_select.o
 .bss           0x03000004        0x8 MultiBoot.o
 *fill*         0x0300000c        0x4
 .bss           0x03000010       0xec ua_sort.o
 .bss           0x030000fc        0x8 ua_door.o
 .bss           0x03000104        0x4 ua_effect.o
 .bss           0x03000108      0xb40 sound/SoundDat.o
 .bss           0x03000c48       0x10 C:/agb/lib//libagbbackup.a(AgbEeprom.o)
 .bss           0x03000c58       0xb0 C:\PROGRA~1\Cygnus\thumbelf-000512\H-i686-cygwin32\bin/../lib/gcc-lib/thumb-elf/2.9-arm-000512/../../../../thumb-elf/lib/libg.a(syscalls.o)
 *(.bss.*)
 .bss.code      0x03000d08      0x400 sound/m4aLib.o
                0x03000d08                SoundMainBuf
 *(COMMON)
 COMMON         0x03001108        0x8 m_classic_play.o
                                  0x0 (size before relaxing)
                0x03001108                PAUSEF
                0x0300110c                HEHEHE
 COMMON         0x03001110     0x49f0 m_main.o
                                  0x0 (size before relaxing)
                0x03001110                usa_game
                0x03001120                game
                0x030052c0                IntrTableBuf
                0x03005300                OAMTEMP
                0x03005700                OamBak
 COMMON         0x03005b00        0x8 m_title.o
                                  0x0 (size before relaxing)
                0x03005b00                p_tsl
                0x03005b04                p_opn
 *fill*         0x03005b08        0x8
 COMMON         0x03005b10       0x5c m_vs.o
                                  0x0 (size before relaxing)
                0x03005b10                child_bin_start
                0x03005b14                child_bin_length
                0x03005b20                multiboot_status
 *fill*         0x03005b6c        0x4
 COMMON         0x03005b70       0x28 m_VsMain.o
                                  0x0 (size before relaxing)
                0x03005b70                UsrSendBuf
                0x03005b74                SioModeFlg
                0x03005b78                SioFlags
                0x03005b7c                ConnectFlg
                0x03005b80                play_mode
                0x03005b88                UsrRecvBuf
                0x03005b90                vs_mode
                0x03005b94                ConnectAGB
 COMMON         0x03005b98        0x4 ua_ending.o
                                  0x0 (size before relaxing)
                0x03005b98                p_act
 COMMON         0x03005b9c        0x4 um_bonus.o
                                  0x0 (size before relaxing)
                0x03005b9c                SlotDt
 COMMON         0x03005ba0        0x4 um_select_sub.o
                                  0x0 (size before relaxing)
                0x03005ba0                p_sel
 COMMON         0x03005ba4        0x4 um_yossy.o
                                  0x0 (size before relaxing)
                0x03005ba4                YOS_DATA
 COMMON         0x03005ba8        0x8 up_player.o
                                  0x0 (size before relaxing)
                0x03005ba8                p_ply
                0x03005bac                p_select
 COMMON         0x03005bb0       0xd8 m_MultiSio.o
                                  0x0 (size before relaxing)
                0x03005bb0                Ms
 *fill*         0x03005c88        0x8
 COMMON         0x03005c90       0x58 ua_save.o
                                  0x0 (size before relaxing)
                0x03005c90                work1
                0x03005cc0                work0
 COMMON         0x03005ce8        0x4 um_result.o
                                  0x0 (size before relaxing)
                0x03005ce8                RES_DATA
 *fill*         0x03005cec        0x4
 COMMON         0x03005cf0       0x10 ua_act.o
                                  0x0 (size before relaxing)
                0x03005cf0                Deaffp
                0x03005cf8                Sraffp
 COMMON         0x03005d00        0x4 ua_effect.o
                                  0x0 (size before relaxing)
                0x03005d00                p_scr
 COMMON         0x03005d04        0x4 ua_stareffect.o
                                  0x0 (size before relaxing)
                0x03005d04                p_eff
 *fill*         0x03005d08        0x8
 COMMON         0x03005d10     0x1140 sound/m4aLib.o
                                  0x0 (size before relaxing)
                0x03005d10                m4a_sound
                0x03006cc0                ExtMPlyJmpTbl
                0x03006d50                m4a_cgbchn
 COMMON         0x03006e50      0x4d0 sound/SoundDat.o
                                  0x0 (size before relaxing)
                0x03006e50                m4a_mplay013
                0x03006e90                m4a_mplay005
                0x03006ed0                m4a_mplay030
                0x03006f10                m4a_mplay016
                0x03006f50                m4a_mplay009
                0x03006f90                m4a_mplay006
                0x03006fd0                m4a_mplay000
                0x03007010                m4a_mplay014
                0x03007050                m4a_mplay031
                0x03007090                m4a_mplay007
                0x030070d0                m4a_mplay001
                0x03007110                m4a_mplay002
                0x03007150                m4a_mplay010
                0x03007190                m4a_mplay015
                0x030071d0                m4a_mplay012
                0x03007210                m4a_mplay004
                0x03007250                m4a_memacc_area
                0x03007260                m4a_mplay008
                0x030072a0                m4a_mplay003
                0x030072e0                m4a_mplay011
 COMMON         0x03007320        0x4 C:/agb/lib//libagbbackup.a(AgbEeprom.o)
                                  0x0 (size before relaxing)
                0x03007320                eeprom
 COMMON         0x03007324        0x4 C:\PROGRA~1\Cygnus\thumbelf-000512\H-i686-cygwin32\bin/../lib/gcc-lib/thumb-elf/2.9-arm-000512/../../../../thumb-elf/lib/libg.a(sbrkr.o)
                                  0x0 (size before relaxing)
                0x03007324                errno
                0x03007328                .=ALIGN(0x4)
                0x03007328                .=ALIGN(0x4)
                0x03007328                _end=.
                0x03007328                _bss_end__=.
                0x03007328                __bss_end__=.
                0x03007328                PROVIDE (end, .)

.stab
 *(.stab)

.stabstr
 *(.stabstr)

.stab.excl
 *(.stab.excl)

.stab.exclstr
 *(.stab.exclstr)

.stab.index
 *(.stab.index)

.stab.indexstr
 *(.stab.indexstr)

.comment
 *(.comment)

.debug
 *(.debug)

.line
 *(.line)

.debug_srcinfo
 *(.debug_srcinfo)

.debug_sfnames
 *(.debug_sfnames)

.debug_aranges  0x00000000     0x1680
 *(.debug_aranges)
 .debug_aranges
                0x00000000       0x20 ba_effect.o
 .debug_aranges
                0x00000020       0x20 ba_player.o
 .debug_aranges
                0x00000040       0x20 ba_reach.o
 .debug_aranges
                0x00000060       0x20 cm_game.o
 .debug_aranges
                0x00000080       0x20 m_battle_rom_play.o
 .debug_aranges
                0x000000a0       0x20 m_classic_play.o
 .debug_aranges
                0x000000c0       0x20 m_erase.o
 .debug_aranges
                0x000000e0       0x20 m_game.o
 .debug_aranges
                0x00000100       0x20 m_game_sub.o
 .debug_aranges
                0x00000120       0x20 m_game_title.o
 .debug_aranges
                0x00000140       0x20 m_main.o
 .debug_aranges
                0x00000160       0x20 m_opening.o
 .debug_aranges
                0x00000180       0x20 m_score.o
 .debug_aranges
                0x000001a0       0x20 m_title.o
 .debug_aranges
                0x000001c0       0x20 m_title_sub.o
 .debug_aranges
                0x000001e0       0x20 m_vs.o
 .debug_aranges
                0x00000200       0x20 m_VsGame.o
 .debug_aranges
                0x00000220       0x20 m_VsMain.o
 .debug_aranges
                0x00000240       0x20 ua_char_set.o
 .debug_aranges
                0x00000260       0x20 ua_course.o
 .debug_aranges
                0x00000280       0x20 ua_ending.o
 .debug_aranges
                0x000002a0       0x20 ua_game.o
 .debug_aranges
                0x000002c0       0x20 ua_game_over.o
 .debug_aranges
                0x000002e0       0x20 ua_pause.o
 .debug_aranges
                0x00000300       0x20 ua_score.o
 .debug_aranges
                0x00000320       0x20 ua_warp.o
 .debug_aranges
                0x00000340       0x20 um_bonus.o
 .debug_aranges
                0x00000360       0x20 um_courseclear.o
 .debug_aranges
                0x00000380       0x20 um_select.o
 .debug_aranges
                0x000003a0       0x20 um_select_sub.o
 .debug_aranges
                0x000003c0       0x20 um_yossy.o
 .debug_aranges
                0x000003e0       0x20 up_common.o
 .debug_aranges
                0x00000400       0x20 up_player.o
 .debug_aranges
                0x00000420       0x20 m_boot.o
 .debug_aranges
                0x00000440       0x20 m_sub.o
 .debug_aranges
                0x00000460       0x20 m_MultiSio.o
 .debug_aranges
                0x00000480       0x20 MultiBoot.o
 .debug_aranges
                0x000004a0       0x20 m_bgcheck.o
 .debug_aranges
                0x000004c0       0x20 m_scroll.o
 .debug_aranges
                0x000004e0       0x20 m_classic_sub.o
 .debug_aranges
                0x00000500       0x20 ua_save.o
 .debug_aranges
                0x00000520       0x20 um_result.o
 .debug_aranges
                0x00000540       0x20 um_math.o
 .debug_aranges
                0x00000560       0x20 um_oamset.o
 .debug_aranges
                0x00000580       0x20 um_mosaic.o
 .debug_aranges
                0x000005a0       0x20 cm_game_title.o
 .debug_aranges
                0x000005c0       0x20 ua_act.o
 .debug_aranges
                0x000005e0       0x20 ua_common.o
 .debug_aranges
                0x00000600       0x20 ua_bg.o
 .debug_aranges
                0x00000620       0x20 ua_unit_change.o
 .debug_aranges
                0x00000640       0x20 ua_color.o
 .debug_aranges
                0x00000660       0x20 ua_bg3_set.o
 .debug_aranges
                0x00000680       0x20 ua_sort.o
 .debug_aranges
                0x000006a0       0x20 ua_eggmeter.o
 .debug_aranges
                0x000006c0       0x20 ba_act.o
 .debug_aranges
                0x000006e0       0x20 ba_bgYuKa.o
 .debug_aranges
                0x00000700       0x20 ba_bucket.o
 .debug_aranges
                0x00000720       0x20 ba_Coin.o
 .debug_aranges
                0x00000740       0x20 ba_common.o
 .debug_aranges
                0x00000760       0x20 ba_egg.o
 .debug_aranges
                0x00000780       0x20 ba_enFly.o
 .debug_aranges
                0x000007a0       0x20 ba_enKani.o
 .debug_aranges
                0x000007c0       0x20 ba_enmy.o
 .debug_aranges
                0x000007e0       0x20 ba_enNoko.o
 .debug_aranges
                0x00000800       0x20 ba_enToge.o
 .debug_aranges
                0x00000820       0x20 ba_fire.o
 .debug_aranges
                0x00000840       0x20 ba_fishBone.o
 .debug_aranges
                0x00000860       0x20 ba_heart.o
 .debug_aranges
                0x00000880       0x20 ba_ice.o
 .debug_aranges
                0x000008a0       0x20 ba_koura.o
 .debug_aranges
                0x000008c0       0x20 ba_kuppa.o
 .debug_aranges
                0x000008e0       0x20 ba_mutekiStar.o
 .debug_aranges
                0x00000900       0x20 ba_PipeWave.o
 .debug_aranges
                0x00000920       0x20 ba_point.o
 .debug_aranges
                0x00000940       0x20 ba_pow.o
 .debug_aranges
                0x00000960       0x20 ba_smoke.o
 .debug_aranges
                0x00000980       0x20 ba_spark.o
 .debug_aranges
                0x000009a0       0x20 ba_splash.o
 .debug_aranges
                0x000009c0       0x20 ba_star.o
 .debug_aranges
                0x000009e0       0x20 ba_icicle.o
 .debug_aranges
                0x00000a00       0x20 ba_powsmk.o
 .debug_aranges
                0x00000a20       0x20 ua_fairy.o
 .debug_aranges
                0x00000a40       0x20 ua_walk.o
 .debug_aranges
                0x00000a60       0x20 ua_tori.o
 .debug_aranges
                0x00000a80       0x20 ua_huck0.o
 .debug_aranges
                0x00000aa0       0x20 ua_shoot.o
 .debug_aranges
                0x00000ac0       0x20 ua_force.o
 .debug_aranges
                0x00000ae0       0x20 ua_burn0.o
 .debug_aranges
                0x00000b00       0x20 ua_bird.o
 .debug_aranges
                0x00000b20       0x20 ua_ninja.o
 .debug_aranges
                0x00000b40       0x20 ua_ninj1.o
 .debug_aranges
                0x00000b60       0x20 ua_flyng.o
 .debug_aranges
                0x00000b80       0x20 ua_pigmo.o
 .debug_aranges
                0x00000ba0       0x20 ua_fish0.o
 .debug_aranges
                0x00000bc0       0x20 ua_musi0.o
 .debug_aranges
                0x00000be0       0x20 ua_tubo.o
 .debug_aranges
                0x00000c00       0x20 ua_mask.o
 .debug_aranges
                0x00000c20       0x20 ua_hebi0.o
 .debug_aranges
                0x00000c40       0x20 ua_hebi1.o
 .debug_aranges
                0x00000c60       0x20 ua_sbten.o
 .debug_aranges
                0x00000c80       0x20 ua_boss0.o
 .debug_aranges
                0x00000ca0       0x20 ua_mikey.o
 .debug_aranges
                0x00000cc0       0x20 ua_ball1.o
 .debug_aranges
                0x00000ce0       0x20 ua_snake.o
 .debug_aranges
                0x00000d00       0x20 ua_fire1.o
 .debug_aranges
                0x00000d20       0x20 ua_bkani.o
 .debug_aranges
                0x00000d40       0x20 ua_flwer.o
 .debug_aranges
                0x00000d60       0x20 ua_canon.o
 .debug_aranges
                0x00000d80       0x20 ua_fnsui.o
 .debug_aranges
                0x00000da0       0x20 ua_icemn.o
 .debug_aranges
                0x00000dc0       0x20 ua_fireb.o
 .debug_aranges
                0x00000de0       0x20 ua_mamuu.o
 .debug_aranges
                0x00000e00       0x20 ua_bgkao.o
 .debug_aranges
                0x00000e20       0x20 ua_whats.o
 .debug_aranges
                0x00000e40       0x20 ua_wood.o
 .debug_aranges
                0x00000e60       0x20 ua_exit.o
 .debug_aranges
                0x00000e80       0x20 ua_item.o
 .debug_aranges
                0x00000ea0       0x20 ua_rocket.o
 .debug_aranges
                0x00000ec0       0x20 ua_heart.o
 .debug_aranges
                0x00000ee0       0x20 ua_door.o
 .debug_aranges
                0x00000f00       0x20 ua_flag.o
 .debug_aranges
                0x00000f20       0x20 ua_lmp0.o
 .debug_aranges
                0x00000f40       0x20 ua_star.o
 .debug_aranges
                0x00000f60       0x20 ua_spae.o
 .debug_aranges
                0x00000f80       0x20 ua_pwbk.o
 .debug_aranges
                0x00000fa0       0x20 ua_bigboss.o
 .debug_aranges
                0x00000fc0       0x20 ua_gondola.o
 .debug_aranges
                0x00000fe0       0x20 ua_gonboss.o
 .debug_aranges
                0x00001000       0x20 ua_cherry.o
 .debug_aranges
                0x00001020       0x20 ua_gohoubi.o
 .debug_aranges
                0x00001040       0x20 ua_toge.o
 .debug_aranges
                0x00001060       0x20 ua_egg.o
 .debug_aranges
                0x00001080       0x20 ua_mask1.o
 .debug_aranges
                0x000010a0       0x20 ua_capsule.o
 .debug_aranges
                0x000010c0       0x20 ua_lift.o
 .debug_aranges
                0x000010e0       0x20 ua_bubble.o
 .debug_aranges
                0x00001100       0x20 ua_sboss.o
 .debug_aranges
                0x00001120       0x20 ua_itemball.o
 .debug_aranges
                0x00001140       0x20 ua_mosaic.o
 .debug_aranges
                0x00001160       0x20 ua_coin.o
 .debug_aranges
                0x00001180       0x20 ua_effect.o
 .debug_aranges
                0x000011a0       0x20 ua_shock.o
 .debug_aranges
                0x000011c0       0x20 ua_stareffect.o
 .debug_aranges
                0x000011e0       0x20 ua_bosseffect.o
 .debug_aranges
                0x00001200       0x20 ua_cros.o
 .debug_aranges
                0x00001220       0x20 up_exst.o
 .debug_aranges
                0x00001240       0x20 um_yscr.o
 .debug_aranges
                0x00001260       0x20 um_tscr.o
 .debug_aranges
                0x00001280       0x20 m_mini_malloc.o
 .debug_aranges
                0x000012a0       0x20 C:/agb/lib//libagbbackup.a(AgbEeprom.o)
 .debug_aranges
                0x000012c0       0x20 C:\PROGRA~1\Cygnus\thumbelf-000512\H-i686-cygwin32\bin/../lib/gcc-lib/thumb-elf/2.9-arm-000512/../../../../thumb-elf/lib/libg.a(assert.o)
 .debug_aranges
                0x000012e0       0x20 C:\PROGRA~1\Cygnus\thumbelf-000512\H-i686-cygwin32\bin/../lib/gcc-lib/thumb-elf/2.9-arm-000512/../../../../thumb-elf/lib/libg.a(fiprintf.o)
 .debug_aranges
                0x00001300       0x20 C:\PROGRA~1\Cygnus\thumbelf-000512\H-i686-cygwin32\bin/../lib/gcc-lib/thumb-elf/2.9-arm-000512/../../../../thumb-elf/lib/libg.a(libcfunc.o)
 .debug_aranges
                0x00001320       0x20 C:\PROGRA~1\Cygnus\thumbelf-000512\H-i686-cygwin32\bin/../lib/gcc-lib/thumb-elf/2.9-arm-000512/../../../../thumb-elf/lib/libg.a(memcpy.o)
 .debug_aranges
                0x00001340       0x20 C:\PROGRA~1\Cygnus\thumbelf-000512\H-i686-cygwin32\bin/../lib/gcc-lib/thumb-elf/2.9-arm-000512/../../../../thumb-elf/lib/libg.a(memset.o)
 .debug_aranges
                0x00001360       0x20 C:\PROGRA~1\Cygnus\thumbelf-000512\H-i686-cygwin32\bin/../lib/gcc-lib/thumb-elf/2.9-arm-000512/../../../../thumb-elf/lib/libg.a(vfiprintf.o)
 .debug_aranges
                0x00001380       0x20 C:\PROGRA~1\Cygnus\thumbelf-000512\H-i686-cygwin32\bin/../lib/gcc-lib/thumb-elf/2.9-arm-000512/../../../../thumb-elf/lib/libg.a(wsetup.o)
 .debug_aranges
                0x000013a0       0x20 C:\PROGRA~1\Cygnus\thumbelf-000512\H-i686-cygwin32\bin/../lib/gcc-lib/thumb-elf/2.9-arm-000512/../../../../thumb-elf/lib/libg.a(fflush.o)
 .debug_aranges
                0x000013c0       0x20 C:\PROGRA~1\Cygnus\thumbelf-000512\H-i686-cygwin32\bin/../lib/gcc-lib/thumb-elf/2.9-arm-000512/../../../../thumb-elf/lib/libg.a(findfp.o)
 .debug_aranges
                0x000013e0       0x20 C:\PROGRA~1\Cygnus\thumbelf-000512\H-i686-cygwin32\bin/../lib/gcc-lib/thumb-elf/2.9-arm-000512/../../../../thumb-elf/lib/libg.a(freer.o)
 .debug_aranges
                0x00001400       0x20 C:\PROGRA~1\Cygnus\thumbelf-000512\H-i686-cygwin32\bin/../lib/gcc-lib/thumb-elf/2.9-arm-000512/../../../../thumb-elf/lib/libg.a(fvwrite.o)
 .debug_aranges
                0x00001420       0x20 C:\PROGRA~1\Cygnus\thumbelf-000512\H-i686-cygwin32\bin/../lib/gcc-lib/thumb-elf/2.9-arm-000512/../../../../thumb-elf/lib/libg.a(fwalk.o)
 .debug_aranges
                0x00001440       0x20 C:\PROGRA~1\Cygnus\thumbelf-000512\H-i686-cygwin32\bin/../lib/gcc-lib/thumb-elf/2.9-arm-000512/../../../../thumb-elf/lib/libg.a(locale.o)
 .debug_aranges
                0x00001460       0x20 C:\PROGRA~1\Cygnus\thumbelf-000512\H-i686-cygwin32\bin/../lib/gcc-lib/thumb-elf/2.9-arm-000512/../../../../thumb-elf/lib/libg.a(makebuf.o)
 .debug_aranges
                0x00001480       0x20 C:\PROGRA~1\Cygnus\thumbelf-000512\H-i686-cygwin32\bin/../lib/gcc-lib/thumb-elf/2.9-arm-000512/../../../../thumb-elf/lib/libg.a(mallocr.o)
 .debug_aranges
                0x000014a0       0x20 C:\PROGRA~1\Cygnus\thumbelf-000512\H-i686-cygwin32\bin/../lib/gcc-lib/thumb-elf/2.9-arm-000512/../../../../thumb-elf/lib/libg.a(mbtowc_r.o)
 .debug_aranges
                0x000014c0       0x20 C:\PROGRA~1\Cygnus\thumbelf-000512\H-i686-cygwin32\bin/../lib/gcc-lib/thumb-elf/2.9-arm-000512/../../../../thumb-elf/lib/libg.a(memchr.o)
 .debug_aranges
                0x000014e0       0x20 C:\PROGRA~1\Cygnus\thumbelf-000512\H-i686-cygwin32\bin/../lib/gcc-lib/thumb-elf/2.9-arm-000512/../../../../thumb-elf/lib/libg.a(memmove.o)
 .debug_aranges
                0x00001500       0x20 C:\PROGRA~1\Cygnus\thumbelf-000512\H-i686-cygwin32\bin/../lib/gcc-lib/thumb-elf/2.9-arm-000512/../../../../thumb-elf/lib/libg.a(mlock.o)
 .debug_aranges
                0x00001520       0x20 C:\PROGRA~1\Cygnus\thumbelf-000512\H-i686-cygwin32\bin/../lib/gcc-lib/thumb-elf/2.9-arm-000512/../../../../thumb-elf/lib/libg.a(sbrkr.o)
 .debug_aranges
                0x00001540       0x20 C:\PROGRA~1\Cygnus\thumbelf-000512\H-i686-cygwin32\bin/../lib/gcc-lib/thumb-elf/2.9-arm-000512/../../../../thumb-elf/lib/libg.a(stdio.o)
 .debug_aranges
                0x00001560       0x20 C:\PROGRA~1\Cygnus\thumbelf-000512\H-i686-cygwin32\bin/../lib/gcc-lib/thumb-elf/2.9-arm-000512/../../../../thumb-elf/lib/libg.a(strcmp.o)
 .debug_aranges
                0x00001580       0x20 C:\PROGRA~1\Cygnus\thumbelf-000512\H-i686-cygwin32\bin/../lib/gcc-lib/thumb-elf/2.9-arm-000512/../../../../thumb-elf/lib/libg.a(strlen.o)
 .debug_aranges
                0x000015a0       0x20 C:\PROGRA~1\Cygnus\thumbelf-000512\H-i686-cygwin32\bin/../lib/gcc-lib/thumb-elf/2.9-arm-000512/../../../../thumb-elf/lib/libg.a(syscalls.o)
 .debug_aranges
                0x000015c0       0x20 C:\PROGRA~1\Cygnus\thumbelf-000512\H-i686-cygwin32\bin/../lib/gcc-lib/thumb-elf/2.9-arm-000512/../../../../thumb-elf/lib/libg.a(writer.o)
 .debug_aranges
                0x000015e0       0x20 C:\PROGRA~1\Cygnus\thumbelf-000512\H-i686-cygwin32\bin/../lib/gcc-lib/thumb-elf/2.9-arm-000512/../../../../thumb-elf/lib/libg.a(closer.o)
 .debug_aranges
                0x00001600       0x20 C:\PROGRA~1\Cygnus\thumbelf-000512\H-i686-cygwin32\bin/../lib/gcc-lib/thumb-elf/2.9-arm-000512/../../../../thumb-elf/lib/libg.a(errno.o)
 .debug_aranges
                0x00001620       0x20 C:\PROGRA~1\Cygnus\thumbelf-000512\H-i686-cygwin32\bin/../lib/gcc-lib/thumb-elf/2.9-arm-000512/../../../../thumb-elf/lib/libg.a(fstatr.o)
 .debug_aranges
                0x00001640       0x20 C:\PROGRA~1\Cygnus\thumbelf-000512\H-i686-cygwin32\bin/../lib/gcc-lib/thumb-elf/2.9-arm-000512/../../../../thumb-elf/lib/libg.a(lseekr.o)
 .debug_aranges
                0x00001660       0x20 C:\PROGRA~1\Cygnus\thumbelf-000512\H-i686-cygwin32\bin/../lib/gcc-lib/thumb-elf/2.9-arm-000512/../../../../thumb-elf/lib/libg.a(readr.o)

.debug_pubnames
                0x00000000     0x916c
 *(.debug_pubnames)
 .debug_pubnames
                0x00000000       0x5f ba_effect.o
 .debug_pubnames
                0x0000005f      0x2a4 ba_player.o
 .debug_pubnames
                0x00000303       0x52 ba_reach.o
 .debug_pubnames
                0x00000355       0x7f cm_game.o
 .debug_pubnames
                0x000003d4       0x35 m_battle_rom_play.o
 .debug_pubnames
                0x00000409      0x185 m_classic_play.o
 .debug_pubnames
                0x0000058e      0x15c m_erase.o
 .debug_pubnames
                0x000006ea       0x70 m_game.o
 .debug_pubnames
                0x0000075a      0x75b m_game_sub.o
 .debug_pubnames
                0x00000eb5       0xa4 m_game_title.o
 .debug_pubnames
                0x00000f59      0x140 m_main.o
 .debug_pubnames
                0x00001099      0x146 m_opening.o
 .debug_pubnames
                0x000011df       0x3b m_score.o
 .debug_pubnames
                0x0000121a       0xab m_title.o
 .debug_pubnames
                0x000012c5      0x292 m_title_sub.o
 .debug_pubnames
                0x00001557      0x11c m_vs.o
 .debug_pubnames
                0x00001673       0x35 m_VsGame.o
 .debug_pubnames
                0x000016a8       0xb1 m_VsMain.o
 .debug_pubnames
                0x00001759       0x8e ua_char_set.o
 .debug_pubnames
                0x000017e7       0xb0 ua_course.o
 .debug_pubnames
                0x00001897       0xa8 ua_ending.o
 .debug_pubnames
                0x0000193f       0xfa ua_game.o
 .debug_pubnames
                0x00001a39       0x6e ua_game_over.o
 .debug_pubnames
                0x00001aa7       0x95 ua_pause.o
 .debug_pubnames
                0x00001b3c      0x100 ua_score.o
 .debug_pubnames
                0x00001c3c       0x71 ua_warp.o
 .debug_pubnames
                0x00001cad       0x91 um_bonus.o
 .debug_pubnames
                0x00001d3e       0x4a um_courseclear.o
 .debug_pubnames
                0x00001d88       0x4a um_select.o
 .debug_pubnames
                0x00001dd2      0x14f um_select_sub.o
 .debug_pubnames
                0x00001f21       0xe3 um_yossy.o
 .debug_pubnames
                0x00002004      0x353 up_common.o
 .debug_pubnames
                0x00002357      0x26e up_player.o
 .debug_pubnames
                0x000025c5       0x2c d_title_bros_obj_Huff.o
 .debug_pubnames
                0x000025f1       0x2c d_title_bros_bg_sch.o
 .debug_pubnames
                0x0000261d       0x2a d_title_maruc_ssc.o
 .debug_pubnames
                0x00002647       0x29 d_demo_maruc_ssc.o
 .debug_pubnames
                0x00002670       0x2d d_classic_obj_sch_Huff.o
 .debug_pubnames
                0x0000269d       0x2c d_classic_bg_sch_Huff.o
 .debug_pubnames
                0x000026c9       0x1f m_boot.o
 .debug_pubnames
                0x000026e8       0x8d m_sub.o
 .debug_pubnames
                0x00002775       0xb5 m_MultiSio.o
 .debug_pubnames
                0x0000282a       0x82 MultiBoot.o
 .debug_pubnames
                0x000028ac       0x55 m_bgcheck.o
 .debug_pubnames
                0x00002901       0x2e m_scroll.o
 .debug_pubnames
                0x0000292f      0x10f m_classic_sub.o
 .debug_pubnames
                0x00002a3e       0x87 ua_save.o
 .debug_pubnames
                0x00002ac5       0xa9 um_result.o
 .debug_pubnames
                0x00002b6e       0x45 um_math.o
 .debug_pubnames
                0x00002bb3       0x93 um_oamset.o
 .debug_pubnames
                0x00002c46       0x31 um_mosaic.o
 .debug_pubnames
                0x00002c77      0x123 um_coursecleardt.o
 .debug_pubnames
                0x00002d9a       0x37 cm_game_title.o
 .debug_pubnames
                0x00002dd1       0x9c ua_act.o
 .debug_pubnames
                0x00002e6d      0x2cb ua_common.o
 .debug_pubnames
                0x00003138      0x71b ua_commondt.o
 .debug_pubnames
                0x00003853       0x68 ua_bg.o
 .debug_pubnames
                0x000038bb       0x22 ua_unit_change.o
 .debug_pubnames
                0x000038dd       0xf9 ua_color.o
 .debug_pubnames
                0x000039d6       0x25 ua_bg3_set.o
 .debug_pubnames
                0x000039fb       0x43 ua_sort.o
 .debug_pubnames
                0x00003a3e       0x4f ua_eggmeter.o
 .debug_pubnames
                0x00003a8d       0x6d ba_act.o
 .debug_pubnames
                0x00003afa       0x3e ba_bgYuKa.o
 .debug_pubnames
                0x00003b38       0xd3 ba_bucket.o
 .debug_pubnames
                0x00003c0b       0x8e ba_Coin.o
 .debug_pubnames
                0x00003c99      0x1a1 ba_common.o
 .debug_pubnames
                0x00003e3a       0x39 ba_egg.o
 .debug_pubnames
                0x00003e73       0xcc ba_enFly.o
 .debug_pubnames
                0x00003f3f       0xf1 ba_enKani.o
 .debug_pubnames
                0x00004030      0x2a0 ba_enmy.o
 .debug_pubnames
                0x000042d0       0x24 ba_enNoko.o
 .debug_pubnames
                0x000042f4       0xc1 ba_enToge.o
 .debug_pubnames
                0x000043b5       0xdc ba_fire.o
 .debug_pubnames
                0x00004491       0x35 ba_fishBone.o
 .debug_pubnames
                0x000044c6       0x2f ba_heart.o
 .debug_pubnames
                0x000044f5      0x112 ba_ice.o
 .debug_pubnames
                0x00004607       0x94 ba_koura.o
 .debug_pubnames
                0x0000469b      0x2e4 ba_kuppa.o
 .debug_pubnames
                0x0000497f       0x60 ba_mutekiStar.o
 .debug_pubnames
                0x000049df       0x47 ba_PipeWave.o
 .debug_pubnames
                0x00004a26       0x30 ba_point.o
 .debug_pubnames
                0x00004a56       0x48 ba_pow.o
 .debug_pubnames
                0x00004a9e       0x32 ba_smoke.o
 .debug_pubnames
                0x00004ad0       0x3b ba_spark.o
 .debug_pubnames
                0x00004b0b       0x32 ba_splash.o
 .debug_pubnames
                0x00004b3d       0x2d ba_star.o
 .debug_pubnames
                0x00004b6a       0xeb ba_icicle.o
 .debug_pubnames
                0x00004c55       0x32 ba_powsmk.o
 .debug_pubnames
                0x00004c87       0x88 ua_fairy.o
 .debug_pubnames
                0x00004d0f       0x80 ua_walk.o
 .debug_pubnames
                0x00004d8f       0x32 ua_tori.o
 .debug_pubnames
                0x00004dc1       0x34 ua_huck0.o
 .debug_pubnames
                0x00004df5       0x45 ua_shoot.o
 .debug_pubnames
                0x00004e3a       0x54 ua_force.o
 .debug_pubnames
                0x00004e8e       0x44 ua_burn0.o
 .debug_pubnames
                0x00004ed2       0x42 ua_bird.o
 .debug_pubnames
                0x00004f14       0x34 ua_ninja.o
 .debug_pubnames
                0x00004f48       0x34 ua_ninj1.o
 .debug_pubnames
                0x00004f7c       0x34 ua_flyng.o
 .debug_pubnames
                0x00004fb0       0x76 ua_pigmo.o
 .debug_pubnames
                0x00005026       0x44 ua_fish0.o
 .debug_pubnames
                0x0000506a       0x42 ua_musi0.o
 .debug_pubnames
                0x000050ac       0x41 ua_tubo.o
 .debug_pubnames
                0x000050ed       0x42 ua_mask.o
 .debug_pubnames
                0x0000512f       0x43 ua_hebi0.o
 .debug_pubnames
                0x00005172       0x46 ua_hebi1.o
 .debug_pubnames
                0x000051b8       0x52 ua_sbten.o
 .debug_pubnames
                0x0000520a       0x57 ua_boss0.o
 .debug_pubnames
                0x00005261       0x44 ua_mikey.o
 .debug_pubnames
                0x000052a5      0x15e ua_ball1.o
 .debug_pubnames
                0x00005403       0x44 ua_snake.o
 .debug_pubnames
                0x00005447       0x9b ua_fire1.o
 .debug_pubnames
                0x000054e2       0x44 ua_bkani.o
 .debug_pubnames
                0x00005526       0x34 ua_flwer.o
 .debug_pubnames
                0x0000555a       0x54 ua_canon.o
 .debug_pubnames
                0x000055ae       0x44 ua_fnsui.o
 .debug_pubnames
                0x000055f2       0x34 ua_icemn.o
 .debug_pubnames
                0x00005626       0x76 ua_fireb.o
 .debug_pubnames
                0x0000569c       0x44 ua_mamuu.o
 .debug_pubnames
                0x000056e0       0x44 ua_bgkao.o
 .debug_pubnames
                0x00005724       0x52 ua_whats.o
 .debug_pubnames
                0x00005776       0x32 ua_wood.o
 .debug_pubnames
                0x000057a8       0x41 ua_exit.o
 .debug_pubnames
                0x000057e9       0xa2 ua_item.o
 .debug_pubnames
                0x0000588b       0x47 ua_rocket.o
 .debug_pubnames
                0x000058d2       0x2f ua_heart.o
 .debug_pubnames
                0x00005901       0xdb ua_door.o
 .debug_pubnames
                0x000059dc       0x6a ua_flag.o
 .debug_pubnames
                0x00005a46       0x22 ua_lmp0.o
 .debug_pubnames
                0x00005a68       0x4f ua_star.o
 .debug_pubnames
                0x00005ab7       0x22 ua_spae.o
 .debug_pubnames
                0x00005ad9       0x66 ua_pwbk.o
 .debug_pubnames
                0x00005b3f       0xb0 ua_bigboss.o
 .debug_pubnames
                0x00005bef       0x6f ua_gondola.o
 .debug_pubnames
                0x00005c5e       0x81 ua_gonboss.o
 .debug_pubnames
                0x00005cdf      0x222 ua_gondata.o
 .debug_pubnames
                0x00005f01       0x54 ua_cherry.o
 .debug_pubnames
                0x00005f55       0xa0 ua_gohoubi.o
 .debug_pubnames
                0x00005ff5       0x50 ua_toge.o
 .debug_pubnames
                0x00006045       0x75 ua_egg.o
 .debug_pubnames
                0x000060ba       0x53 ua_mask1.o
 .debug_pubnames
                0x0000610d      0x1cd ua_capsule.o
 .debug_pubnames
                0x000062da       0x60 ua_lift.o
 .debug_pubnames
                0x0000633a       0x62 ua_bubble.o
 .debug_pubnames
                0x0000639c       0x6b ua_sboss.o
 .debug_pubnames
                0x00006407       0x6d ua_itemball.o
 .debug_pubnames
                0x00006474       0x47 ua_mosaic.o
 .debug_pubnames
                0x000064bb       0x78 ua_coin.o
 .debug_pubnames
                0x00006533      0x25e ua_endat0a.o
 .debug_pubnames
                0x00006791      0x431 ua_endat0b.o
 .debug_pubnames
                0x00006bc2      0x6c8 ua_endt.o
 .debug_pubnames
                0x0000728a       0x95 ua_effect.o
 .debug_pubnames
                0x0000731f       0xbd ua_effectdt.o
 .debug_pubnames
                0x000073dc       0x53 ua_shock.o
 .debug_pubnames
                0x0000742f       0xb8 ua_stareffect.o
 .debug_pubnames
                0x000074e7       0x42 ua_bosseffect.o
 .debug_pubnames
                0x00007529       0x4d ua_cros.o
 .debug_pubnames
                0x00007576      0x533 up_commondt.o
 .debug_pubnames
                0x00007aa9      0x1eb up_exst.o
 .debug_pubnames
                0x00007c94       0x71 um_yscr.o
 .debug_pubnames
                0x00007d05       0x5e um_tscr.o
 .debug_pubnames
                0x00007d63       0x59 m_mini_malloc.o
 .debug_pubnames
                0x00007dbc      0x1da course_data.o
 .debug_pubnames
                0x00007f96      0x275 course_classic.o
 .debug_pubnames
                0x0000820b       0x26 d_bros_BG_scl.o
 .debug_pubnames
                0x00008231       0x2e d_Bros_obj_winner_scl.o
 .debug_pubnames
                0x0000825f       0x29 d_classic_bg_scl.o
 .debug_pubnames
                0x00008288       0x2a d_classic_obj_scl.o
 .debug_pubnames
                0x000082b2       0x2b d_classic_haikeiA_LZ.o
 .debug_pubnames
                0x000082dd       0x2b d_classic_haikeiB_LZ.o
 .debug_pubnames
                0x00008308       0x2b d_classic_haikeiC_LZ.o
 .debug_pubnames
                0x00008333       0x2b d_classic_haikeiD_LZ.o
 .debug_pubnames
                0x0000835e       0x2e d_classic_BGanime_sch.o
 .debug_pubnames
                0x0000838c       0x27 d_Bros_obj_scl.o
 .debug_pubnames
                0x000083b3      0x25e d_playerA_sob.o
 .debug_pubnames
                0x00008611      0x273 d_playerB_sob.o
 .debug_pubnames
                0x00008884       0x2c d_title_bros_bg_scl.o
 .debug_pubnames
                0x000088b0       0x29 d_title_kabe_ssc.o
 .debug_pubnames
                0x000088d9       0x29 d_title_waku_ssc.o
 .debug_pubnames
                0x00008902       0x2d d_title_bros_obj_scl.o
 .debug_pubnames
                0x0000892f       0x2c d_classic_bonus2_1_Huff.o
 .debug_pubnames
                0x0000895b       0x2c d_classic_bonus2_2_Huff.o
 .debug_pubnames
                0x00008987       0x2c d_classic_bonus2_3_Huff.o
 .debug_pubnames
                0x000089b3       0x2c d_classic_bonus2_4_Huff.o
 .debug_pubnames
                0x000089df       0x4b ud_course_data.o
 .debug_pubnames
                0x00008a2a       0xef C:/agb/lib//libagbbackup.a(AgbEeprom.o)
 .debug_pubnames
                0x00008b19       0x1f C:\PROGRA~1\Cygnus\thumbelf-000512\H-i686-cygwin32\bin/../lib/gcc-lib/thumb-elf/2.9-arm-000512/../../../../thumb-elf/lib/libg.a(assert.o)
 .debug_pubnames
                0x00008b38       0x1f C:\PROGRA~1\Cygnus\thumbelf-000512\H-i686-cygwin32\bin/../lib/gcc-lib/thumb-elf/2.9-arm-000512/../../../../thumb-elf/lib/libg.a(fiprintf.o)
 .debug_pubnames
                0x00008b57       0x22 C:\PROGRA~1\Cygnus\thumbelf-000512\H-i686-cygwin32\bin/../lib/gcc-lib/thumb-elf/2.9-arm-000512/../../../../thumb-elf/lib/libg.a(impure.o)
 .debug_pubnames
                0x00008b79       0x31 C:\PROGRA~1\Cygnus\thumbelf-000512\H-i686-cygwin32\bin/../lib/gcc-lib/thumb-elf/2.9-arm-000512/../../../../thumb-elf/lib/libg.a(libcfunc.o)
 .debug_pubnames
                0x00008baa       0x1d C:\PROGRA~1\Cygnus\thumbelf-000512\H-i686-cygwin32\bin/../lib/gcc-lib/thumb-elf/2.9-arm-000512/../../../../thumb-elf/lib/libg.a(memcpy.o)
 .debug_pubnames
                0x00008bc7       0x1d C:\PROGRA~1\Cygnus\thumbelf-000512\H-i686-cygwin32\bin/../lib/gcc-lib/thumb-elf/2.9-arm-000512/../../../../thumb-elf/lib/libg.a(memset.o)
 .debug_pubnames
                0x00008be4       0x31 C:\PROGRA~1\Cygnus\thumbelf-000512\H-i686-cygwin32\bin/../lib/gcc-lib/thumb-elf/2.9-arm-000512/../../../../thumb-elf/lib/libg.a(vfiprintf.o)
 .debug_pubnames
                0x00008c15       0x20 C:\PROGRA~1\Cygnus\thumbelf-000512\H-i686-cygwin32\bin/../lib/gcc-lib/thumb-elf/2.9-arm-000512/../../../../thumb-elf/lib/libg.a(wsetup.o)
 .debug_pubnames
                0x00008c35       0x1d C:\PROGRA~1\Cygnus\thumbelf-000512\H-i686-cygwin32\bin/../lib/gcc-lib/thumb-elf/2.9-arm-000512/../../../../thumb-elf/lib/libg.a(fflush.o)
 .debug_pubnames
                0x00008c52       0x55 C:\PROGRA~1\Cygnus\thumbelf-000512\H-i686-cygwin32\bin/../lib/gcc-lib/thumb-elf/2.9-arm-000512/../../../../thumb-elf/lib/libg.a(findfp.o)
 .debug_pubnames
                0x00008ca7       0x31 C:\PROGRA~1\Cygnus\thumbelf-000512\H-i686-cygwin32\bin/../lib/gcc-lib/thumb-elf/2.9-arm-000512/../../../../thumb-elf/lib/libg.a(freer.o)
 .debug_pubnames
                0x00008cd8       0x21 C:\PROGRA~1\Cygnus\thumbelf-000512\H-i686-cygwin32\bin/../lib/gcc-lib/thumb-elf/2.9-arm-000512/../../../../thumb-elf/lib/libg.a(fvwrite.o)
 .debug_pubnames
                0x00008cf9       0x1d C:\PROGRA~1\Cygnus\thumbelf-000512\H-i686-cygwin32\bin/../lib/gcc-lib/thumb-elf/2.9-arm-000512/../../../../thumb-elf/lib/libg.a(fwalk.o)
 .debug_pubnames
                0x00008d16       0x63 C:\PROGRA~1\Cygnus\thumbelf-000512\H-i686-cygwin32\bin/../lib/gcc-lib/thumb-elf/2.9-arm-000512/../../../../thumb-elf/lib/libg.a(locale.o)
 .debug_pubnames
                0x00008d79       0x21 C:\PROGRA~1\Cygnus\thumbelf-000512\H-i686-cygwin32\bin/../lib/gcc-lib/thumb-elf/2.9-arm-000512/../../../../thumb-elf/lib/libg.a(makebuf.o)
 .debug_pubnames
                0x00008d9a       0xce C:\PROGRA~1\Cygnus\thumbelf-000512\H-i686-cygwin32\bin/../lib/gcc-lib/thumb-elf/2.9-arm-000512/../../../../thumb-elf/lib/libg.a(mallocr.o)
 .debug_pubnames
                0x00008e68       0x20 C:\PROGRA~1\Cygnus\thumbelf-000512\H-i686-cygwin32\bin/../lib/gcc-lib/thumb-elf/2.9-arm-000512/../../../../thumb-elf/lib/libg.a(mbtowc_r.o)
 .debug_pubnames
                0x00008e88       0x1d C:\PROGRA~1\Cygnus\thumbelf-000512\H-i686-cygwin32\bin/../lib/gcc-lib/thumb-elf/2.9-arm-000512/../../../../thumb-elf/lib/libg.a(memchr.o)
 .debug_pubnames
                0x00008ea5       0x1e C:\PROGRA~1\Cygnus\thumbelf-000512\H-i686-cygwin32\bin/../lib/gcc-lib/thumb-elf/2.9-arm-000512/../../../../thumb-elf/lib/libg.a(memmove.o)
 .debug_pubnames
                0x00008ec3       0x38 C:\PROGRA~1\Cygnus\thumbelf-000512\H-i686-cygwin32\bin/../lib/gcc-lib/thumb-elf/2.9-arm-000512/../../../../thumb-elf/lib/libg.a(mlock.o)
 .debug_pubnames
                0x00008efb       0x28 C:\PROGRA~1\Cygnus\thumbelf-000512\H-i686-cygwin32\bin/../lib/gcc-lib/thumb-elf/2.9-arm-000512/../../../../thumb-elf/lib/libg.a(sbrkr.o)
 .debug_pubnames
                0x00008f23       0x44 C:\PROGRA~1\Cygnus\thumbelf-000512\H-i686-cygwin32\bin/../lib/gcc-lib/thumb-elf/2.9-arm-000512/../../../../thumb-elf/lib/libg.a(stdio.o)
 .debug_pubnames
                0x00008f67       0x1d C:\PROGRA~1\Cygnus\thumbelf-000512\H-i686-cygwin32\bin/../lib/gcc-lib/thumb-elf/2.9-arm-000512/../../../../thumb-elf/lib/libg.a(strcmp.o)
 .debug_pubnames
                0x00008f84       0x1d C:\PROGRA~1\Cygnus\thumbelf-000512\H-i686-cygwin32\bin/../lib/gcc-lib/thumb-elf/2.9-arm-000512/../../../../thumb-elf/lib/libg.a(strlen.o)
 .debug_pubnames
                0x00008fa1      0x113 C:\PROGRA~1\Cygnus\thumbelf-000512\H-i686-cygwin32\bin/../lib/gcc-lib/thumb-elf/2.9-arm-000512/../../../../thumb-elf/lib/libg.a(syscalls.o)
 .debug_pubnames
                0x000090b4       0x1f C:\PROGRA~1\Cygnus\thumbelf-000512\H-i686-cygwin32\bin/../lib/gcc-lib/thumb-elf/2.9-arm-000512/../../../../thumb-elf/lib/libg.a(writer.o)
 .debug_pubnames
                0x000090d3       0x1f C:\PROGRA~1\Cygnus\thumbelf-000512\H-i686-cygwin32\bin/../lib/gcc-lib/thumb-elf/2.9-arm-000512/../../../../thumb-elf/lib/libg.a(closer.o)
 .debug_pubnames
                0x000090f2       0x1e C:\PROGRA~1\Cygnus\thumbelf-000512\H-i686-cygwin32\bin/../lib/gcc-lib/thumb-elf/2.9-arm-000512/../../../../thumb-elf/lib/libg.a(errno.o)
 .debug_pubnames
                0x00009110       0x1f C:\PROGRA~1\Cygnus\thumbelf-000512\H-i686-cygwin32\bin/../lib/gcc-lib/thumb-elf/2.9-arm-000512/../../../../thumb-elf/lib/libg.a(fstatr.o)
 .debug_pubnames
                0x0000912f       0x1f C:\PROGRA~1\Cygnus\thumbelf-000512\H-i686-cygwin32\bin/../lib/gcc-lib/thumb-elf/2.9-arm-000512/../../../../thumb-elf/lib/libg.a(lseekr.o)
 .debug_pubnames
                0x0000914e       0x1e C:\PROGRA~1\Cygnus\thumbelf-000512\H-i686-cygwin32\bin/../lib/gcc-lib/thumb-elf/2.9-arm-000512/../../../../thumb-elf/lib/libg.a(readr.o)

.debug_info     0x00000000   0x68b7e7
 *(.debug_info)
 .debug_info    0x00000000     0x8e93 ba_effect.o
 .debug_info    0x00008e93     0xca19 ba_player.o
 .debug_info    0x000158ac     0x8e6b ba_reach.o
 .debug_info    0x0001e717     0x900f cm_game.o
 .debug_info    0x00027726     0x9320 m_battle_rom_play.o
 .debug_info    0x00030a46     0x9c4b m_classic_play.o
 .debug_info    0x0003a691     0x9464 m_erase.o
 .debug_info    0x00043af5     0x95f6 m_game.o
 .debug_info    0x0004d0eb     0xae62 m_game_sub.o
 .debug_info    0x00057f4d     0x97b7 m_game_title.o
 .debug_info    0x00061704     0x9b9e m_main.o
 .debug_info    0x0006b2a2     0xc4fa m_opening.o
 .debug_info    0x0007779c     0x8e3b m_score.o
 .debug_info    0x000805d7     0xac47 m_title.o
 .debug_info    0x0008b21e     0xbbcc m_title_sub.o
 .debug_info    0x00096dea     0xa4ed m_vs.o
 .debug_info    0x000a12d7     0x8ef9 m_VsGame.o
 .debug_info    0x000aa1d0     0x8ff7 m_VsMain.o
 .debug_info    0x000b31c7     0xa45e ua_char_set.o
 .debug_info    0x000bd625     0xaf65 ua_course.o
 .debug_info    0x000c858a     0xbd72 ua_ending.o
 .debug_info    0x000d42fc     0xb367 ua_game.o
 .debug_info    0x000df663     0xa8d7 ua_game_over.o
 .debug_info    0x000e9f3a     0xa834 ua_pause.o
 .debug_info    0x000f476e     0xadd0 ua_score.o
 .debug_info    0x000ff53e     0xa8c9 ua_warp.o
 .debug_info    0x00109e07     0xb3ce um_bonus.o
 .debug_info    0x001151d5     0xa6d8 um_courseclear.o
 .debug_info    0x0011f8ad     0xafbb um_select.o
 .debug_info    0x0012a868     0xaf67 um_select_sub.o
 .debug_info    0x001357cf     0xb740 um_yossy.o
 .debug_info    0x00140f0f     0xba8d up_common.o
 .debug_info    0x0014c99c     0xb8dc up_player.o
 .debug_info    0x00158278     0x2682 d_title_bros_obj_Huff.o
 .debug_info    0x0015a8fa     0x2d31 d_title_bros_bg_sch.o
 .debug_info    0x0015d62b     0x2d2d d_title_maruc_ssc.o
 .debug_info    0x00160358     0x2d2b d_demo_maruc_ssc.o
 .debug_info    0x00163083     0x2684 d_classic_obj_sch_Huff.o
 .debug_info    0x00165707     0x2682 d_classic_bg_sch_Huff.o
 .debug_info    0x00167d89     0xb712 m_boot.o
 .debug_info    0x0017349b     0x8ecc m_sub.o
 .debug_info    0x0017c367     0x9066 m_MultiSio.o
 .debug_info    0x001853cd     0x3118 MultiBoot.o
 .debug_info    0x001884e5     0x8eee m_bgcheck.o
 .debug_info    0x001913d3     0x8d86 m_scroll.o
 .debug_info    0x0019a159     0x90ac m_classic_sub.o
 .debug_info    0x001a3205     0x94d2 ua_save.o
 .debug_info    0x001ac6d7     0xb0de um_result.o
 .debug_info    0x001b77b5     0x2ec2 um_math.o
 .debug_info    0x001ba677     0xa935 um_oamset.o
 .debug_info    0x001c4fac     0xa486 um_mosaic.o
 .debug_info    0x001cf432     0x96cd um_coursecleardt.o
 .debug_info    0x001d8aff     0x8f20 cm_game_title.o
 .debug_info    0x001e1a1f     0xad26 ua_act.o
 .debug_info    0x001ec745     0xbdee ua_common.o
 .debug_info    0x001f8533     0xb6e2 ua_commondt.o
 .debug_info    0x00203c15     0x8ef7 ua_bg.o
 .debug_info    0x0020cb0c     0x8db3 ua_unit_change.o
 .debug_info    0x002158bf     0xa5e9 ua_color.o
 .debug_info    0x0021fea8     0x8fc9 ua_bg3_set.o
 .debug_info    0x00228e71     0xae32 ua_sort.o
 .debug_info    0x00233ca3     0xa650 ua_eggmeter.o
 .debug_info    0x0023e2f3     0x9b1a ba_act.o
 .debug_info    0x00247e0d     0x94b0 ba_bgYuKa.o
 .debug_info    0x002512bd     0x9b55 ba_bucket.o
 .debug_info    0x0025ae12     0x958e ba_Coin.o
 .debug_info    0x002643a0     0x9758 ba_common.o
 .debug_info    0x0026daf8     0x931a ba_egg.o
 .debug_info    0x00276e12     0x96a8 ba_enFly.o
 .debug_info    0x002804ba     0x9723 ba_enKani.o
 .debug_info    0x00289bdd     0x9ed9 ba_enmy.o
 .debug_info    0x00293ab6     0x8f9a ba_enNoko.o
 .debug_info    0x0029ca50     0x9668 ba_enToge.o
 .debug_info    0x002a60b8     0x9532 ba_fire.o
 .debug_info    0x002af5ea     0x8f1e ba_fishBone.o
 .debug_info    0x002b8508     0x8f5c ba_heart.o
 .debug_info    0x002c1464     0x9816 ba_ice.o
 .debug_info    0x002cac7a     0x958b ba_koura.o
 .debug_info    0x002d4205     0x9c3b ba_kuppa.o
 .debug_info    0x002dde40     0x8f4a ba_mutekiStar.o
 .debug_info    0x002e6d8a     0x923e ba_PipeWave.o
 .debug_info    0x002effc8     0x8ebd ba_point.o
 .debug_info    0x002f8e85     0x92b4 ba_pow.o
 .debug_info    0x00302139     0x8df1 ba_smoke.o
 .debug_info    0x0030af2a     0x90e6 ba_spark.o
 .debug_info    0x00314010     0x9072 ba_splash.o
 .debug_info    0x0031d082     0x8f44 ba_star.o
 .debug_info    0x00325fc6     0x9428 ba_icicle.o
 .debug_info    0x0032f3ee     0x8f6f ba_powsmk.o
 .debug_info    0x0033835d     0xa97c ua_fairy.o
 .debug_info    0x00342cd9     0xa8d8 ua_walk.o
 .debug_info    0x0034d5b1     0xa4fd ua_tori.o
 .debug_info    0x00357aae     0xa500 ua_huck0.o
 .debug_info    0x00361fae     0xa631 ua_shoot.o
 .debug_info    0x0036c5df     0xa72c ua_force.o
 .debug_info    0x00376d0b     0xa705 ua_burn0.o
 .debug_info    0x00381410     0xa6a3 ua_bird.o
 .debug_info    0x0038bab3     0xa561 ua_ninja.o
 .debug_info    0x00396014     0xa586 ua_ninj1.o
 .debug_info    0x003a059a     0xa576 ua_flyng.o
 .debug_info    0x003aab10     0xa93e ua_pigmo.o
 .debug_info    0x003b544e     0xa6ec ua_fish0.o
 .debug_info    0x003bfb3a     0xa5e4 ua_musi0.o
 .debug_info    0x003ca11e     0xa56a ua_tubo.o
 .debug_info    0x003d4688     0xa805 ua_mask.o
 .debug_info    0x003dee8d     0xa679 ua_hebi0.o
 .debug_info    0x003e9506     0xa56d ua_hebi1.o
 .debug_info    0x003f3a73     0xa751 ua_sbten.o
 .debug_info    0x003fe1c4     0xa928 ua_boss0.o
 .debug_info    0x00408aec     0xa809 ua_mikey.o
 .debug_info    0x004132f5     0xacc5 ua_ball1.o
 .debug_info    0x0041dfba     0xa7c7 ua_snake.o
 .debug_info    0x00428781     0xa808 ua_fire1.o
 .debug_info    0x00432f89     0xa87a ua_bkani.o
 .debug_info    0x0043d803     0xa556 ua_flwer.o
 .debug_info    0x00447d59     0xa792 ua_canon.o
 .debug_info    0x004524eb     0xa829 ua_fnsui.o
 .debug_info    0x0045cd14     0xa556 ua_icemn.o
 .debug_info    0x0046726a     0xaacb ua_fireb.o
 .debug_info    0x00471d35     0xa895 ua_mamuu.o
 .debug_info    0x0047c5ca     0xa7b1 ua_bgkao.o
 .debug_info    0x00486d7b     0xa6a8 ua_whats.o
 .debug_info    0x00491423     0xa4e8 ua_wood.o
 .debug_info    0x0049b90b     0xa7a0 ua_exit.o
 .debug_info    0x004a60ab     0xab04 ua_item.o
 .debug_info    0x004b0baf     0xa6c0 ua_rocket.o
 .debug_info    0x004bb26f     0xa5ab ua_heart.o
 .debug_info    0x004c581a     0xad79 ua_door.o
 .debug_info    0x004d0593     0xa6b5 ua_flag.o
 .debug_info    0x004dac48     0xa551 ua_lmp0.o
 .debug_info    0x004e5199     0xa880 ua_star.o
 .debug_info    0x004efa19     0xa5ba ua_spae.o
 .debug_info    0x004f9fd3     0xa9e9 ua_pwbk.o
 .debug_info    0x005049bc     0xaf91 ua_bigboss.o
 .debug_info    0x0050f94d     0xa694 ua_gondola.o
 .debug_info    0x00519fe1     0xa752 ua_gonboss.o
 .debug_info    0x00524733     0xa80b ua_gondata.o
 .debug_info    0x0052ef3e     0xa64f ua_cherry.o
 .debug_info    0x0053958d     0xab94 ua_gohoubi.o
 .debug_info    0x00544121     0xa57b ua_toge.o
 .debug_info    0x0054e69c     0xaaba ua_egg.o
 .debug_info    0x00559156     0xa5d0 ua_mask1.o
 .debug_info    0x00563726     0xac5d ua_capsule.o
 .debug_info    0x0056e383     0xa618 ua_lift.o
 .debug_info    0x0057899b     0xa788 ua_bubble.o
 .debug_info    0x00583123     0xa849 ua_sboss.o
 .debug_info    0x0058d96c     0xa630 ua_itemball.o
 .debug_info    0x00597f9c     0xa542 ua_mosaic.o
 .debug_info    0x005a24de     0xa9cf ua_coin.o
 .debug_info    0x005acead     0x343f ua_endat0a.o
 .debug_info    0x005b02ec     0x3972 ua_endat0b.o
 .debug_info    0x005b3c5e     0xb6ed ua_endt.o
 .debug_info    0x005bf34b     0xa8f5 ua_effect.o
 .debug_info    0x005c9c40     0x2efb ua_effectdt.o
 .debug_info    0x005ccb3b     0xa988 ua_shock.o
 .debug_info    0x005d74c3     0xab09 ua_stareffect.o
 .debug_info    0x005e1fcc     0xa5c3 ua_bosseffect.o
 .debug_info    0x005ec58f     0xadfa ua_cros.o
 .debug_info    0x005f7389     0xa297 up_commondt.o
 .debug_info    0x00601620     0xac62 up_exst.o
 .debug_info    0x0060c282     0x9b84 um_yscr.o
 .debug_info    0x00615e06     0x9a57 um_tscr.o
 .debug_info    0x0061f85d      0xbb2 m_mini_malloc.o
 .debug_info    0x0062040f     0x90d8 course_data.o
 .debug_info    0x006294e7     0x91da course_classic.o
 .debug_info    0x006326c1     0x2dc0 d_bros_BG_scl.o
 .debug_info    0x00635481     0x2dd0 d_Bros_obj_winner_scl.o
 .debug_info    0x00638251     0x2dc6 d_classic_bg_scl.o
 .debug_info    0x0063b017     0x2dc8 d_classic_obj_scl.o
 .debug_info    0x0063dddf     0x2dc3 d_classic_haikeiA_LZ.o
 .debug_info    0x00640ba2     0x2dc3 d_classic_haikeiB_LZ.o
 .debug_info    0x00643965     0x2dc3 d_classic_haikeiC_LZ.o
 .debug_info    0x00646728     0x2dc3 d_classic_haikeiD_LZ.o
 .debug_info    0x006494eb     0x2dd1 d_classic_BGanime_sch.o
 .debug_info    0x0064c2bc     0x2dc2 d_Bros_obj_scl.o
 .debug_info    0x0064f07e     0x324f d_playerA_sob.o
 .debug_info    0x006522cd     0x327b d_playerB_sob.o
 .debug_info    0x00655548     0x2dcc d_title_bros_bg_scl.o
 .debug_info    0x00658314     0x2dc7 d_title_kabe_ssc.o
 .debug_info    0x0065b0db     0x2dc7 d_title_waku_ssc.o
 .debug_info    0x0065dea2     0x2dce d_title_bros_obj_scl.o
 .debug_info    0x00660c70     0x2720 d_classic_bonus2_1_Huff.o
 .debug_info    0x00663390     0x2720 d_classic_bonus2_2_Huff.o
 .debug_info    0x00665ab0     0x2720 d_classic_bonus2_3_Huff.o
 .debug_info    0x006681d0     0x2720 d_classic_bonus2_4_Huff.o
 .debug_info    0x0066a8f0     0xa67f ud_course_data.o
 .debug_info    0x00674f6f     0x3280 C:/agb/lib//libagbbackup.a(AgbEeprom.o)
 .debug_info    0x006781ef      0x9b0 C:\PROGRA~1\Cygnus\thumbelf-000512\H-i686-cygwin32\bin/../lib/gcc-lib/thumb-elf/2.9-arm-000512/../../../../thumb-elf/lib/libg.a(assert.o)
 .debug_info    0x00678b9f      0x94a C:\PROGRA~1\Cygnus\thumbelf-000512\H-i686-cygwin32\bin/../lib/gcc-lib/thumb-elf/2.9-arm-000512/../../../../thumb-elf/lib/libg.a(fiprintf.o)
 .debug_info    0x006794e9      0x90d C:\PROGRA~1\Cygnus\thumbelf-000512\H-i686-cygwin32\bin/../lib/gcc-lib/thumb-elf/2.9-arm-000512/../../../../thumb-elf/lib/libg.a(impure.o)
 .debug_info    0x00679df6      0x1ab C:\PROGRA~1\Cygnus\thumbelf-000512\H-i686-cygwin32\bin/../lib/gcc-lib/thumb-elf/2.9-arm-000512/../../../../thumb-elf/lib/libg.a(libcfunc.o)
 .debug_info    0x00679fa1      0x24b C:\PROGRA~1\Cygnus\thumbelf-000512\H-i686-cygwin32\bin/../lib/gcc-lib/thumb-elf/2.9-arm-000512/../../../../thumb-elf/lib/libg.a(memcpy.o)
 .debug_info    0x0067a1ec      0x20d C:\PROGRA~1\Cygnus\thumbelf-000512\H-i686-cygwin32\bin/../lib/gcc-lib/thumb-elf/2.9-arm-000512/../../../../thumb-elf/lib/libg.a(memset.o)
 .debug_info    0x0067a3f9     0x1330 C:\PROGRA~1\Cygnus\thumbelf-000512\H-i686-cygwin32\bin/../lib/gcc-lib/thumb-elf/2.9-arm-000512/../../../../thumb-elf/lib/libg.a(vfiprintf.o)
 .debug_info    0x0067b729      0xb74 C:\PROGRA~1\Cygnus\thumbelf-000512\H-i686-cygwin32\bin/../lib/gcc-lib/thumb-elf/2.9-arm-000512/../../../../thumb-elf/lib/libg.a(wsetup.o)
 .debug_info    0x0067c29d      0xb2b C:\PROGRA~1\Cygnus\thumbelf-000512\H-i686-cygwin32\bin/../lib/gcc-lib/thumb-elf/2.9-arm-000512/../../../../thumb-elf/lib/libg.a(fflush.o)
 .debug_info    0x0067cdc8      0xca7 C:\PROGRA~1\Cygnus\thumbelf-000512\H-i686-cygwin32\bin/../lib/gcc-lib/thumb-elf/2.9-arm-000512/../../../../thumb-elf/lib/libg.a(findfp.o)
 .debug_info    0x0067da6f      0xe2d C:\PROGRA~1\Cygnus\thumbelf-000512\H-i686-cygwin32\bin/../lib/gcc-lib/thumb-elf/2.9-arm-000512/../../../../thumb-elf/lib/libg.a(freer.o)
 .debug_info    0x0067e89c      0xc18 C:\PROGRA~1\Cygnus\thumbelf-000512\H-i686-cygwin32\bin/../lib/gcc-lib/thumb-elf/2.9-arm-000512/../../../../thumb-elf/lib/libg.a(fvwrite.o)
 .debug_info    0x0067f4b4      0xbae C:\PROGRA~1\Cygnus\thumbelf-000512\H-i686-cygwin32\bin/../lib/gcc-lib/thumb-elf/2.9-arm-000512/../../../../thumb-elf/lib/libg.a(fwalk.o)
 .debug_info    0x00680062      0xc33 C:\PROGRA~1\Cygnus\thumbelf-000512\H-i686-cygwin32\bin/../lib/gcc-lib/thumb-elf/2.9-arm-000512/../../../../thumb-elf/lib/libg.a(locale.o)
 .debug_info    0x00680c95      0xd3f C:\PROGRA~1\Cygnus\thumbelf-000512\H-i686-cygwin32\bin/../lib/gcc-lib/thumb-elf/2.9-arm-000512/../../../../thumb-elf/lib/libg.a(makebuf.o)
 .debug_info    0x006819d4      0xf56 C:\PROGRA~1\Cygnus\thumbelf-000512\H-i686-cygwin32\bin/../lib/gcc-lib/thumb-elf/2.9-arm-000512/../../../../thumb-elf/lib/libg.a(mallocr.o)
 .debug_info    0x0068292a      0xb86 C:\PROGRA~1\Cygnus\thumbelf-000512\H-i686-cygwin32\bin/../lib/gcc-lib/thumb-elf/2.9-arm-000512/../../../../thumb-elf/lib/libg.a(mbtowc_r.o)
 .debug_info    0x006834b0      0x209 C:\PROGRA~1\Cygnus\thumbelf-000512\H-i686-cygwin32\bin/../lib/gcc-lib/thumb-elf/2.9-arm-000512/../../../../thumb-elf/lib/libg.a(memchr.o)
 .debug_info    0x006836b9      0x257 C:\PROGRA~1\Cygnus\thumbelf-000512\H-i686-cygwin32\bin/../lib/gcc-lib/thumb-elf/2.9-arm-000512/../../../../thumb-elf/lib/libg.a(memmove.o)
 .debug_info    0x00683910      0x9d1 C:\PROGRA~1\Cygnus\thumbelf-000512\H-i686-cygwin32\bin/../lib/gcc-lib/thumb-elf/2.9-arm-000512/../../../../thumb-elf/lib/libg.a(mlock.o)
 .debug_info    0x006842e1      0xaea C:\PROGRA~1\Cygnus\thumbelf-000512\H-i686-cygwin32\bin/../lib/gcc-lib/thumb-elf/2.9-arm-000512/../../../../thumb-elf/lib/libg.a(sbrkr.o)
 .debug_info    0x00684dcb      0xe8f C:\PROGRA~1\Cygnus\thumbelf-000512\H-i686-cygwin32\bin/../lib/gcc-lib/thumb-elf/2.9-arm-000512/../../../../thumb-elf/lib/libg.a(stdio.o)
 .debug_info    0x00685c5a      0x1a1 C:\PROGRA~1\Cygnus\thumbelf-000512\H-i686-cygwin32\bin/../lib/gcc-lib/thumb-elf/2.9-arm-000512/../../../../thumb-elf/lib/libg.a(strcmp.o)
 .debug_info    0x00685dfb      0x1ad C:\PROGRA~1\Cygnus\thumbelf-000512\H-i686-cygwin32\bin/../lib/gcc-lib/thumb-elf/2.9-arm-000512/../../../../thumb-elf/lib/libg.a(strlen.o)
 .debug_info    0x00685fa8     0x1833 C:\PROGRA~1\Cygnus\thumbelf-000512\H-i686-cygwin32\bin/../lib/gcc-lib/thumb-elf/2.9-arm-000512/../../../../thumb-elf/lib/libg.a(syscalls.o)
 .debug_info    0x006877db      0xb12 C:\PROGRA~1\Cygnus\thumbelf-000512\H-i686-cygwin32\bin/../lib/gcc-lib/thumb-elf/2.9-arm-000512/../../../../thumb-elf/lib/libg.a(writer.o)
 .debug_info    0x006882ed      0xadb C:\PROGRA~1\Cygnus\thumbelf-000512\H-i686-cygwin32\bin/../lib/gcc-lib/thumb-elf/2.9-arm-000512/../../../../thumb-elf/lib/libg.a(closer.o)
 .debug_info    0x00688dc8      0x91b C:\PROGRA~1\Cygnus\thumbelf-000512\H-i686-cygwin32\bin/../lib/gcc-lib/thumb-elf/2.9-arm-000512/../../../../thumb-elf/lib/libg.a(errno.o)
 .debug_info    0x006896e3      0xaf0 C:\PROGRA~1\Cygnus\thumbelf-000512\H-i686-cygwin32\bin/../lib/gcc-lib/thumb-elf/2.9-arm-000512/../../../../thumb-elf/lib/libg.a(fstatr.o)
 .debug_info    0x0068a1d3      0xb0b C:\PROGRA~1\Cygnus\thumbelf-000512\H-i686-cygwin32\bin/../lib/gcc-lib/thumb-elf/2.9-arm-000512/../../../../thumb-elf/lib/libg.a(lseekr.o)
 .debug_info    0x0068acde      0xb09 C:\PROGRA~1\Cygnus\thumbelf-000512\H-i686-cygwin32\bin/../lib/gcc-lib/thumb-elf/2.9-arm-000512/../../../../thumb-elf/lib/libg.a(readr.o)

.debug_abbrev   0x00000000    0x16d12
 *(.debug_abbrev)
 .debug_abbrev  0x00000000      0x1a1 ba_effect.o
 .debug_abbrev  0x000001a1      0x242 ba_player.o
 .debug_abbrev  0x000003e3      0x1b7 ba_reach.o
 .debug_abbrev  0x0000059a      0x1e8 cm_game.o
 .debug_abbrev  0x00000782      0x210 m_battle_rom_play.o
 .debug_abbrev  0x00000992      0x245 m_classic_play.o
 .debug_abbrev  0x00000bd7      0x23a m_erase.o
 .debug_abbrev  0x00000e11      0x1ef m_game.o
 .debug_abbrev  0x00001000      0x243 m_game_sub.o
 .debug_abbrev  0x00001243      0x22d m_game_title.o
 .debug_abbrev  0x00001470      0x24d m_main.o
 .debug_abbrev  0x000016bd      0x229 m_opening.o
 .debug_abbrev  0x000018e6      0x1cc m_score.o
 .debug_abbrev  0x00001ab2      0x221 m_title.o
 .debug_abbrev  0x00001cd3      0x216 m_title_sub.o
 .debug_abbrev  0x00001ee9      0x250 m_vs.o
 .debug_abbrev  0x00002139      0x1d8 m_VsGame.o
 .debug_abbrev  0x00002311      0x201 m_VsMain.o
 .debug_abbrev  0x00002512      0x1bb ua_char_set.o
 .debug_abbrev  0x000026cd      0x23e ua_course.o
 .debug_abbrev  0x0000290b      0x247 ua_ending.o
 .debug_abbrev  0x00002b52      0x271 ua_game.o
 .debug_abbrev  0x00002dc3      0x20b ua_game_over.o
 .debug_abbrev  0x00002fce      0x1e1 ua_pause.o
 .debug_abbrev  0x000031af      0x220 ua_score.o
 .debug_abbrev  0x000033cf      0x234 ua_warp.o
 .debug_abbrev  0x00003603      0x23e um_bonus.o
 .debug_abbrev  0x00003841      0x200 um_courseclear.o
 .debug_abbrev  0x00003a41      0x218 um_select.o
 .debug_abbrev  0x00003c59      0x210 um_select_sub.o
 .debug_abbrev  0x00003e69      0x23e um_yossy.o
 .debug_abbrev  0x000040a7      0x29f up_common.o
 .debug_abbrev  0x00004346      0x2af up_player.o
 .debug_abbrev  0x000045f5       0xc3 d_title_bros_obj_Huff.o
 .debug_abbrev  0x000046b8       0xfa d_title_bros_bg_sch.o
 .debug_abbrev  0x000047b2       0xfa d_title_maruc_ssc.o
 .debug_abbrev  0x000048ac       0xfa d_demo_maruc_ssc.o
 .debug_abbrev  0x000049a6       0xc3 d_classic_obj_sch_Huff.o
 .debug_abbrev  0x00004a69       0xc3 d_classic_bg_sch_Huff.o
 .debug_abbrev  0x00004b2c      0x1c2 m_boot.o
 .debug_abbrev  0x00004cee      0x1bf m_sub.o
 .debug_abbrev  0x00004ead      0x213 m_MultiSio.o
 .debug_abbrev  0x000050c0      0x1d1 MultiBoot.o
 .debug_abbrev  0x00005291      0x1b8 m_bgcheck.o
 .debug_abbrev  0x00005449      0x17f m_scroll.o
 .debug_abbrev  0x000055c8      0x1d9 m_classic_sub.o
 .debug_abbrev  0x000057a1      0x229 ua_save.o
 .debug_abbrev  0x000059ca      0x23e um_result.o
 .debug_abbrev  0x00005c08      0x13e um_math.o
 .debug_abbrev  0x00005d46      0x1f0 um_oamset.o
 .debug_abbrev  0x00005f36      0x19d um_mosaic.o
 .debug_abbrev  0x000060d3      0x164 um_coursecleardt.o
 .debug_abbrev  0x00006237      0x1e9 cm_game_title.o
 .debug_abbrev  0x00006420      0x277 ua_act.o
 .debug_abbrev  0x00006697      0x27e ua_common.o
 .debug_abbrev  0x00006915      0x193 ua_commondt.o
 .debug_abbrev  0x00006aa8      0x1b6 ua_bg.o
 .debug_abbrev  0x00006c5e      0x190 ua_unit_change.o
 .debug_abbrev  0x00006dee      0x21c ua_color.o
 .debug_abbrev  0x0000700a      0x1d0 ua_bg3_set.o
 .debug_abbrev  0x000071da      0x21a ua_sort.o
 .debug_abbrev  0x000073f4      0x1e9 ua_eggmeter.o
 .debug_abbrev  0x000075dd      0x1b7 ba_act.o
 .debug_abbrev  0x00007794      0x1f4 ba_bgYuKa.o
 .debug_abbrev  0x00007988      0x216 ba_bucket.o
 .debug_abbrev  0x00007b9e      0x216 ba_Coin.o
 .debug_abbrev  0x00007db4      0x272 ba_common.o
 .debug_abbrev  0x00008026      0x21a ba_egg.o
 .debug_abbrev  0x00008240      0x23e ba_enFly.o
 .debug_abbrev  0x0000847e      0x227 ba_enKani.o
 .debug_abbrev  0x000086a5      0x21e ba_enmy.o
 .debug_abbrev  0x000088c3      0x17f ba_enNoko.o
 .debug_abbrev  0x00008a42      0x227 ba_enToge.o
 .debug_abbrev  0x00008c69      0x240 ba_fire.o
 .debug_abbrev  0x00008ea9      0x1cd ba_fishBone.o
 .debug_abbrev  0x00009076      0x19f ba_heart.o
 .debug_abbrev  0x00009215      0x23e ba_ice.o
 .debug_abbrev  0x00009453      0x240 ba_koura.o
 .debug_abbrev  0x00009693      0x227 ba_kuppa.o
 .debug_abbrev  0x000098ba      0x1b7 ba_mutekiStar.o
 .debug_abbrev  0x00009a71      0x217 ba_PipeWave.o
 .debug_abbrev  0x00009c88      0x1c5 ba_point.o
 .debug_abbrev  0x00009e4d      0x231 ba_pow.o
 .debug_abbrev  0x0000a07e      0x1b7 ba_smoke.o
 .debug_abbrev  0x0000a235      0x1cc ba_spark.o
 .debug_abbrev  0x0000a401      0x1c5 ba_splash.o
 .debug_abbrev  0x0000a5c6      0x19f ba_star.o
 .debug_abbrev  0x0000a765      0x221 ba_icicle.o
 .debug_abbrev  0x0000a986      0x1c5 ba_powsmk.o
 .debug_abbrev  0x0000ab4b      0x223 ua_fairy.o
 .debug_abbrev  0x0000ad6e      0x1f6 ua_walk.o
 .debug_abbrev  0x0000af64      0x1bf ua_tori.o
 .debug_abbrev  0x0000b123      0x1bf ua_huck0.o
 .debug_abbrev  0x0000b2e2      0x1d4 ua_shoot.o
 .debug_abbrev  0x0000b4b6      0x1bf ua_force.o
 .debug_abbrev  0x0000b675      0x1bf ua_burn0.o
 .debug_abbrev  0x0000b834      0x1bf ua_bird.o
 .debug_abbrev  0x0000b9f3      0x1d6 ua_ninja.o
 .debug_abbrev  0x0000bbc9      0x1bf ua_ninj1.o
 .debug_abbrev  0x0000bd88      0x1bf ua_flyng.o
 .debug_abbrev  0x0000bf47      0x1fa ua_pigmo.o
 .debug_abbrev  0x0000c141      0x1bf ua_fish0.o
 .debug_abbrev  0x0000c300      0x1e5 ua_musi0.o
 .debug_abbrev  0x0000c4e5      0x1ae ua_tubo.o
 .debug_abbrev  0x0000c693      0x1d4 ua_mask.o
 .debug_abbrev  0x0000c867      0x1bf ua_hebi0.o
 .debug_abbrev  0x0000ca26      0x1bf ua_hebi1.o
 .debug_abbrev  0x0000cbe5      0x1bf ua_sbten.o
 .debug_abbrev  0x0000cda4      0x211 ua_boss0.o
 .debug_abbrev  0x0000cfb5      0x1eb ua_mikey.o
 .debug_abbrev  0x0000d1a0      0x1ec ua_ball1.o
 .debug_abbrev  0x0000d38c      0x1d4 ua_snake.o
 .debug_abbrev  0x0000d560      0x1bf ua_fire1.o
 .debug_abbrev  0x0000d71f      0x1e1 ua_bkani.o
 .debug_abbrev  0x0000d900      0x1bf ua_flwer.o
 .debug_abbrev  0x0000dabf      0x1d4 ua_canon.o
 .debug_abbrev  0x0000dc93      0x1d4 ua_fnsui.o
 .debug_abbrev  0x0000de67      0x1bf ua_icemn.o
 .debug_abbrev  0x0000e026      0x1fa ua_fireb.o
 .debug_abbrev  0x0000e220      0x1d4 ua_mamuu.o
 .debug_abbrev  0x0000e3f4      0x1d4 ua_bgkao.o
 .debug_abbrev  0x0000e5c8      0x1ed ua_whats.o
 .debug_abbrev  0x0000e7b5      0x1ae ua_wood.o
 .debug_abbrev  0x0000e963      0x1e7 ua_exit.o
 .debug_abbrev  0x0000eb4a      0x1fa ua_item.o
 .debug_abbrev  0x0000ed44      0x1bf ua_rocket.o
 .debug_abbrev  0x0000ef03      0x1bf ua_heart.o
 .debug_abbrev  0x0000f0c2      0x216 ua_door.o
 .debug_abbrev  0x0000f2d8      0x1bf ua_flag.o
 .debug_abbrev  0x0000f497      0x1bf ua_lmp0.o
 .debug_abbrev  0x0000f656      0x1bf ua_star.o
 .debug_abbrev  0x0000f815      0x1d6 ua_spae.o
 .debug_abbrev  0x0000f9eb      0x211 ua_pwbk.o
 .debug_abbrev  0x0000fbfc      0x237 ua_bigboss.o
 .debug_abbrev  0x0000fe33      0x1f0 ua_gondola.o
 .debug_abbrev  0x00010023      0x1d7 ua_gonboss.o
 .debug_abbrev  0x000101fa      0x182 ua_gondata.o
 .debug_abbrev  0x0001037c      0x1ec ua_cherry.o
 .debug_abbrev  0x00010568      0x20f ua_gohoubi.o
 .debug_abbrev  0x00010777      0x1b5 ua_toge.o
 .debug_abbrev  0x0001092c      0x232 ua_egg.o
 .debug_abbrev  0x00010b5e      0x1d7 ua_mask1.o
 .debug_abbrev  0x00010d35      0x227 ua_capsule.o
 .debug_abbrev  0x00010f5c      0x1d7 ua_lift.o
 .debug_abbrev  0x00011133      0x1ec ua_bubble.o
 .debug_abbrev  0x0001131f      0x1fa ua_sboss.o
 .debug_abbrev  0x00011519      0x1d7 ua_itemball.o
 .debug_abbrev  0x000116f0      0x1ae ua_mosaic.o
 .debug_abbrev  0x0001189e      0x1d4 ua_coin.o
 .debug_abbrev  0x00011a72      0x10b ua_endat0a.o
 .debug_abbrev  0x00011b7d      0x121 ua_endat0b.o
 .debug_abbrev  0x00011c9e      0x193 ua_endt.o
 .debug_abbrev  0x00011e31      0x244 ua_effect.o
 .debug_abbrev  0x00012075       0xfa ua_effectdt.o
 .debug_abbrev  0x0001216f      0x200 ua_shock.o
 .debug_abbrev  0x0001236f      0x21c ua_stareffect.o
 .debug_abbrev  0x0001258b      0x1ae ua_bosseffect.o
 .debug_abbrev  0x00012739      0x237 ua_cros.o
 .debug_abbrev  0x00012970      0x17c up_commondt.o
 .debug_abbrev  0x00012aec      0x21c up_exst.o
 .debug_abbrev  0x00012d08      0x237 um_yscr.o
 .debug_abbrev  0x00012f3f      0x202 um_tscr.o
 .debug_abbrev  0x00013141      0x158 m_mini_malloc.o
 .debug_abbrev  0x00013299      0x17c course_data.o
 .debug_abbrev  0x00013415      0x17c course_classic.o
 .debug_abbrev  0x00013591      0x101 d_bros_BG_scl.o
 .debug_abbrev  0x00013692      0x101 d_Bros_obj_winner_scl.o
 .debug_abbrev  0x00013793      0x101 d_classic_bg_scl.o
 .debug_abbrev  0x00013894      0x101 d_classic_obj_scl.o
 .debug_abbrev  0x00013995       0xfa d_classic_haikeiA_LZ.o
 .debug_abbrev  0x00013a8f       0xfa d_classic_haikeiB_LZ.o
 .debug_abbrev  0x00013b89       0xfa d_classic_haikeiC_LZ.o
 .debug_abbrev  0x00013c83       0xfa d_classic_haikeiD_LZ.o
 .debug_abbrev  0x00013d7d      0x101 d_classic_BGanime_sch.o
 .debug_abbrev  0x00013e7e      0x101 d_Bros_obj_scl.o
 .debug_abbrev  0x00013f7f      0x10b d_playerA_sob.o
 .debug_abbrev  0x0001408a      0x10b d_playerB_sob.o
 .debug_abbrev  0x00014195      0x101 d_title_bros_bg_scl.o
 .debug_abbrev  0x00014296      0x101 d_title_kabe_ssc.o
 .debug_abbrev  0x00014397      0x101 d_title_waku_ssc.o
 .debug_abbrev  0x00014498      0x101 d_title_bros_obj_scl.o
 .debug_abbrev  0x00014599       0xca d_classic_bonus2_1_Huff.o
 .debug_abbrev  0x00014663       0xca d_classic_bonus2_2_Huff.o
 .debug_abbrev  0x0001472d       0xca d_classic_bonus2_3_Huff.o
 .debug_abbrev  0x000147f7       0xca d_classic_bonus2_4_Huff.o
 .debug_abbrev  0x000148c1      0x197 ud_course_data.o
 .debug_abbrev  0x00014a58      0x1c8 C:/agb/lib//libagbbackup.a(AgbEeprom.o)
 .debug_abbrev  0x00014c20       0xff C:\PROGRA~1\Cygnus\thumbelf-000512\H-i686-cygwin32\bin/../lib/gcc-lib/thumb-elf/2.9-arm-000512/../../../../thumb-elf/lib/libg.a(assert.o)
 .debug_abbrev  0x00014d1f      0x111 C:\PROGRA~1\Cygnus\thumbelf-000512\H-i686-cygwin32\bin/../lib/gcc-lib/thumb-elf/2.9-arm-000512/../../../../thumb-elf/lib/libg.a(fiprintf.o)
 .debug_abbrev  0x00014e30       0xeb C:\PROGRA~1\Cygnus\thumbelf-000512\H-i686-cygwin32\bin/../lib/gcc-lib/thumb-elf/2.9-arm-000512/../../../../thumb-elf/lib/libg.a(impure.o)
 .debug_abbrev  0x00014f1b       0xce C:\PROGRA~1\Cygnus\thumbelf-000512\H-i686-cygwin32\bin/../lib/gcc-lib/thumb-elf/2.9-arm-000512/../../../../thumb-elf/lib/libg.a(libcfunc.o)
 .debug_abbrev  0x00014fe9       0x8b C:\PROGRA~1\Cygnus\thumbelf-000512\H-i686-cygwin32\bin/../lib/gcc-lib/thumb-elf/2.9-arm-000512/../../../../thumb-elf/lib/libg.a(memcpy.o)
 .debug_abbrev  0x00015074       0x7f C:\PROGRA~1\Cygnus\thumbelf-000512\H-i686-cygwin32\bin/../lib/gcc-lib/thumb-elf/2.9-arm-000512/../../../../thumb-elf/lib/libg.a(memset.o)
 .debug_abbrev  0x000150f3      0x1b3 C:\PROGRA~1\Cygnus\thumbelf-000512\H-i686-cygwin32\bin/../lib/gcc-lib/thumb-elf/2.9-arm-000512/../../../../thumb-elf/lib/libg.a(vfiprintf.o)
 .debug_abbrev  0x000152a6      0x117 C:\PROGRA~1\Cygnus\thumbelf-000512\H-i686-cygwin32\bin/../lib/gcc-lib/thumb-elf/2.9-arm-000512/../../../../thumb-elf/lib/libg.a(wsetup.o)
 .debug_abbrev  0x000153bd      0x126 C:\PROGRA~1\Cygnus\thumbelf-000512\H-i686-cygwin32\bin/../lib/gcc-lib/thumb-elf/2.9-arm-000512/../../../../thumb-elf/lib/libg.a(fflush.o)
 .debug_abbrev  0x000154e3      0x170 C:\PROGRA~1\Cygnus\thumbelf-000512\H-i686-cygwin32\bin/../lib/gcc-lib/thumb-elf/2.9-arm-000512/../../../../thumb-elf/lib/libg.a(findfp.o)
 .debug_abbrev  0x00015653      0x162 C:\PROGRA~1\Cygnus\thumbelf-000512\H-i686-cygwin32\bin/../lib/gcc-lib/thumb-elf/2.9-arm-000512/../../../../thumb-elf/lib/libg.a(freer.o)
 .debug_abbrev  0x000157b5      0x127 C:\PROGRA~1\Cygnus\thumbelf-000512\H-i686-cygwin32\bin/../lib/gcc-lib/thumb-elf/2.9-arm-000512/../../../../thumb-elf/lib/libg.a(fvwrite.o)
 .debug_abbrev  0x000158dc      0x123 C:\PROGRA~1\Cygnus\thumbelf-000512\H-i686-cygwin32\bin/../lib/gcc-lib/thumb-elf/2.9-arm-000512/../../../../thumb-elf/lib/libg.a(fwalk.o)
 .debug_abbrev  0x000159ff      0x141 C:\PROGRA~1\Cygnus\thumbelf-000512\H-i686-cygwin32\bin/../lib/gcc-lib/thumb-elf/2.9-arm-000512/../../../../thumb-elf/lib/libg.a(locale.o)
 .debug_abbrev  0x00015b40      0x113 C:\PROGRA~1\Cygnus\thumbelf-000512\H-i686-cygwin32\bin/../lib/gcc-lib/thumb-elf/2.9-arm-000512/../../../../thumb-elf/lib/libg.a(makebuf.o)
 .debug_abbrev  0x00015c53      0x16d C:\PROGRA~1\Cygnus\thumbelf-000512\H-i686-cygwin32\bin/../lib/gcc-lib/thumb-elf/2.9-arm-000512/../../../../thumb-elf/lib/libg.a(mallocr.o)
 .debug_abbrev  0x00015dc0      0x10c C:\PROGRA~1\Cygnus\thumbelf-000512\H-i686-cygwin32\bin/../lib/gcc-lib/thumb-elf/2.9-arm-000512/../../../../thumb-elf/lib/libg.a(mbtowc_r.o)
 .debug_abbrev  0x00015ecc       0x7e C:\PROGRA~1\Cygnus\thumbelf-000512\H-i686-cygwin32\bin/../lib/gcc-lib/thumb-elf/2.9-arm-000512/../../../../thumb-elf/lib/libg.a(memchr.o)
 .debug_abbrev  0x00015f4a       0x8b C:\PROGRA~1\Cygnus\thumbelf-000512\H-i686-cygwin32\bin/../lib/gcc-lib/thumb-elf/2.9-arm-000512/../../../../thumb-elf/lib/libg.a(memmove.o)
 .debug_abbrev  0x00015fd5       0xec C:\PROGRA~1\Cygnus\thumbelf-000512\H-i686-cygwin32\bin/../lib/gcc-lib/thumb-elf/2.9-arm-000512/../../../../thumb-elf/lib/libg.a(mlock.o)
 .debug_abbrev  0x000160c1      0x126 C:\PROGRA~1\Cygnus\thumbelf-000512\H-i686-cygwin32\bin/../lib/gcc-lib/thumb-elf/2.9-arm-000512/../../../../thumb-elf/lib/libg.a(sbrkr.o)
 .debug_abbrev  0x000161e7      0x122 C:\PROGRA~1\Cygnus\thumbelf-000512\H-i686-cygwin32\bin/../lib/gcc-lib/thumb-elf/2.9-arm-000512/../../../../thumb-elf/lib/libg.a(stdio.o)
 .debug_abbrev  0x00016309       0x72 C:\PROGRA~1\Cygnus\thumbelf-000512\H-i686-cygwin32\bin/../lib/gcc-lib/thumb-elf/2.9-arm-000512/../../../../thumb-elf/lib/libg.a(strcmp.o)
 .debug_abbrev  0x0001637b       0x72 C:\PROGRA~1\Cygnus\thumbelf-000512\H-i686-cygwin32\bin/../lib/gcc-lib/thumb-elf/2.9-arm-000512/../../../../thumb-elf/lib/libg.a(strlen.o)
 .debug_abbrev  0x000163ed      0x269 C:\PROGRA~1\Cygnus\thumbelf-000512\H-i686-cygwin32\bin/../lib/gcc-lib/thumb-elf/2.9-arm-000512/../../../../thumb-elf/lib/libg.a(syscalls.o)
 .debug_abbrev  0x00016656      0x12b C:\PROGRA~1\Cygnus\thumbelf-000512\H-i686-cygwin32\bin/../lib/gcc-lib/thumb-elf/2.9-arm-000512/../../../../thumb-elf/lib/libg.a(writer.o)
 .debug_abbrev  0x00016781      0x126 C:\PROGRA~1\Cygnus\thumbelf-000512\H-i686-cygwin32\bin/../lib/gcc-lib/thumb-elf/2.9-arm-000512/../../../../thumb-elf/lib/libg.a(closer.o)
 .debug_abbrev  0x000168a7       0xf9 C:\PROGRA~1\Cygnus\thumbelf-000512\H-i686-cygwin32\bin/../lib/gcc-lib/thumb-elf/2.9-arm-000512/../../../../thumb-elf/lib/libg.a(errno.o)
 .debug_abbrev  0x000169a0      0x126 C:\PROGRA~1\Cygnus\thumbelf-000512\H-i686-cygwin32\bin/../lib/gcc-lib/thumb-elf/2.9-arm-000512/../../../../thumb-elf/lib/libg.a(fstatr.o)
 .debug_abbrev  0x00016ac6      0x126 C:\PROGRA~1\Cygnus\thumbelf-000512\H-i686-cygwin32\bin/../lib/gcc-lib/thumb-elf/2.9-arm-000512/../../../../thumb-elf/lib/libg.a(lseekr.o)
 .debug_abbrev  0x00016bec      0x126 C:\PROGRA~1\Cygnus\thumbelf-000512\H-i686-cygwin32\bin/../lib/gcc-lib/thumb-elf/2.9-arm-000512/../../../../thumb-elf/lib/libg.a(readr.o)

.debug_line     0x00000000    0x6a39e
 *(.debug_line)
 .debug_line    0x00000000      0x278 ba_effect.o
 .debug_line    0x00000278     0x59b0 ba_player.o
 .debug_line    0x00005c28      0x3fe ba_reach.o
 .debug_line    0x00006026      0x876 cm_game.o
 .debug_line    0x0000689c      0x756 m_battle_rom_play.o
 .debug_line    0x00006ff2     0x1c72 m_classic_play.o
 .debug_line    0x00008c64      0x7d7 m_erase.o
 .debug_line    0x0000943b      0x4c7 m_game.o
 .debug_line    0x00009902     0x3367 m_game_sub.o
 .debug_line    0x0000cc69      0xef0 m_game_title.o
 .debug_line    0x0000db59      0xb86 m_main.o
 .debug_line    0x0000e6df     0x2d28 m_opening.o
 .debug_line    0x00011407      0x52d m_score.o
 .debug_line    0x00011934     0x1622 m_title.o
 .debug_line    0x00012f56     0x25d3 m_title_sub.o
 .debug_line    0x00015529     0x1ece m_vs.o
 .debug_line    0x000173f7      0x815 m_VsGame.o
 .debug_line    0x00017c0c      0x3b5 m_VsMain.o
 .debug_line    0x00017fc1      0x556 ua_char_set.o
 .debug_line    0x00018517     0x15a6 ua_course.o
 .debug_line    0x00019abd     0x28a1 ua_ending.o
 .debug_line    0x0001c35e     0x1fa5 ua_game.o
 .debug_line    0x0001e303      0x8cc ua_game_over.o
 .debug_line    0x0001ebcf      0x8df ua_pause.o
 .debug_line    0x0001f4ae      0xfd8 ua_score.o
 .debug_line    0x00020486      0x698 ua_warp.o
 .debug_line    0x00020b1e     0x131d um_bonus.o
 .debug_line    0x00021e3b      0x5e6 um_courseclear.o
 .debug_line    0x00022421      0xdde um_select.o
 .debug_line    0x000231ff     0x1106 um_select_sub.o
 .debug_line    0x00024305     0x1cf7 um_yossy.o
 .debug_line    0x00025ffc     0x2428 up_common.o
 .debug_line    0x00028424     0x2634 up_player.o
 .debug_line    0x0002aa58      0x36d m_boot.o
 .debug_line    0x0002adc5      0x3e0 m_sub.o
 .debug_line    0x0002b1a5      0x73d m_MultiSio.o
 .debug_line    0x0002b8e2      0x853 MultiBoot.o
 .debug_line    0x0002c135      0x31a m_bgcheck.o
 .debug_line    0x0002c44f      0x209 m_scroll.o
 .debug_line    0x0002c658      0x615 m_classic_sub.o
 .debug_line    0x0002cc6d     0x13c7 ua_save.o
 .debug_line    0x0002e034     0x1e6f um_result.o
 .debug_line    0x0002fea3      0x13b um_math.o
 .debug_line    0x0002ffde      0x4b7 um_oamset.o
 .debug_line    0x00030495      0x298 um_mosaic.o
 .debug_line    0x0003072d      0x40e cm_game_title.o
 .debug_line    0x00030b3b      0xcae ua_act.o
 .debug_line    0x000317e9     0x256a ua_common.o
 .debug_line    0x00033d53      0x459 ua_bg.o
 .debug_line    0x000341ac      0x21f ua_unit_change.o
 .debug_line    0x000343cb      0x76f ua_color.o
 .debug_line    0x00034b3a      0x361 ua_bg3_set.o
 .debug_line    0x00034e9b     0x1119 ua_sort.o
 .debug_line    0x00035fb4      0x47a ua_eggmeter.o
 .debug_line    0x0003642e      0x3fa ba_act.o
 .debug_line    0x00036828      0x841 ba_bgYuKa.o
 .debug_line    0x00037069      0xe91 ba_bucket.o
 .debug_line    0x00037efa      0xc5e ba_Coin.o
 .debug_line    0x00038b58      0xe5e ba_common.o
 .debug_line    0x000399b6      0x6e5 ba_egg.o
 .debug_line    0x0003a09b      0xe40 ba_enFly.o
 .debug_line    0x0003aedb      0xf42 ba_enKani.o
 .debug_line    0x0003be1d     0x11f4 ba_enmy.o
 .debug_line    0x0003d011      0x1fa ba_enNoko.o
 .debug_line    0x0003d20b      0xef2 ba_enToge.o
 .debug_line    0x0003e0fd      0xc35 ba_fire.o
 .debug_line    0x0003ed32      0x35d ba_fishBone.o
 .debug_line    0x0003f08f      0x4a3 ba_heart.o
 .debug_line    0x0003f532      0xf23 ba_ice.o
 .debug_line    0x00040455      0x971 ba_koura.o
 .debug_line    0x00040dc6      0xcce ba_kuppa.o
 .debug_line    0x00041a94      0x371 ba_mutekiStar.o
 .debug_line    0x00041e05      0x63d ba_PipeWave.o
 .debug_line    0x00042442      0x379 ba_point.o
 .debug_line    0x000427bb      0x975 ba_pow.o
 .debug_line    0x00043130      0x271 ba_smoke.o
 .debug_line    0x000433a1      0x581 ba_spark.o
 .debug_line    0x00043922      0x2ea ba_splash.o
 .debug_line    0x00043c0c      0x451 ba_star.o
 .debug_line    0x0004405d      0x6c6 ba_icicle.o
 .debug_line    0x00044723      0x34a ba_powsmk.o
 .debug_line    0x00044a6d      0x8ff ua_fairy.o
 .debug_line    0x0004536c      0x99e ua_walk.o
 .debug_line    0x00045d0a      0x39d ua_tori.o
 .debug_line    0x000460a7      0x2ee ua_huck0.o
 .debug_line    0x00046395      0x5fe ua_shoot.o
 .debug_line    0x00046993      0x749 ua_force.o
 .debug_line    0x000470dc      0x6e7 ua_burn0.o
 .debug_line    0x000477c3      0x5e6 ua_bird.o
 .debug_line    0x00047da9      0x3b6 ua_ninja.o
 .debug_line    0x0004815f      0x43e ua_ninj1.o
 .debug_line    0x0004859d      0x396 ua_flyng.o
 .debug_line    0x00048933      0xa71 ua_pigmo.o
 .debug_line    0x000493a4      0x567 ua_fish0.o
 .debug_line    0x0004990b      0x486 ua_musi0.o
 .debug_line    0x00049d91      0x37d ua_tubo.o
 .debug_line    0x0004a10e      0x67e ua_mask.o
 .debug_line    0x0004a78c      0x559 ua_hebi0.o
 .debug_line    0x0004ace5      0x43e ua_hebi1.o
 .debug_line    0x0004b123      0x679 ua_sbten.o
 .debug_line    0x0004b79c      0xa2d ua_boss0.o
 .debug_line    0x0004c1c9      0x6d9 ua_mikey.o
 .debug_line    0x0004c8a2      0xef2 ua_ball1.o
 .debug_line    0x0004d794      0x671 ua_snake.o
 .debug_line    0x0004de05      0x619 ua_fire1.o
 .debug_line    0x0004e41e      0x6fa ua_bkani.o
 .debug_line    0x0004eb18      0x3b6 ua_flwer.o
 .debug_line    0x0004eece      0x789 ua_canon.o
 .debug_line    0x0004f657      0x6f1 ua_fnsui.o
 .debug_line    0x0004fd48      0x3ee ua_icemn.o
 .debug_line    0x00050136      0x91b ua_fireb.o
 .debug_line    0x00050a51      0x789 ua_mamuu.o
 .debug_line    0x000511da      0x6f1 ua_bgkao.o
 .debug_line    0x000518cb      0x50e ua_whats.o
 .debug_line    0x00051dd9      0x2ee ua_wood.o
 .debug_line    0x000520c7      0x788 ua_exit.o
 .debug_line    0x0005284f      0xd62 ua_item.o
 .debug_line    0x000535b1      0x5aa ua_rocket.o
 .debug_line    0x00053b5b      0x4f2 ua_heart.o
 .debug_line    0x0005404d      0xe6e ua_door.o
 .debug_line    0x00054ebb      0x44d ua_flag.o
 .debug_line    0x00055308      0x4ef ua_lmp0.o
 .debug_line    0x000557f7      0x4e2 ua_star.o
 .debug_line    0x00055cd9      0x6fd ua_spae.o
 .debug_line    0x000563d6      0xcec ua_pwbk.o
 .debug_line    0x000570c2     0x119a ua_bigboss.o
 .debug_line    0x0005825c      0x45c ua_gondola.o
 .debug_line    0x000586b8      0x626 ua_gonboss.o
 .debug_line    0x00058cde      0x3d5 ua_cherry.o
 .debug_line    0x000590b3     0x119b ua_gohoubi.o
 .debug_line    0x0005a24e      0x3ca ua_toge.o
 .debug_line    0x0005a618      0xbb1 ua_egg.o
 .debug_line    0x0005b1c9      0x2ca ua_mask1.o
 .debug_line    0x0005b493      0x944 ua_capsule.o
 .debug_line    0x0005bdd7      0x445 ua_lift.o
 .debug_line    0x0005c21c      0x71e ua_bubble.o
 .debug_line    0x0005c93a      0xa47 ua_sboss.o
 .debug_line    0x0005d381      0x3f6 ua_itemball.o
 .debug_line    0x0005d777      0x2d8 ua_mosaic.o
 .debug_line    0x0005da4f      0x6ab ua_coin.o
 .debug_line    0x0005e0fa      0x79e ua_effect.o
 .debug_line    0x0005e898      0x893 ua_shock.o
 .debug_line    0x0005f12b      0x865 ua_stareffect.o
 .debug_line    0x0005f990      0x3b7 ua_bosseffect.o
 .debug_line    0x0005fd47      0xcd6 ua_cros.o
 .debug_line    0x00060a1d      0x836 up_exst.o
 .debug_line    0x00061253      0x902 um_yscr.o
 .debug_line    0x00061b55      0x488 um_tscr.o
 .debug_line    0x00061fdd      0x635 m_mini_malloc.o
 .debug_line    0x00062612      0x4fa C:/agb/lib//libagbbackup.a(AgbEeprom.o)
 .debug_line    0x00062b0c      0x33c C:\PROGRA~1\Cygnus\thumbelf-000512\H-i686-cygwin32\bin/../lib/gcc-lib/thumb-elf/2.9-arm-000512/../../../../thumb-elf/lib/libg.a(assert.o)
 .debug_line    0x00062e48      0x2e9 C:\PROGRA~1\Cygnus\thumbelf-000512\H-i686-cygwin32\bin/../lib/gcc-lib/thumb-elf/2.9-arm-000512/../../../../thumb-elf/lib/libg.a(fiprintf.o)
 .debug_line    0x00063131       0xe3 C:\PROGRA~1\Cygnus\thumbelf-000512\H-i686-cygwin32\bin/../lib/gcc-lib/thumb-elf/2.9-arm-000512/../../../../thumb-elf/lib/libg.a(libcfunc.o)
 .debug_line    0x00063214      0x1e5 C:\PROGRA~1\Cygnus\thumbelf-000512\H-i686-cygwin32\bin/../lib/gcc-lib/thumb-elf/2.9-arm-000512/../../../../thumb-elf/lib/libg.a(memcpy.o)
 .debug_line    0x000633f9      0x20d C:\PROGRA~1\Cygnus\thumbelf-000512\H-i686-cygwin32\bin/../lib/gcc-lib/thumb-elf/2.9-arm-000512/../../../../thumb-elf/lib/libg.a(memset.o)
 .debug_line    0x00063606      0xb33 C:\PROGRA~1\Cygnus\thumbelf-000512\H-i686-cygwin32\bin/../lib/gcc-lib/thumb-elf/2.9-arm-000512/../../../../thumb-elf/lib/libg.a(vfiprintf.o)
 .debug_line    0x00064139      0x482 C:\PROGRA~1\Cygnus\thumbelf-000512\H-i686-cygwin32\bin/../lib/gcc-lib/thumb-elf/2.9-arm-000512/../../../../thumb-elf/lib/libg.a(wsetup.o)
 .debug_line    0x000645bb      0x41e C:\PROGRA~1\Cygnus\thumbelf-000512\H-i686-cygwin32\bin/../lib/gcc-lib/thumb-elf/2.9-arm-000512/../../../../thumb-elf/lib/libg.a(fflush.o)
 .debug_line    0x000649d9      0x612 C:\PROGRA~1\Cygnus\thumbelf-000512\H-i686-cygwin32\bin/../lib/gcc-lib/thumb-elf/2.9-arm-000512/../../../../thumb-elf/lib/libg.a(findfp.o)
 .debug_line    0x00064feb      0x596 C:\PROGRA~1\Cygnus\thumbelf-000512\H-i686-cygwin32\bin/../lib/gcc-lib/thumb-elf/2.9-arm-000512/../../../../thumb-elf/lib/libg.a(freer.o)
 .debug_line    0x00065581      0x61a C:\PROGRA~1\Cygnus\thumbelf-000512\H-i686-cygwin32\bin/../lib/gcc-lib/thumb-elf/2.9-arm-000512/../../../../thumb-elf/lib/libg.a(fvwrite.o)
 .debug_line    0x00065b9b      0x431 C:\PROGRA~1\Cygnus\thumbelf-000512\H-i686-cygwin32\bin/../lib/gcc-lib/thumb-elf/2.9-arm-000512/../../../../thumb-elf/lib/libg.a(fwalk.o)
 .debug_line    0x00065fcc      0x34a C:\PROGRA~1\Cygnus\thumbelf-000512\H-i686-cygwin32\bin/../lib/gcc-lib/thumb-elf/2.9-arm-000512/../../../../thumb-elf/lib/libg.a(locale.o)
 .debug_line    0x00066316      0x511 C:\PROGRA~1\Cygnus\thumbelf-000512\H-i686-cygwin32\bin/../lib/gcc-lib/thumb-elf/2.9-arm-000512/../../../../thumb-elf/lib/libg.a(makebuf.o)
 .debug_line    0x00066827      0x84c C:\PROGRA~1\Cygnus\thumbelf-000512\H-i686-cygwin32\bin/../lib/gcc-lib/thumb-elf/2.9-arm-000512/../../../../thumb-elf/lib/libg.a(mallocr.o)
 .debug_line    0x00067073      0x310 C:\PROGRA~1\Cygnus\thumbelf-000512\H-i686-cygwin32\bin/../lib/gcc-lib/thumb-elf/2.9-arm-000512/../../../../thumb-elf/lib/libg.a(mbtowc_r.o)
 .debug_line    0x00067383      0x22d C:\PROGRA~1\Cygnus\thumbelf-000512\H-i686-cygwin32\bin/../lib/gcc-lib/thumb-elf/2.9-arm-000512/../../../../thumb-elf/lib/libg.a(memchr.o)
 .debug_line    0x000675b0      0x226 C:\PROGRA~1\Cygnus\thumbelf-000512\H-i686-cygwin32\bin/../lib/gcc-lib/thumb-elf/2.9-arm-000512/../../../../thumb-elf/lib/libg.a(memmove.o)
 .debug_line    0x000677d6      0x279 C:\PROGRA~1\Cygnus\thumbelf-000512\H-i686-cygwin32\bin/../lib/gcc-lib/thumb-elf/2.9-arm-000512/../../../../thumb-elf/lib/libg.a(mlock.o)
 .debug_line    0x00067a4f      0x2f3 C:\PROGRA~1\Cygnus\thumbelf-000512\H-i686-cygwin32\bin/../lib/gcc-lib/thumb-elf/2.9-arm-000512/../../../../thumb-elf/lib/libg.a(sbrkr.o)
 .debug_line    0x00067d42      0x51a C:\PROGRA~1\Cygnus\thumbelf-000512\H-i686-cygwin32\bin/../lib/gcc-lib/thumb-elf/2.9-arm-000512/../../../../thumb-elf/lib/libg.a(stdio.o)
 .debug_line    0x0006825c      0x1bd C:\PROGRA~1\Cygnus\thumbelf-000512\H-i686-cygwin32\bin/../lib/gcc-lib/thumb-elf/2.9-arm-000512/../../../../thumb-elf/lib/libg.a(strcmp.o)
 .debug_line    0x00068419      0x19d C:\PROGRA~1\Cygnus\thumbelf-000512\H-i686-cygwin32\bin/../lib/gcc-lib/thumb-elf/2.9-arm-000512/../../../../thumb-elf/lib/libg.a(strlen.o)
 .debug_line    0x000685b6      0xcb1 C:\PROGRA~1\Cygnus\thumbelf-000512\H-i686-cygwin32\bin/../lib/gcc-lib/thumb-elf/2.9-arm-000512/../../../../thumb-elf/lib/libg.a(syscalls.o)
 .debug_line    0x00069267      0x2f4 C:\PROGRA~1\Cygnus\thumbelf-000512\H-i686-cygwin32\bin/../lib/gcc-lib/thumb-elf/2.9-arm-000512/../../../../thumb-elf/lib/libg.a(writer.o)
 .debug_line    0x0006955b      0x2f4 C:\PROGRA~1\Cygnus\thumbelf-000512\H-i686-cygwin32\bin/../lib/gcc-lib/thumb-elf/2.9-arm-000512/../../../../thumb-elf/lib/libg.a(closer.o)
 .debug_line    0x0006984f      0x274 C:\PROGRA~1\Cygnus\thumbelf-000512\H-i686-cygwin32\bin/../lib/gcc-lib/thumb-elf/2.9-arm-000512/../../../../thumb-elf/lib/libg.a(errno.o)
 .debug_line    0x00069ac3      0x2f4 C:\PROGRA~1\Cygnus\thumbelf-000512\H-i686-cygwin32\bin/../lib/gcc-lib/thumb-elf/2.9-arm-000512/../../../../thumb-elf/lib/libg.a(fstatr.o)
 .debug_line    0x00069db7      0x2f4 C:\PROGRA~1\Cygnus\thumbelf-000512\H-i686-cygwin32\bin/../lib/gcc-lib/thumb-elf/2.9-arm-000512/../../../../thumb-elf/lib/libg.a(lseekr.o)
 .debug_line    0x0006a0ab      0x2f3 C:\PROGRA~1\Cygnus\thumbelf-000512\H-i686-cygwin32\bin/../lib/gcc-lib/thumb-elf/2.9-arm-000512/../../../../thumb-elf/lib/libg.a(readr.o)

.debug_frame
 *(.debug_frame)

.debug_str
 *(.debug_str)

.debug_loc
 *(.debug_loc)

.debug_macinfo
 *(.debug_macinfo)

.debug_weaknames
 *(.debug_weaknames)

.debug_funcnames
 *(.debug_funcnames)

.debug_typenames
 *(.debug_typenames)

.debug_varnames
 *(.debug_varnames)

.stack          0x00080000        0x0
                0x00080000                _stack=.
 *(.stack)
OUTPUT(mariousa.elf elf32-littlearm)
@


1.1
log
@Initial revision
@
text
@d674 6
a807 1
LOAD d_classic_bg_sch_Huff.o
a808 1
LOAD d_classic_obj_sch_Huff.o
a817 1
LOAD d_title_bros_bg_sch.o
a820 2
LOAD d_title_maruc_ssc.o
LOAD d_title_bros_obj_Huff.o
a825 1
LOAD d_demo_maruc_ssc.o
d1444 1
a1444 1
.text           0x08000000    0xb94c8
d1454 1
a1454 1
 .text          0x08000398     0xa298 ba_player.o
d1458 1
a1458 1
                0x0800994c                player_OamSet
d1462 2
a1463 2
                0x0800a170                player_main
                0x08009584                BattleLoseDisp
d1465 1
a1465 1
                0x080096ac                PlayerCountDisp
d1469 1140
a2608 1139
 .text          0x0800a630      0x504 ba_reach.o
                0x0800a6cc                reach_main
                0x0800a630                MakeReach
 .text          0x0800ab34      0xf84 cm_game.o
                0x0800ab34                multi_error
                0x0800ad2c                SioError
                0x0800ae8c                cmGm_Main
 .text          0x0800bab8      0xdd0 m_battle_rom_play.o
                0x0800c844                multi_play
 .text          0x0800c888     0x41f0 m_classic_play.o
                0x08010a48                game_play
 .text          0x08010a78      0xf90 m_erase.o
                0x08011420                erase_check
 .text          0x08011a08      0x5fc m_game.o
                0x08011d48                mGm_Main
                0x08011f80                V_blank_wait
 .text          0x08012004     0x7b60 m_game_sub.o
                0x08014008                TotalDisp
                0x08017470                GrayColorSet
                0x08018ecc                BattleGame_play_TotalScore_Win
                0x08014288                WinnerCoinFlashReset
                0x0801412c                WinnerColorSet
                0x08015324                TudukeruOAM
                0x0801335c                VramInit
                0x08015c64                ScoreWinCountOamset
                0x080180a0                BattleGame_play_score
                0x08017a7c                BattleGame_play_Vscroll
                0x08017f7c                BattleGame_play_winMoji
                0x08015580                WinCountUP
                0x08015620                WinCountFlashSet
                0x08017574                game_OAMSET
                0x08015188                PushStartOAM
                0x0801483c                WinLoseFace
                0x08017f08                BattleGame_play_winFace
                0x08019198                BrosBGCoinAnime
                0x08015478                HajimekaraOAM
                0x080192fc                BrosBGWaterFace
                0x08019404                PlacardOamSet
                0x080178fc                BattleGame_play_winPLNumbarDisp
                0x08019688                HajimekaraRamReset
                0x080195dc                PLNumPlacard
                0x08019a70                PlayerLoseFaceOamSet
                0x08017ff0                BattleGame_play_winWait
                0x08017768                BattleGame_play_main
                0x08012088                BrosPause
                0x08018424                FillCharacter
                0x08017650                BattleGame_roundDisp
                0x08015b38                PlayerNumberSet
                0x08012760                GetCoinBGWrite
                0x08018d4c                BattleGame_play_TotalScore
                0x08018478                BattleGame_play_RoundOut
                0x08013d14                RoundDispSUB
                0x08018154                BattleGame_play_Hscroll
                0x08018a30                BattleGame_play_WinCountUP
                0x080177cc                BattleGame_play_winInit
                0x080182c4                BattleGame_play_TotalScoreWait
                0x08015f60                TotalScoreOAM
                0x08014360                WinnerCoinFlash
                0x08017c30                BattleGame_play_winPLNumbarOut
                0x08014abc                game_play_VscrollSUB
                0x08014bc0                WinnerPlayerNo
                0x08014e50                ScoreBoxDraw
                0x080188a0                BattleGame_play_TotalIn
                0x08019874                StripeCharSet
                0x08013078                CoinWrite
                0x08018fb0                BattleGame_play_WinLose
                0x08014518                WinOAMSET
                0x08015014                game_play_scoreInitSUB
                0x08018b94                BattleGame_play_TotalWait
 .text          0x08019b64     0x1fb8 m_game_title.o
                0x08019e0c                Frame_ColChang
                0x08019c50                TitleLogo_Set
                0x0801b604                game_title
                0x0801a60c                Player_ObjSet
                0x08019ecc                PushStart_Write
 .text          0x0801bb1c     0x1414 m_main.o
                0x0801cb58                ObjVanishTemp
                0x0801cabc                VCountIntr
                0x0801c4a0                VBlankIntr
                0x0801ca80                HBlankIntr
                0x0801caf8                ObjVanishAll
                0x0801cbb8                KeyRead
                0x0801cf04                mGm_FREE_usa_game
                0x0801cea4                mGm_MALLOC_usa_game
                0x0801bb1c                AgbMain
 .text          0x0801cf30     0x61b0 m_opening.o
                0x0801fed4                Opening_Main
                0x08021674                op_go_to_4
                0x08021884                mGm_FREE_p_opn
                0x08021824                mGm_MALLOC_p_opn
                0x0801cf30                open_obj_init
 .text          0x080230e0      0x76c m_score.o
                0x080230e0                ScoreInit
                0x08023390                ScoreMain
 .text          0x0802384c     0x2e5c m_title.o
                0x0802384c                M_title
 .text          0x080266a8     0x5aa8 m_title_sub.o
                0x0802ba88                File_Extra
                0x0802bd20                File_World
                0x08029500                objmove_USA_heart
                0x0802b6b8                FileData_Set
                0x0802bf3c                File_New
                0x08027054                objmove_USA_door
                0x0802c124                mGm_FREE_p_tsl
                0x0802757c                objmove_Bros_title
                0x08028e2c                objmove_USA_burn
                0x08027f48                objmove_USA_egg
                0x08027da4                objmove_USA_smokbomb
                0x0802936c                objmove_USA_smok
                0x0802ab90                objoam_bomb
                0x08027394                objmove_Cursol
                0x08026ed4                objmove_Hi_score
                0x0802b390                objoam_shade
                0x080276bc                objmove_Mario
                0x08027214                objmove_Bros_pipe
                0x08029610                objmove_fail
                0x080277e0                objmove_USA_casalin
                0x08029740                objoam_common
                0x0802ae28                objoam_door
                0x0802c0c4                mGm_MALLOC_p_tsl
                0x0802b0d4                objoam_pipe
                0x080287f8                objmove_USA_bomb
                0x08029be8                Hi_score_oamset
                0x080273ec                objmove_USA_title
                0x08029728                objmove_dummy
 .text          0x0802c150     0x429c m_vs.o
                0x0803030c                vs_game
 .text          0x080303ec      0xf70 m_VsGame.o
                0x080305a4                VsClassicGame
 .text          0x0803135c      0x4bc m_VsMain.o
                0x0803135c                VBlankIntr2
                0x080317bc                ChildMain
 .text          0x08031818      0xe3c ua_char_set.o
                0x08032510                m_ending_char1_set
                0x080324cc                m_ending_char_set
                0x08031818                game_char_set
                0x080322c0                tubo_char_set
                0x08032430                m_warp_char_set
                0x080325b4                m_ending_char2_set
 .text          0x08032654     0x3fac ua_course.o
                0x08034214                m_scroll_BG_chenge
                0x08034c18                m_course_init
                0x080365b4                one_room_out_set
                0x08036588                one_room_in_set
                0x08034a24                cos_vram_set
 .text          0x08036600     0x7600 ua_ending.o
                0x08038484                MU_ending
                0x080383b0                end_timer
 .text          0x0803dc00     0x4534 ua_game.o
                0x0803e218                M_game_play
                0x08041ec4                BGM_RETURN
                0x0804134c                ENDTSV
                0x08041dcc                DebugMode_RamClear
                0x08040780                FLAGCLR
                0x080408ec                fade_in_parameter_set
                0x08040504                FLGCLEAR
                0x080405ac                FLGCLEAR2
                0x080409a4                fade_out_parameter_set
                0x080401a4                game_mode_check
 .text          0x08042134     0x10f8 ua_game_over.o
                0x080426b8                over_open
                0x0804252c                game_over_disp
                0x08042810                over_key_wait
                0x080421e0                game_over_init
 .text          0x0804322c     0x12a8 ua_pause.o
                0x080439f4                pause
                0x080442f0                pause_fade_out
                0x0804322c                pause_oam_set
                0x08043658                pause_init
                0x080440dc                pause_close
                0x08043f7c                pause_timer
                0x08043894                pause_open
 .text          0x080444d4     0x1bd0 ua_score.o
                0x0804486c                SPOINT_SET
                0x0804478c                EGGSCORE_SET
                0x08045ab8                u_score_disp
                0x080453ac                spoint_move
                0x080444d4                m_score_clear
                0x080456bc                oneup_move
                0x08044d04                score_check
                0x08044a54                ONEUP_SET
                0x080449bc                POINT100_SET
                0x080459d0                hanabi_move
                0x0804504c                pl_score_check
                0x08045468                bpoint_move
 .text          0x080460a4      0xc64 ua_warp.o
                0x080460a4                wave_init
                0x08046cd8                M_game_warp
 .text          0x08046d08     0x2c10 um_bonus.o
                0x080476c8                M_game_bonus
                0x080497ac                redcoin_flagset
                0x080498ec                mGm_FREE_SlotDt
                0x0804988c                mGm_MALLOC_SlotDt
 .text          0x08049918      0x660 um_courseclear.o
                0x08049ab0                clr_chrchange
                0x08049ee4                COUSECLEAR_MAIN
                0x08049e34                CLEAREFT_MAIN
 .text          0x08049f78     0x1e6c um_select.o
                0x0804bdb4                M_game_select
 .text          0x0804bde4     0x270c um_select_sub.o
                0x0804e464                mGm_MALLOC_p_sel
                0x0804d1e8                score_ssc_set
                0x0804bde4                Drw_Number
                0x0804bfc4                TENKAI
                0x0804c8e4                player_sel_obj_oamset
                0x0804ce84                act_clear
                0x0804c24c                player_sel_obj_init
                0x0804df78                hajimari_course_set
                0x0804e15c                Color_Change
                0x0804bed8                Get_Drw_pnt
                0x0804e4c4                mGm_FREE_p_sel
                0x0804c42c                player_sel_obj_move
                0x0804d48c                param_oam_set
                0x0804dc6c                hajimari_oam_set
                0x0804d2a0                player_sel_obj_sort
 .text          0x0804e4f0     0x3d88 um_yossy.o
                0x080521e8                mGm_MALLOC_YOS_DATA
                0x0804f6e0                M_game_yossy
                0x0805224c                mGm_FREE_YOS_DATA
 .text          0x08052278     0x5710 up_common.o
                0x08054474                player_PLPOSPOP
                0x08053858                player_PLPOSCK
                0x080524a8                player_oamset
                0x08057238                player_color_add
                0x080542b4                player_PLSTDTLD
                0x080568f4                ONPLCK
                0x08056ef0                door_in_timer_set
                0x0805618c                PLGVINT
                0x08056814                PLKTINT2
                0x080576a0                voice_change
                0x08057758                vscr_updown_set
                0x080576e0                contributor_inc
                0x08053b7c                player_PLOBJ_set
                0x08052cc0                player_LIFEIT
                0x08056a2c                ENM190
                0x08054640                player_CROJCK
                0x08052c8c                player_SLPLSET
                0x080537c8                player_XSPCLR
                0x080545b8                player_PLPOSPSH
                0x08053ddc                player_WDORSET
                0x08056fac                door_out_timer_set
                0x080574d4                player_color_sub
                0x08056da8                SNDCHK
                0x08052454                player_YCALC
                0x08054158                player_PLSTDTSV
                0x08052278                player_XCALC
                0x08052cfc                player_PLPOSINT
 .text          0x08057988     0x4f80 up_player.o
                0x0805a11c                player_YSPSET
                0x08058590                player_WKSET
                0x08057a14                player_init
                0x08057b20                u_player_main
                0x0805bd6c                DRSONDST
                0x0805a298                player_BGCHECK
                0x080579e8                ply_free_set
                0x08057988                ply_maloc_set
 .text          0x0805c908      0x208 m_boot.o
                0x0805c908                mgm_boot
 .text          0x0805cb10      0x52c m_sub.o
                0x0805cc30                fade_out
                0x0805cb70                fade_in
                0x0805cfe8                save_pull
                0x0805cb10                lcdc_off
                0x0805ce54                m_scrollInit
                0x0805cee4                m_WhiteOUT
                0x0805cf94                save_push
                0x0805cce0                RDMSUB
                0x0805cb48                lcdc_off1
 .text          0x0805d03c      0xb40 m_MultiSio.o
                0x0805d494                MultiSioIntr
                0x0805d820                ConnectCheck
                0x0805d03c                MultiSioInit
                0x0805d788                ConnectSioInit
                0x0805d19c                MultiSioMain
                0x0805d8a0                ConnectSioIntr
                0x0805d348                MultiSioRecvDataCheck
                0x0805d2b4                MultiSioSendDataSet
 .text          0x0805db7c      0xc34 MultiBoot.o
                0x0805e568                MultiBootCheckComplete
                0x0805e41c                MultiBootStartMaster
                0x0805e3cc                MultiBootStartProbe
                0x0805db7c                MultiBootInit
                0x0805dc1c                MultiBootMain
 .text          0x0805e7b0      0x234 m_bgcheck.o
                0x0805e91c                bgbuf_change2
                0x0805e8b4                bgbuf_change
                0x0805e7f0                bgbuf_check2
                0x0805e7b0                bgbuf_free
 .text          0x0805e9e4       0x9c m_scroll.o
                0x0805e9e4                scroll_set
                0x0805ea74                m_angpra
 .text          0x0805ea80      0xbc0 m_classic_sub.o
                0x0805f4a4                BrosBGYukaFadeClear
                0x0805f420                BrosBGYukaFadeDraw
                0x0805f4e0                BrosBGYukaFadeOut
                0x0805f078                BrosMemoryFree
                0x0805ea80                BackBGAnime
                0x0805ec94                BrosMemoryInit
 .text          0x0805f640     0x20a4 ua_save.o
                0x08060f54                file_load
                0x08060b60                hi_score_save
                0x080610e4                file_clear
                0x080612b4                all_clear
                0x0805f9f4                save_header_check
                0x08060d18                file_save
 .text          0x080616e4     0x44a0 um_result.o
                0x08062094                M_game_result
                0x08065af8                mGm_MALLOC_RES_DATA
                0x08065b58                mGm_FREE_RES_DATA
 .text          0x08065b84       0xbc um_math.o
                0x08065bf0                distance
                0x08065b84                fix_mul
                0x08065bcc                fabs32
 .text          0x08065c40      0x7f4 um_oamset.o
                0x08065c40                ObjSet
                0x08066058                PrioritySet
                0x08065e04                AffineParamSet
                0x08065e94                NonAffineObjSet
                0x0806614c                AffineObjSet
                0x080660d4                ObjModeSet
 .text          0x08066434      0x1fc um_mosaic.o
                0x08066434                mosaic_set
                0x080664f0                mosaic_main
 .text          0x08066630      0x5a8 cm_game_title.o
                0x08066ba8                multi_title
 .text          0x08066bd8     0x1604 ua_act.o
                0x08066c68                act_sub_init
                0x08066c3c                mGm_FREE_p_act
                0x08066bd8                mGm_MALLOC_p_act
                0x08067ea8                act_main
                0x080671c0                act_InitEnmySet
 .text          0x080681dc     0x4ea0 ua_common.o
                0x08068da4                act_xclc
                0x0806be10                SMOKST2
                0x0806908c                a_EnTurn
                0x0806bbb0                WENIT50
                0x0806950c                act_sub_blak
                0x08068e94                act_xRevision2
                0x0806bb70                ENINT01
                0x08069e34                act_sub_pwbk
                0x0806a424                a_CRFGset
                0x0806bea4                ALLSMK
                0x08069b70                act_sub_sund
                0x0806bd84                SMOKST
                0x0806a044                OBJUP
                0x08068708                act_objset
                0x0806c0f0                CPTSET
                0x08069f0c                act_sub_frfl
                0x08068b00                act_kyouseiset
                0x0806a794                a_BIGCRFGset
                0x08069290                act_sub_down
                0x0806bfb8                ENCLER
                0x08068904                act_objset2
                0x08068f1c                act_yRevision
                0x08068d3c                act_speedclc
                0x080699fc                act_sub_smok
                0x0806cf18                Perfect
                0x0806c848                SHOTCK
                0x08069cbc                act_sub_suna
                0x08069014                a_EnMuki
                0x08068c8c                a_affinset
                0x0806bce8                ENCLST
                0x08068f8c                act_yRevision2
                0x0806b964                act_LifeSet
                0x0806b3ac                act_oamset
                0x08068dec                act_yclc
                0x080697a4                act_sub_burn
                0x0806b03c                a_SBTNCRFGset
                0x08068378                act_enmyset
                0x0806abb8                a_BIGCRFGset2
                0x0806baf4                act_enemy_search
                0x0806cea8                BOSS_SCRFG_SET
                0x08068e24                act_xRevision
                0x0806c58c                RIBONSET
                0x0806c2fc                GOHOUBISET
                0x0806cb80                Kamen_Eye_Flash
                0x0806c8cc                SHOTCK2
 .text          0x0806d07c      0x754 ua_bg.o
                0x0806d130                char_change
                0x0806d07c                DMA_tenso
                0x0806d6b0                unit_bg_change_v
                0x0806d578                unit_bg_change_h
                0x0806d3ac                unit_read
 .text          0x0806d7d0      0x128 ua_unit_change.o
                0x0806d7d0                unit_change
 .text          0x0806d8f8     0x1224 ua_color.o
                0x0806da80                game_color_set
                0x0806e2a8                KSRCGST
                0x0806ea8c                ending2_color
                0x0806e240                game_over_col_set
                0x0806d8f8                gradation_init
                0x0806da28                gradation_set
                0x0806e888                mamu_color
                0x0806e114                tubo_col_set
                0x0806e9fc                ending1_color
                0x0806e644                ice_color
                0x0806e8ec                ending_color
                0x0806e3e8                STCGST
                0x0806e4f4                tubo_hosi_color
 .text          0x0806eb1c      0x39c ua_bg3_set.o
                0x0806ebb0                BG3_buffer_set
 .text          0x0806eeb8     0x2a80 ua_sort.o
                0x08071910                act_objsort_sub
                0x0806eeb8                act_objsort
 .text          0x08071938      0x59c ua_eggmeter.o
                0x08071cb4                act_EGGMeterMain
                0x08071938                m_eggmeter_clear
                0x08071980                act_EGGMeterMV
 .text          0x08071ed4      0x2a0 ba_act.o
                0x08072060                acter_main
                0x08071f74                acterInit
                0x08071ed4                acter_init
 .text          0x08072174      0xd48 ba_bgYuKa.o
                0x08072860                bgYuKa_main
                0x08072174                MakeBGYuKa
 .text          0x08072ebc     0x15ac ba_bucket.o
                0x08072ebc                bucket_PowJump
                0x08074154                bucket_main
                0x08072f00                bucket_init
 .text          0x08074468     0x11f4 ba_Coin.o
                0x08074664                Coin_PowJump
                0x08075358                Coin_main
                0x080754f0                MakeDemoCoin
                0x080753dc                MakeCoin
 .text          0x0807565c     0x1b98 ba_common.o
                0x080766f0                EraseEffect
                0x08075990                Oam2x4LoopSet
                0x08076734                PerfectDeleteAllEffect
                0x08076464                EraseEnemy
                0x08076814                FootRevision
                0x080756a8                OamOtherSet
                0x08076cbc                AddScore
                0x08075e0c                Oam3x2LoopSet
                0x08076654                MakeEffect
                0x08076af8                PlayerHitCHK
                0x08076340                MakeEnemy
                0x08075e80                SobDataOamSet
                0x0807718c                BGYuKaCHK
                0x0807565c                DispXCalc
                0x08076efc                BGYuKaSearch
                0x080767b8                EnmySearch
                0x08076104                SizeCHGRollOamSet
                0x0807654c                PerfectDeleteAllEnemy
                0x08076920                BGBF_SCR_CHG
                0x080764e0                AllEraseEnemy
                0x08076ac8                BrosEnemyMove
                0x08075864                Oam2x2LoopSet
 .text          0x080771f4      0x81c ba_egg.o
                0x080771f4                MakeEgg
                0x080779e8                egg_main
 .text          0x08077a10     0x1530 ba_enFly.o
                0x08078164                Fly_LastSet
                0x08077dbc                Fly_BGJump
                0x08077e34                Fly_PowJump
                0x08078eb4                Fly_main
 .text          0x08078f40     0x17c0 ba_enKani.o
                0x080797f8                Kani_LastSet
                0x08079390                Kani_BGJump
                0x0807a674                Kani_main
                0x08079408                Kani_PowJump
 .text          0x0807a700     0x19f4 ba_enmy.o
                0x0807a7c0                Enemy_Ready
                0x0807b794                StageEnemy_SetInit
                0x0807a8f4                EnAddPoint
                0x0807b564                EnAnime_NoChange
                0x0807ab0c                EnEn_hitchk
                0x0807a8a4                EnXmove
                0x0807bbc4                FireBall_Set
                0x0807b574                Enemy_OutCheck
                0x0807ad6c                Enemy_PowJump
                0x0807a700                EnReturnWait
                0x0807b3e0                EnemyAnime_Kick
                0x0807a800                StageOnCheck
                0x0807a968                Create_Point
                0x0807b710                DakanInCheck
                0x0807b89c                StageEnemy_SetMain
                0x0807ae44                Enemy_PLTurn
                0x0807b480                EnDead_OamSet
                0x0807b2f8                Enemy_Kick
                0x0807bf30                Make_Freezer
                0x0807af60                Enemy_PLKick
                0x0807aaa0                Create_Splash
                0x0807baac                FireBall_TimerSet
                0x0807c074                Kuppa_OopsInit
                0x0807be2c                Icicle_TimerSet
                0x0807a74c                EnPosSet
 .text          0x0807c0f4       0x10 ba_enNoko.o
                0x0807c0f4                NoKoKame_main
 .text          0x0807c104     0x16d8 ba_enToge.o
                0x0807c938                Togezo_LastSet
                0x0807d724                Togezo_main
                0x0807c560                Togezo_PowJump
                0x0807c4e0                Togezo_BGJump
 .text          0x0807d7dc     0x1478 ba_fire.o
                0x0807d8f4                Fire_BGJump
                0x0807ea38                Fireball_main
                0x0807d8a4                Fire_BreakOut
                0x0807eab0                Create_Fireball
 .text          0x0807ec54      0x290 ba_fishBone.o
                0x0807ec54                MakeFishBone
                0x0807eebc                fishBone_main
 .text          0x0807eee4      0x3f0 ba_heart.o
                0x0807f020                heart_main
                0x0807eee4                MakeHeart
 .text          0x0807f2d4     0x1a88 ba_ice.o
                0x08080cdc                Ice_main
                0x0807f3e4                Ice_JumpBreak
                0x0807f430                Ice_PowBreak
 .text          0x08080d5c      0xbd8 ba_koura.o
                0x08080d5c                KouraInit
                0x080818ac                koura_main
                0x08080e94                MakeKoura
                0x08080f28                Koura_PowJump
 .text          0x08081934     0x1544 ba_kuppa.o
                0x08081a68                Kuppa_BGJump
                0x08081af4                Kuppa_PowJump
                0x080828d0                Kuppa_main
                0x08082e18                KppFire_main
 .text          0x08082e78      0x350 ba_mutekiStar.o
                0x08082f54                mutekiStar_main
                0x08082e78                MakeMutekiStar
 .text          0x080831c8      0x868 ba_PipeWave.o
                0x08083688                UnderPipeMake
                0x080834b0                MakePipeWave
                0x080839dc                PipeWave_main
 .text          0x08083a30      0x3a4 ba_point.o
                0x08083dac                Point_main
 .text          0x08083dd4     0x100c ba_pow.o
                0x08083ea8                MakePow
                0x080843d8                MakeObjPow
                0x08083dd4                ShrinkSet
                0x08084db8                pow_main
 .text          0x08084de0      0x198 ba_smoke.o
                0x08084de0                smoke_main
 .text          0x08084f78      0x7fc ba_spark.o
                0x0808574c                spark_main
                0x08084f78                MakeSpark
 .text          0x08085774      0x300 ba_splash.o
                0x08085a4c                Splash_main
 .text          0x08085a74      0x374 ba_star.o
                0x08085a74                MakeStar
                0x08085bb4                star_main
 .text          0x08085de8      0x930 ba_icicle.o
                0x080866b8                Icicle_main
 .text          0x08086718      0x3b8 ba_powsmk.o
                0x08086aa8                Powsmk_main
 .text          0x08086ad0     0x1140 ua_fairy.o
                0x08086ad0                eninit_FAIRY
                0x08087620                enmove_FAIRY
                0x0808770c                enoam_FAIRY
                0x080870d8                FairyMove2
 .text          0x08087c10     0x1060 ua_walk.o
                0x080887d0                enoam_BIGWALK
                0x08087dd8                eninit_WALK
                0x08087f00                enoam_WALK
                0x08087c28                WALK_ONPLMV
                0x08087c10                WALK_RIDECK
                0x080883a8                enmove_WALK
 .text          0x08088c70      0x2e0 ua_tori.o
                0x08088cbc                enmove_TORI
                0x08088c70                eninit_TORI
 .text          0x08088f50      0x180 ua_huck0.o
                0x08088f8c                enmove_HUCK0
                0x08088f50                eninit_HUCK0
 .text          0x080890d0      0x6f0 ua_shoot.o
                0x08089218                enmove_SHOOT
                0x08089514                enmove_SHOO1
                0x080890d0                eninit_SHOOT
 .text          0x080897c0      0xbfc ua_force.o
                0x08089820                enoam_FORCE
                0x08089f08                enmove_FORCE
                0x0808a27c                F_HEIHO_SET
                0x080897c0                eninit_FORCE
 .text          0x0808a3bc      0x9f8 ua_burn0.o
                0x0808a930                enmove_BURN0
                0x0808a3bc                eninit_BURN0
                0x0808a414                enoam_BURN0
 .text          0x0808adb4      0x990 ua_bird.o
                0x0808af2c                enoam_BIRD0
                0x0808adb4                eninit_BIRD
                0x0808b4e8                enmove_BIRD
 .text          0x0808b744      0x2b8 ua_ninja.o
                0x0808b800                enmove_NINJA
                0x0808b744                eninit_NINJA
 .text          0x0808b9fc      0x3fc ua_ninj1.o
                0x0808ba38                enmove_NINJ1
                0x0808b9fc                eninit_NINJ1
 .text          0x0808bdf8      0x2d4 ua_flyng.o
                0x0808bf40                enmove_FLYNG
                0x0808bdf8                eninit_FLYNG
 .text          0x0808c0cc     0x13a4 ua_pigmo.o
                0x0808ca3c                enoam_PIGMO
                0x0808c434                eninit_CRPET
                0x0808c0cc                eninit_PIGMO
                0x0808d108                enoam_CRPET
                0x0808c48c                enmove_CRPET
                0x0808c28c                enmove_PIGMO
 .text          0x0808d470      0x7d8 ua_fish0.o
                0x0808d8b4                enoam_FISH0
                0x0808d52c                enmove_FISH0
                0x0808d470                eninit_FISH0
 .text          0x0808dc48      0x4c8 ua_musi0.o
                0x0808dc48                eninit_MUSI0
                0x0808de48                enmove_MUSI0
 .text          0x0808e110      0x2bc ua_tubo.o
                0x0808e174                enoam_TUBO
                0x0808e18c                enmove_TUBO
                0x0808e110                eninit_TUBO
 .text          0x0808e3cc      0x860 ua_mask.o
                0x0808e664                enmove_MASK
                0x0808e3cc                eninit_MASK
                0x0808e8bc                enoam_MASK0
 .text          0x0808ec2c      0x798 ua_hebi0.o
                0x0808ec2c                enoam_HEBI
                0x0808f058                eninit_HEBI0
                0x0808f098                enmove_HEBI0
 .text          0x0808f3c4      0x4ac ua_hebi1.o
                0x0808f4ec                enmove_HEBI1
                0x0808f3c4                eninit_HEBI1
                0x0808f404                enmvsb_HSHOOT
 .text          0x0808f870      0xb74 ua_sbten.o
                0x0808f870                eninit_SBTEN
                0x0808f8dc                enoam_SBTEN
                0x0808fefc                enmove_SBTEN
                0x08090254                SBTEN_SET
 .text          0x080903e4     0x1034 ua_boss0.o
                0x08090d14                enmove_BOSS0
                0x080903e4                eninit_BOSS0
                0x080904c4                BOSS_FAILVOICE
                0x080910a4                enoam_BOSS0
 .text          0x08091418      0x998 ua_mikey.o
                0x08091418                eninit_MIKEY
                0x08091a3c                enoam_MIKEY
                0x08091728                enmove_MIKEY
 .text          0x08091db0     0x1c10 ua_ball1.o
                0x080925a0                enoam_BKDN
                0x0809219c                eninit_BKDN
                0x08092f30                enmove_KABUFAIRY
                0x080921dc                enmove_BKDN
                0x08092e9c                enmove_WATCH
                0x08092bf4                enmove_BISHI
                0x08092d98                eninit_YASAI
                0x08091db0                eninit_BALL1
                0x08092100                eninit_DANGN
                0x080936d8                enmove_VSCRDOWN
                0x080931f0                enoam_KABUFAIRY
                0x0809321c                enmove_SCRDOWN
                0x08092b98                eninit_BISHI
                0x08092d34                enmove_BALLM
                0x08091e40                enmove_BALL1
                0x08092130                enmove_DANGN
                0x08092dc8                enmove_YASAI
                0x08093428                enmove_VSCRUP
                0x08092d04                eninit_BALLM
 .text          0x080939c0      0x880 ua_snake.o
                0x08093d38                enoam_SNAKE
                0x080939c0                eninit_SNAKE
                0x08093b14                enmove_SNAKE
 .text          0x08094240      0x8c8 ua_fire1.o
                0x08094258                eninit_SMOK2
                0x080949e4                eninit_FIRE1
                0x08094354                enmove_BIGSMK
                0x08094974                enmove_BOMB
                0x08094240                enmove_KEMURI
                0x080944bc                enoam_BIGSMK
                0x0809427c                enmove_SMOK2
                0x08094a24                enmove_FIRE1
 .text          0x08094b08      0xa84 ua_bkani.o
                0x08095048                enoam_BKANI
                0x08094b08                eninit_BKANI
                0x08094c20                enmove_BKANI
 .text          0x0809558c      0x34c ua_flwer.o
                0x0809558c                eninit_FLWER
                0x080955ec                enmove_FLWER
 .text          0x080958d8      0xce8 ua_canon.o
                0x08095968                enoam_CANON
                0x080960a4                enmove_CANON
                0x08096484                C_HEIHO_SET
                0x080958d8                eninit_CANON
 .text          0x080965c0      0xa08 ua_fnsui.o
                0x080965c0                eninit_FNSUI
                0x08096e10                enoam_FNSUI
                0x08096e6c                enmove_FNSUI
 .text          0x08096fc8      0x37c ua_icemn.o
                0x08096fc8                eninit_ICEMN
                0x08097034                enmove_ICEMN
 .text          0x08097344      0xeac ua_fireb.o
                0x08097b6c                enoam_FIRES
                0x0809798c                eninit_FIRES
                0x080979bc                enmove_FIRES
                0x08097e58                enoam_FIREB
                0x08097344                eninit_FIREB
                0x08097774                enmove_FIREB
 .text          0x080981f0      0xac8 ua_mamuu.o
                0x08098624                enmove_MAMUU
                0x080983cc                eninit_MAMUU
                0x08098980                enoam_MAMUU
 .text          0x08098cb8      0xab4 ua_bgkao.o
                0x08098ffc                enmove_BGKAO
                0x08098cb8                eninit_BGKAO
                0x08099358                enoam_BGKAO
 .text          0x0809976c      0x55c ua_whats.o
                0x08099870                WHATSBGCK_sub
                0x0809976c                eninit_WHATS
                0x08099bac                enmove_WHATS
                0x08099a60                WHATSMV
 .text          0x08099cc8      0x1f0 ua_wood.o
                0x08099d34                enmove_WOOD
                0x08099cc8                eninit_WOOD
 .text          0x08099eb8      0xc70 ua_exit.o
                0x08099f3c                eninit_EXIT
                0x0809a118                enmove_EXIT
                0x0809a728                enoam_EXIT
 .text          0x0809ab28     0x1590 ua_item.o
                0x0809b9b0                enoam_FACE
                0x0809b560                enmove_FACE
                0x0809b074                enmove_KEY0
                0x0809ac50                eninit_XTAL
                0x0809b524                eninit_FACE
                0x0809beb8                enmove_ONEUP
                0x0809be70                eninit_ONEUP
                0x0809b4b8                enoam_XTAL
                0x0809ae58                enmove_XTAL
 .text          0x0809c0b8      0x904 ua_rocket.o
                0x0809c0b8                eninit_ROCKET
                0x0809c5e4                enoam_ROCKET
                0x0809c128                enmove_ROCKET
 .text          0x0809c9bc      0x6c8 ua_heart.o
                0x0809ce50                enmove_HEART
                0x0809c9bc                HEARTST
 .text          0x0809d084     0x1f60 ua_door.o
                0x0809dbd4                enoam_BIGDR
                0x0809d084                enmove_DOOR
                0x0809d4f0                enoam_DOOR
                0x0809ebbc                enmove_HIKARI
                0x0809e918                eninit_HIKARI
                0x0809ecb4                enoam_HIKARI
                0x0809e604                enoam_WOODDR
                0x0809d84c                eninit_BIGDR
                0x0809e518                enmove_WOODDR
                0x0809dedc                WOOD_DRSET
                0x0809d8c0                enmove_BIGDR
 .text          0x0809efe4      0x4cc ua_flag.o
                0x0809efe4                eninit_OFFFLAG
                0x0809f280                enmove_FLYNF
                0x0809f0f4                enmove_BIRDF
                0x0809f0b4                eninit_FLAG
                0x0809f014                enmove_OFFFLAG
 .text          0x0809f4b0      0x614 ua_lmp0.o
                0x0809f4b0                enmove_LMP0
 .text          0x0809fac4      0x744 ua_star.o
                0x0809fc5c                eninit_STAR
                0x0809fea4                enoam_STAR
                0x0809fac4                a_StarSet
                0x0809fcd4                enmove_STAR
 .text          0x080a0208      0xa5c ua_spae.o
                0x080a0734                enmove_SPAE
 .text          0x080a0c64     0x18b0 ua_pwbk.o
                0x080a1160                enmove_POWBK
                0x080a1ecc                enoam_PWBK
                0x080a1750                enoam_CMOD
                0x080a0f14                eninit_PWBK
                0x080a0fd8                enmove_NORMPOWBK
 .text          0x080a2514     0x1f0c ua_bigboss.o
                0x080a3f18                enoam_BIGSUB
                0x080a3924                enoam_BIGBOSS
                0x080a3450                enmove_BIGBOSS
                0x080a3ec8                enmove_TILTSMK
                0x080a290c                eninit_BIGBOSS
 .text          0x080a4420      0x764 ua_gondola.o
                0x080a4b34                enoam_GONDOLA
                0x080a4420                move_item_gondola
                0x080a4800                enmove_GONDOLA
                0x080a47dc                eninit_GONDOLA
 .text          0x080a4b84      0xbc4 ua_gonboss.o
                0x080a522c                enmove_GONBOSS
                0x080a52e4                enoam_GONBOSS
                0x080a4b84                eninit_GONBOSS
 .text          0x080a5748      0x350 ua_cherry.o
                0x080a599c                enmove_CHERRY
                0x080a57e8                Cherry_Set
                0x080a588c                eninit_CHERRY
 .text          0x080a5a98     0x1cd8 ua_gohoubi.o
                0x080a6d3c                enmove_AKADAMA
                0x080a5a98                eninit_AKADAMA
                0x080a63e0                AKADAMA_BOUND
                0x080a6ff0                enmove_AODAMA
                0x080a5d78                TAMA_RIDEIT
                0x080a727c                enoam_AKADAMA
                0x080a5b30                eninit_AODAMA
                0x080a5bbc                TAMA_BENTIT
 .text          0x080a7770      0x484 ua_toge.o
                0x080a7b54                enoam_TOGE
                0x080a7770                eninit_TOGE
                0x080a782c                enmove_TOGE
 .text          0x080a7bf4     0x1590 ua_egg.o
                0x080a8bf4                enoam_EGG
                0x080a8974                enmove_EGG
                0x080a88b8                EGG_ONPLIT
                0x080a8030                eninit_EGG
                0x080a7bf4                EGGFG_DTSV
                0x080a7d2c                EGGST
 .text          0x080a9184      0x140 ua_mask1.o
                0x080a927c                enoam_MASK1
                0x080a919c                enmove_MASK1
                0x080a9184                eninit_MASK1
 .text          0x080a92c4     0x1204 ua_capsule.o
                0x080a97d0                CapsuleMoveLiftUp
                0x080aa380                CapsuleOamsetBreak
                0x080a9c70                enmove_CAPSULE
                0x080aa490                enoam_CAPSULE
                0x080a9ca8                CapsuleOamsetHide
                0x080a9cc0                CapsuleOamsetGround
                0x080a9518                eninit_CAPSULE
                0x080a9e40                CapsuleOamsetLiftUp
                0x080aa368                CapsuleOamsetThrow
                0x080a9854                CapsuleMoveLiftOn
                0x080a96a4                CapsuleMoveGround
                0x080a95f0                CapsuleMoveHide
                0x080a92c4                Unit_Check
                0x080aa0c4                CapsuleOamsetLiftOn
                0x080a9ba4                CapsuleMoveBreak
                0x080a9320                Capsule_Bg_Check
                0x080a947c                Capsule_Item_Change
                0x080a98cc                CapsuleMoveThrow
 .text          0x080aa4c8      0x658 ua_lift.o
                0x080aa4c8                eninit_LIFT
                0x080aa52c                enmove_LIFT
                0x080aa86c                enoam_LIFT2
                0x080aa67c                enoam_LIFT
 .text          0x080aab20      0xc50 ua_bubble.o
                0x080ab368                enoam_BUBBLE
                0x080aadf8                enmove_BUBBLE
                0x080aab20                eninit_BUBBLE
 .text          0x080ab770     0x12d0 ua_sboss.o
                0x080ac2dc                BOSS_DEMOSPEAK
                0x080ab998                enmove_SBOSS
                0x080ac52c                enoam_SBOSS
                0x080ab840                eninit_SBOSS
                0x080abff8                enmove_BOSSDEMO
 .text          0x080aca40      0x5f0 ua_itemball.o
                0x080acd0c                enoam_ITEMBALL
                0x080acc1c                eninit_ITEMBALL
                0x080aca40                hit_ITEMBALL
                0x080accf4                enmove_ITEMBALL
 .text          0x080ad030      0x1f8 ua_mosaic.o
                0x080ad210                enoam_MOSAIC
                0x080ad12c                enmove_MOSAIC
                0x080ad030                eninit_MOSAIC
 .text          0x080ad228      0xa30 ua_coin.o
                0x080ad8dc                enoam_COIN
                0x080ad6b4                eninit_BIGCOIN
                0x080ad228                REDCOIN_DTRD
                0x080ad78c                enmove_BIGCOIN
                0x080ad7c4                enmove_COIN
                0x080ad450                BIGCOIN_GET
 .text          0x080adc58      0xc84 ua_effect.o
                0x080ae524                score_posclc
                0x080ae568                scroe_main
                0x080adcb8                mGm_FREE_p_scr
                0x080ae780                PL_EFFECT_SET
                0x080ae7e0                SCORE_CLEAR
                0x080adc58                mGm_MALLOC_p_scr
                0x080ae670                EFFECT_SET
 .text          0x080ae8dc      0xb74 ua_shock.o
                0x080af120                shock_check
                0x080aecb4                shock_move
                0x080af2c8                pl_shock_check
                0x080aec5c                hahen_move
 .text          0x080af450     0x1144 ua_stareffect.o
                0x080af584                mGm_FREE_p_eff
                0x080af84c                CoinEffect_Set
                0x080af450                Effect_Clear
                0x080af4a4                All_Effect_Clear
                0x080af5b0                StarEffect_Set
                0x080b01d4                stareffect_main
                0x080afadc                StoneEffect_Set
                0x080af524                mGm_MALLOC_p_eff
 .text          0x080b0594      0x300 ua_bosseffect.o
                0x080b0594                BOSS_EFCTSET
                0x080b06f0                bseft_move
                0x080b0788                bubble_move
 .text          0x080b0894     0x128c ua_cros.o
                0x080b0c84                a_ENGIVEUP
                0x080b1a84                BRNCROS
                0x080b18ac                ENCROS
 .text          0x080b1b20     0x10ec up_exst.o
                0x080b27f8                ex_star_init
                0x080b2428                ex_stone_init
                0x080b2130                ex_mode_clear
                0x080b25ec                ex_stone_move
                0x080b2240                ex_smoke_move
                0x080b1b20                ex_init_main
                0x080b217c                ex_smoke_init
                0x080b275c                ex_stone_oamset
                0x080b29bc                ex_star_move
                0x080b1c14                ex_move_main
                0x080b2328                ex_smoke_oamset
                0x080b2b48                ex_star_oamset
 .text          0x080b2c0c     0x1548 um_yscr.o
                0x080b3550                bg23_V_scroll_set
                0x080b2c0c                KEY22
                0x080b32a4                V_scroll_auto_YOKO
 .text          0x080b4154      0x750 um_tscr.o
                0x080b4154                KEY11
                0x080b470c                H_scroll_auto_TATE
                0x080b44b0                V_scroll_auto_TATE
 .text          0x080b48a4      0x428 m_mini_malloc.o
                0x080b48a4                cMml_Init
                0x080b4c00                cMml_GarbageCollection
                0x080b4b4c                cMml_Free
                0x080b4960                cMml_Malloc
 .text          0x080b4ccc     0x2098 sound/m4aLib.o
                0x080b5f94                SoundVSyncOff_rev01
                0x080b5e04                SampFreqSet_rev01
                0x080b4ccc                umul3232H32
                0x080b5bec                MPlayExtender
                0x080b5f40                SoundClear_rev01
                0x080b6cf8                ply_xsust
                0x080b5d28                Clear64byte_rev
                0x080b6ce4                ply_xdeca
                0x080b5d10                MusicPlayerJumpTableCopy
                0x080b6cbc                ply_xtype
                0x080b689c                MPlayVolumeControl
                0x080b6094                MPlayStart_rev01
                0x080b5104                SoundMainBTM
                0x080b6d4c                ply_xswee
                0x080b5fe0                SoundVSyncOn_rev01
                0x080b5b94                m4aMPlayFadeOut
                0x080b601c                MPlayOpen_rev01
                0x080b55d4                TrackStop_rev01
                0x080b5b68                m4aMPlayAllContinue
                0x080b6cd0                ply_xatta
                0x080b62d0                MidiKey2CgbFr
                0x080b6d20                ply_xiecv
                0x080b5afc                m4aSongNumContinue
                0x080b6a74                MPlayLFOSpeedSet
                0x080b5924                DummyFunc
                0x080b5944                MPlayFadeOut
                0x080b5830                ply_endtie_rev01
                0x080b5b5c                m4aMPlayContinue
                0x080b6874                MPlayTempoControl
                0x080b6188                FadeOutBody_rev01
                0x080b6378                CgbOscOff
                0x080b6c60                ply_xxx
                0x080b58c0                MidiKey2fr
                0x080b59f0                m4aSoundMain
                0x080b6c74                ply_xwave
                0x080b6208                TrkVolPitSet_rev01
                0x080b59fc                m4aSongNumStart
                0x080b5898                ply_lfos_rev01
                0x080b5928                MPlayContinue
                0x080b58ac                ply_mod_rev01
                0x080b6904                MPlayPitchControl
                0x080b69e0                MP_clear_modM
                0x080b5368                MPlayMain_rev01
                0x080b5618                ply_note_rev01
                0x080b5d3c                SoundInit_rev01
                0x080b5a28                m4aSongNumStartOrChange
                0x080b6a00                MPlayModDepthSet
                0x080b5a74                m4aSongNumStartOrContinue
                0x080b6430                CgbSound
                0x080b6148                MPlayStop_rev01
                0x080b6d60                DummyFunc_rev
                0x080b6c40                ply_xcmd
                0x080b5ea8                SoundMode_rev01
                0x080b6978                MPlayPanpotControl
                0x080b5d14                ClearChain_rev
                0x080b5330                SoundVSync_rev01
                0x080b5964                m4aSoundInit
                0x080b6d2c                ply_xiecl
                0x080b6d38                ply_xleng
                0x080b5ba4                m4aMPlayImmInit
                0x080b6ae8                ply_memacc
                0x080b4cdc                SoundMain
                0x080b4d60                SoundMainRAM
                0x080b5b30                m4aMPlayAllStop
                0x080b63c8                CgbModVol
                0x080b5104                Clear64byte
                0x080b5ac8                m4aSongNumStop
                0x080b516c                MPlyJmpTblCopy
                0x080b6d0c                ply_xrele
 .text          0x080b6d64        0x4 C:/agb/lib//libagbsyscall.a(AgbSysCpuFastSet.o)
                0x080b6d64                CpuFastSet
 .text          0x080b6d68        0x4 C:/agb/lib//libagbsyscall.a(AgbSysCpuSet.o)
                0x080b6d68                CpuSet
 .text          0x080b6d6c        0x4 C:/agb/lib//libagbsyscall.a(AgbSysDiv.o)
                0x080b6d6c                Div
 .text          0x080b6d70        0x8 C:/agb/lib//libagbsyscall.a(AgbSysDivRem.o)
                0x080b6d70                DivRem
 .text          0x080b6d78        0x4 C:/agb/lib//libagbsyscall.a(AgbSysHuffUnComp.o)
                0x080b6d78                HuffUnComp
 .text          0x080b6d7c        0x4 C:/agb/lib//libagbsyscall.a(AgbSysLZ77UnCompVram.o)
                0x080b6d7c                LZ77UnCompVram
 .text          0x080b6d80        0x8 C:/agb/lib//libagbsyscall.a(AgbSysMultiBoot.o)
                0x080b6d80                MultiBoot
 .text          0x080b6d88        0x4 C:/agb/lib//libagbsyscall.a(AgbSysObjAffineSet.o)
                0x080b6d88                ObjAffineSet
 .text          0x080b6d8c        0x4 C:/agb/lib//libagbsyscall.a(AgbSysRegisterRamReset.o)
                0x080b6d8c                RegisterRamReset
 .text          0x080b6d90       0x18 C:/agb/lib//libagbsyscall.a(AgbSysSoftReset.o)
                0x080b6d90                SoftReset
 .text          0x080b6da8        0x8 C:/agb/lib//libagbsyscall.a(AgbSysSoundBiasReset.o)
                0x080b6da8                SoundBiasReset
 .text          0x080b6db0        0x8 C:/agb/lib//libagbsyscall.a(AgbSysSoundBiasSet.o)
                0x080b6db0                SoundBiasSet
 .text          0x080b6db8        0x4 C:/agb/lib//libagbsyscall.a(AgbSysSqrt.o)
                0x080b6db8                Sqrt
 .text          0x080b6dbc       0x1c C:/agb/lib//libagbsyscall.a(AgbSysSoftResetRom.o)
                0x080b6dbc                SoftResetRom
 .text          0x080b6dd8      0x41c C:/agb/lib//libagbbackup.a(AgbEeprom.o)
                0x080b6fd0                ReadEepromDword
                0x080b6f0c                StopEepromTimer
                0x080b6e48                SetEepromTimerIntr
                0x080b6f50                Dma3Transmit
                0x080b71b4                ProgramEepromDwordEx
                0x080b6e20                EepromTimerIntr
                0x080b715c                VerifyEepromDword
                0x080b6e84                StartEepromTimer
                0x080b6dd8                IdentifyEeprom
                0x080b7080                ProgramEepromDword
 .text          0x080b71f4       0x3c C:\PROGRA~1\Cygnus\thumbelf-000512\H-i686-cygwin32\bin/../lib/gcc-lib/thumb-elf/2.9-arm-000512/libgcc.a(_call_via_rX.o)
                0x080b71fc                _call_via_r2
                0x080b720c                _call_via_r6
                0x080b7208                _call_via_r5
                0x080b7200                _call_via_r3
                0x080b7220                _call_via_fp
                0x080b7214                _call_via_r8
                0x080b7210                _call_via_r7
                0x080b71f4                _call_via_r0
                0x080b721c                _call_via_sl
                0x080b7228                _call_via_sp
                0x080b7218                _call_via_r9
                0x080b7204                _call_via_r4
                0x080b71f8                _call_via_r1
                0x080b7224                _call_via_ip
                0x080b722c                _call_via_lr
 .text          0x080b7230       0x94 C:\PROGRA~1\Cygnus\thumbelf-000512\H-i686-cygwin32\bin/../lib/gcc-lib/thumb-elf/2.9-arm-000512/libgcc.a(_divsi3.o)
                0x080b7230                __divsi3
 .text          0x080b72c4        0x4 C:\PROGRA~1\Cygnus\thumbelf-000512\H-i686-cygwin32\bin/../lib/gcc-lib/thumb-elf/2.9-arm-000512/libgcc.a(_dvmd_tls.o)
                0x080b72c4                __div0
 .text          0x080b72c8       0x78 C:\PROGRA~1\Cygnus\thumbelf-000512\H-i686-cygwin32\bin/../lib/gcc-lib/thumb-elf/2.9-arm-000512/libgcc.a(_udivsi3.o)
                0x080b72c8                __udivsi3
 .text          0x080b7340       0xc0 C:\PROGRA~1\Cygnus\thumbelf-000512\H-i686-cygwin32\bin/../lib/gcc-lib/thumb-elf/2.9-arm-000512/libgcc.a(_umodsi3.o)
                0x080b7340                __umodsi3
 .text          0x080b7400       0x24 C:\PROGRA~1\Cygnus\thumbelf-000512\H-i686-cygwin32\bin/../lib/gcc-lib/thumb-elf/2.9-arm-000512/../../../../thumb-elf/lib/libg.a(assert.o)
                0x080b7400                __assert
 .text          0x080b7424       0x14 C:\PROGRA~1\Cygnus\thumbelf-000512\H-i686-cygwin32\bin/../lib/gcc-lib/thumb-elf/2.9-arm-000512/../../../../thumb-elf/lib/libg.a(fiprintf.o)
                0x080b7424                fiprintf
 .text          0x080b7438       0x28 C:\PROGRA~1\Cygnus\thumbelf-000512\H-i686-cygwin32\bin/../lib/gcc-lib/thumb-elf/2.9-arm-000512/../../../../thumb-elf/lib/libg.a(libcfunc.o)
                0x080b7458                isatty
                0x080b7438                abort
                0x080b745c                alarm
 .text          0x080b7460       0x60 C:\PROGRA~1\Cygnus\thumbelf-000512\H-i686-cygwin32\bin/../lib/gcc-lib/thumb-elf/2.9-arm-000512/../../../../thumb-elf/lib/libg.a(memcpy.o)
                0x080b7460                memcpy
 .text          0x080b74c0       0x54 C:\PROGRA~1\Cygnus\thumbelf-000512\H-i686-cygwin32\bin/../lib/gcc-lib/thumb-elf/2.9-arm-000512/../../../../thumb-elf/lib/libg.a(memset.o)
                0x080b74c0                memset
 .text          0x080b7514      0x9a4 C:\PROGRA~1\Cygnus\thumbelf-000512\H-i686-cygwin32\bin/../lib/gcc-lib/thumb-elf/2.9-arm-000512/../../../../thumb-elf/lib/libg.a(vfiprintf.o)
                0x080b75a8                vfiprintf
                0x080b75bc                _vfiprintf_r
 .text          0x080b7eb8       0xac C:\PROGRA~1\Cygnus\thumbelf-000512\H-i686-cygwin32\bin/../lib/gcc-lib/thumb-elf/2.9-arm-000512/../../../../thumb-elf/lib/libg.a(wsetup.o)
                0x080b7eb8                __swsetup
 .text          0x080b7f64       0x94 C:\PROGRA~1\Cygnus\thumbelf-000512\H-i686-cygwin32\bin/../lib/gcc-lib/thumb-elf/2.9-arm-000512/../../../../thumb-elf/lib/libg.a(fflush.o)
                0x080b7f64                fflush
 .text          0x080b7ff8      0x15c C:\PROGRA~1\Cygnus\thumbelf-000512\H-i686-cygwin32\bin/../lib/gcc-lib/thumb-elf/2.9-arm-000512/../../../../thumb-elf/lib/libg.a(findfp.o)
                0x080b80f4                __sinit
                0x080b8030                __sfmoreglue
                0x080b80e4                _cleanup
                0x080b80d4                _cleanup_r
                0x080b8060                __sfp
 .text          0x080b8154      0x280 C:\PROGRA~1\Cygnus\thumbelf-000512\H-i686-cygwin32\bin/../lib/gcc-lib/thumb-elf/2.9-arm-000512/../../../../thumb-elf/lib/libg.a(freer.o)
                0x080b8154                _free_r
                0x080b8314                _malloc_trim_r
 .text          0x080b83d4      0x22c C:\PROGRA~1\Cygnus\thumbelf-000512\H-i686-cygwin32\bin/../lib/gcc-lib/thumb-elf/2.9-arm-000512/../../../../thumb-elf/lib/libg.a(fvwrite.o)
                0x080b83d4                __sfvwrite
 .text          0x080b8600       0x40 C:\PROGRA~1\Cygnus\thumbelf-000512\H-i686-cygwin32\bin/../lib/gcc-lib/thumb-elf/2.9-arm-000512/../../../../thumb-elf/lib/libg.a(fwalk.o)
                0x080b8600                _fwalk
 .text          0x080b8640       0x6c C:\PROGRA~1\Cygnus\thumbelf-000512\H-i686-cygwin32\bin/../lib/gcc-lib/thumb-elf/2.9-arm-000512/../../../../thumb-elf/lib/libg.a(locale.o)
                0x080b8640                _setlocale_r
                0x080b867c                _localeconv_r
                0x080b8684                setlocale
                0x080b869c                localeconv
 .text          0x080b86ac       0xdc C:\PROGRA~1\Cygnus\thumbelf-000512\H-i686-cygwin32\bin/../lib/gcc-lib/thumb-elf/2.9-arm-000512/../../../../thumb-elf/lib/libg.a(makebuf.o)
                0x080b86ac                __smakebuf
 .text          0x080b8788      0x51c C:\PROGRA~1\Cygnus\thumbelf-000512\H-i686-cygwin32\bin/../lib/gcc-lib/thumb-elf/2.9-arm-000512/../../../../thumb-elf/lib/libg.a(mallocr.o)
                0x080b88e4                _malloc_r
 .text          0x080b8ca4       0x2c C:\PROGRA~1\Cygnus\thumbelf-000512\H-i686-cygwin32\bin/../lib/gcc-lib/thumb-elf/2.9-arm-000512/../../../../thumb-elf/lib/libg.a(mbtowc_r.o)
                0x080b8ca4                _mbtowc_r
 .text          0x080b8cd0       0x80 C:\PROGRA~1\Cygnus\thumbelf-000512\H-i686-cygwin32\bin/../lib/gcc-lib/thumb-elf/2.9-arm-000512/../../../../thumb-elf/lib/libg.a(memchr.o)
                0x080b8cd0                memchr
 .text          0x080b8d50       0x88 C:\PROGRA~1\Cygnus\thumbelf-000512\H-i686-cygwin32\bin/../lib/gcc-lib/thumb-elf/2.9-arm-000512/../../../../thumb-elf/lib/libg.a(memmove.o)
                0x080b8d50                memmove
 .text          0x080b8dd8        0x8 C:\PROGRA~1\Cygnus\thumbelf-000512\H-i686-cygwin32\bin/../lib/gcc-lib/thumb-elf/2.9-arm-000512/../../../../thumb-elf/lib/libg.a(mlock.o)
                0x080b8ddc                __malloc_unlock
                0x080b8dd8                __malloc_lock
 .text          0x080b8de0       0x2c C:\PROGRA~1\Cygnus\thumbelf-000512\H-i686-cygwin32\bin/../lib/gcc-lib/thumb-elf/2.9-arm-000512/../../../../thumb-elf/lib/libg.a(sbrkr.o)
                0x080b8de0                _sbrk_r
 .text          0x080b8e0c       0xc4 C:\PROGRA~1\Cygnus\thumbelf-000512\H-i686-cygwin32\bin/../lib/gcc-lib/thumb-elf/2.9-arm-000512/../../../../thumb-elf/lib/libg.a(stdio.o)
                0x080b8e80                __sseek
                0x080b8e0c                __sread
                0x080b8ec0                __sclose
                0x080b8e40                __swrite
 .text          0x080b8ed0       0x5c C:\PROGRA~1\Cygnus\thumbelf-000512\H-i686-cygwin32\bin/../lib/gcc-lib/thumb-elf/2.9-arm-000512/../../../../thumb-elf/lib/libg.a(strcmp.o)
                0x080b8ed0                strcmp
 .text          0x080b8f2c       0x44 C:\PROGRA~1\Cygnus\thumbelf-000512\H-i686-cygwin32\bin/../lib/gcc-lib/thumb-elf/2.9-arm-000512/../../../../thumb-elf/lib/libg.a(strlen.o)
                0x080b8f2c                strlen
 .text          0x080b8f70      0x464 C:\PROGRA~1\Cygnus\thumbelf-000512\H-i686-cygwin32\bin/../lib/gcc-lib/thumb-elf/2.9-arm-000512/../../../../thumb-elf/lib/libg.a(syscalls.o)
                0x080b932c                _getpid
                0x080b8fdc                initialise_monitor_handles
                0x080b936c                _fstat
                0x080b9298                _open
                0x080b9330                _sbrk
                0x080b9380                _raise
                0x080b93b0                _times
                0x080b917c                _lseek
                0x080b9188                _swiwrite
                0x080b90f8                _swilseek
                0x080b92ac                _swiclose
                0x080b91f8                _swiopen
                0x080b9378                _unlink
                0x080b91ac                _write
                0x080b930c                _kill
                0x080b9384                _gettimeofday
                0x080b90b0                _read
                0x080b92ec                _exit
                0x080b908c                _swiread
                0x080b92e0                _close
 .text          0x080b93d4       0x30 C:\PROGRA~1\Cygnus\thumbelf-000512\H-i686-cygwin32\bin/../lib/gcc-lib/thumb-elf/2.9-arm-000512/../../../../thumb-elf/lib/libg.a(writer.o)
                0x080b93d4                _write_r
 .text          0x080b9404       0x2c C:\PROGRA~1\Cygnus\thumbelf-000512\H-i686-cygwin32\bin/../lib/gcc-lib/thumb-elf/2.9-arm-000512/../../../../thumb-elf/lib/libg.a(closer.o)
                0x080b9404                _close_r
 .text          0x080b9430        0xc C:\PROGRA~1\Cygnus\thumbelf-000512\H-i686-cygwin32\bin/../lib/gcc-lib/thumb-elf/2.9-arm-000512/../../../../thumb-elf/lib/libg.a(errno.o)
                0x080b9430                __errno
 .text          0x080b943c       0x2c C:\PROGRA~1\Cygnus\thumbelf-000512\H-i686-cygwin32\bin/../lib/gcc-lib/thumb-elf/2.9-arm-000512/../../../../thumb-elf/lib/libg.a(fstatr.o)
                0x080b943c                _fstat_r
 .text          0x080b9468       0x30 C:\PROGRA~1\Cygnus\thumbelf-000512\H-i686-cygwin32\bin/../lib/gcc-lib/thumb-elf/2.9-arm-000512/../../../../thumb-elf/lib/libg.a(lseekr.o)
                0x080b9468                _lseek_r
 .text          0x080b9498       0x30 C:\PROGRA~1\Cygnus\thumbelf-000512\H-i686-cygwin32\bin/../lib/gcc-lib/thumb-elf/2.9-arm-000512/../../../../thumb-elf/lib/libg.a(readr.o)
                0x080b9498                _read_r
d2615 2
a2616 2
                0x080b94c8                _etext=.
                0x080b94c8                PROVIDE (etext, .)
d2621 1
a2621 1
.rodata         0x080b94c8   0x283f24
d2623 1604
a4226 1604
 .rodata        0x080b94c8       0x14 ba_effect.o
 .rodata        0x080b94dc      0x3e8 ba_player.o
                0x080b957c                WalkSoundDT
                0x080b95cc                WinBitDT
                0x080b9550                BattleDeathXposDT
                0x080b956c                DownAnimeDT
                0x080b9572                WalkAnimeDT
                0x080b94dc                playerInitDT
                0x080b9662                POffsetDT
                0x080b9566                BigJumpAnimeDT
                0x080b95e0                PLInitScchDT
                0x080b95e8                CoinReachFlashDT
                0x080b9578                HandsUpWalkAnimeDT
                0x080b9658                KamekeriSoundDT
                0x080b9575                VFlipWalkAnimeDT
                0x080b964e                KickScoreDT
                0x080b95d0                PLXPosDT
                0x080b963e                MuTeKiFlashDT
                0x080b966c                ReachPlacardData
                0x080b9540                DeathXposDT
                0x080b9560                HandUpDT
                0x080b958c                FireDamageColDT
                0x080b9638                DaI_data
                0x080b95ac                IceDamageColDT
 .rodata        0x080b98c4       0x28 ba_reach.o
                0x080b98cc                Reach_Ypos_dt
                0x080b98c4                ReachPLNumDT
 .rodata        0x080b98ec      0x120 cm_game.o
                0x080b98ec                d_error_schDT0
                0x080b994c                d_error_schDT1
                0x080b99ac                ErrChr
 .rodata        0x080b9a0c       0x30 m_battle_rom_play.o
 .rodata        0x080b9a3c      0x278 m_classic_play.o
                0x080b9c58                NoBunusAddress
                0x080b9c40                NoBonusDT
                0x080b9aec                ColData
                0x080b9a78                WaKuDT0
                0x080b9b42                YesChrDT
                0x080b9ae8                ColTMDT
                0x080b9b30                ContinueChrDT
                0x080b9b4c                CreditChrDT
                0x080b9a84                WaKuDT1
                0x080b9a3c                PLNumAddressDT
                0x080b9b0c                StartChrDT
                0x080b9c60                AllPoint3000DT
                0x080b9b48                NoChrDT
                0x080b9ae0                BonusDT1
                0x080b9a5c                BonusColDT
                0x080b9bb8                MarioYposDT
                0x080b9b58                ContinueWakuObjChrDT
                0x080b9b28                OverChrDT
                0x080b9c30                PerfectDT
                0x080b9c50                PerfectAddress
                0x080b9c70                AllPoint5000DT
 .rodata        0x080b9cb4       0x50 m_erase.o
 .rodata        0x080b9d04       0x24 m_game.o
 .rodata        0x080b9d28      0x784 m_game_sub.o
                0x080ba48c                YData
                0x080ba318                HajimekaraDT
                0x080b9db8                EnKeIUnitDT2
                0x080ba040                WinLosechrDT
                0x080b9d30                MoveYuKaCHRDT2
                0x080ba0dc                restartPosDT
                0x080ba150                WaKuUpDT
                0x080b9e38                EnKeIUnitDT3
                0x080ba178                WaKuOffSetDT
                0x080ba304                TudukeruDT
                0x080ba088                LoseTimeTBL
                0x080ba358                OamSetPosTable
                0x080b9fb8                EnKeIPanelDT3
                0x080ba038                BrosRedColorDT
                0x080ba08c                PauseDT
                0x080ba096                continueDT
                0x080ba05c                KaChiDT
                0x080ba0c0                endPosDT
                0x080ba3a2                KattaDT
                0x080ba064                MaKeDT
                0x080ba118                BtlWinCountObjPos
                0x080ba074                PlayerNoDT
                0x080ba0a6                continuePosDT
                0x080ba0ee                PauseWakuObjChrDT
                0x080b9d38                EnKeIUnitDT1
                0x080ba2bc                chrDT
                0x080ba1f4                RoundMoJiDT
                0x080ba084                WinTimeTBL
                0x080b9f38                EnKeIPanelDT1
                0x080ba0ca                restartDT
                0x080b9d28                MoveYuKaCHRDT1
                0x080b9ff8                EnKeIPanelDT4
                0x080ba164                WaKuDownDT
                0x080ba23c                CoinFlashDT
                0x080ba214                TotalMoJiDT
                0x080b9f78                EnKeIPanelDT2
                0x080ba2e4                PushStartDT
                0x080ba328                HajimekaraPosDT
                0x080b9eb8                EnKeIUnitDT4
                0x080ba460                BrosCoinDT
                0x080ba07c                PlayerNoLargeDT
                0x080ba0b6                endDT
                0x080ba06e                HikiwakeDT
                0x080ba398                FlashPlttData
                0x080ba3ae                MaketaDT
 .rodata        0x080ba4ac       0x90 m_game_title.o
 .rodata        0x080ba53c       0xf4 m_main.o
                0x080ba53c                IntrTable
                0x080ba5c8                TILTDT
 .rodata        0x080ba630      0x188 m_opening.o
 .rodata        0x080ba7b8       0x30 m_score.o
                0x080ba7b8                OffSetDT
 .rodata        0x080ba7e8       0xc4 m_title.o
 .rodata        0x080ba8ac      0x108 m_title_sub.o
 .rodata        0x080ba9b4      0x2a4 m_vs.o
                0x080ba9fc                PLNumData
                0x080baa38                IDColTime
                0x080baa58                PlayerXpos
                0x080ba9d2                BattleChr
                0x080baa34                PLNumXpos
                0x080baa54                PlayerCol
                0x080ba9c4                ClassicChr
 .rodata        0x080bac58       0x34 m_VsGame.o
 .rodata        0x080bac8c       0x6c m_VsMain.o
                0x080bac8c                IntrTable2
 .rodata        0x080bacf8      0x100 ua_char_set.o
 .rodata        0x080badf8      0x110 ua_course.o
 .rodata        0x080baf08      0x2b8 ua_ending.o
 .rodata        0x080bb1c0      0x270 ua_game.o
 .rodata        0x080bb430       0x4c ua_game_over.o
 .rodata        0x080bb47c       0x6c ua_pause.o
 .rodata        0x080bb4e8       0x8c ua_score.o
 .rodata        0x080bb574       0x7c ua_warp.o
                0x080bb57c                warp_BG_data
                0x080bb574                WARPDT
 .rodata        0x080bb5f0      0x128 um_bonus.o
 .rodata        0x080bb718       0x24 um_courseclear.o
 .rodata        0x080bb73c       0xb0 um_select.o
 .rodata        0x080bb7ec       0xb4 um_select_sub.o
 .rodata        0x080bb8a0      0x110 um_yossy.o
 .rodata        0x080bb9b0      0x254 up_common.o
                0x080bb9b8                PLFLDT
 .rodata        0x080bbc04      0x2c8 up_player.o
 .rodata        0x080bbecc       0x44 m_boot.o
 .rodata        0x080bbf10       0x24 m_sub.o
 .rodata        0x080bbf34       0x4c m_MultiSio.o
 .rodata        0x080bbf80        0x8 MultiBoot.o
 .rodata        0x080bbf88       0x14 m_bgcheck.o
 .rodata        0x080bbf9c        0x4 m_scroll.o
 .rodata        0x080bbfa0       0xb8 m_classic_sub.o
                0x080bbfa0                BackBGIDXData
                0x080bc008                BackBG1AddressData
                0x080bbfd2                BackBGSize
                0x080bbfbc                BackBGAddressData
                0x080bc000                BackBGVRAMDT
                0x080bbfa4                BackBGTMDT
                0x080bbfe8                BackBGIndexData
 .rodata        0x080bc058       0x7c ua_save.o
 .rodata        0x080bc0d4       0xe8 um_result.o
 .rodata        0x080bc1bc    0x20000 um_math.o
                0x080bc1bc                SinTbl_s16
 .rodata        0x080dc1bc       0x44 um_oamset.o
                0x080dc1c4                OffsetData
                0x080dc1bc                OamSizeData
 .rodata        0x080dc200        0x8 um_mosaic.o
 .rodata        0x080dc208       0x40 cm_game_title.o
 .rodata        0x080dc248       0xcc ua_act.o
 .rodata        0x080dc314      0x204 ua_common.o
 .rodata        0x080dc518       0x30 ua_bg.o
 .rodata        0x080dc548        0x8 ua_unit_change.o
 .rodata        0x080dc550      0x110 ua_color.o
 .rodata        0x080dc660       0x14 ua_bg3_set.o
 .rodata        0x080dc674      0x114 ua_sort.o
 .rodata        0x080dc788       0x24 ua_eggmeter.o
 .rodata        0x080dc7ac       0x68 ba_act.o
                0x080dc7c4                RotateParam
 .rodata        0x080dc814       0xa8 ba_bgYuKa.o
                0x080dc81c                bgYuKaDT
 .rodata        0x080dc8bc       0x9c ba_bucket.o
                0x080dc8bc                BuketAnimeMoveDT
                0x080dc8d4                BringItemDataTBL
 .rodata        0x080dc958      0x104 ba_Coin.o
                0x080dc9b0                CoinAnimeTime
                0x080dc9c4                CoinOamData
 .rodata        0x080dca5c       0xbc ba_common.o
                0x080dcadc                BrosScoreDT
 .rodata        0x080dcb18       0x38 ba_egg.o
                0x080dcb18                EggCoinDT
 .rodata        0x080dcb50       0xc0 ba_enFly.o
                0x080dcb5c                fxspd
                0x080dcb78                flyyspd
                0x080dcb94                fcolor
                0x080dcbb8                fly_timer
                0x080dcb50                fly_grav
                0x080dcbe8                anitimef
                0x080dcbd0                fanimeDT
                0x080dcbd8                fanitime
 .rodata        0x080dcc10       0xdc ba_enKani.o
                0x080dcc68                animeDTk
                0x080dcc70                HflipDTk
                0x080dccd4                kkHflipDT
                0x080dcca4                kanitime
                0x080dcc34                kcolor
                0x080dcc74                walkChark
                0x080dccb0                kanimetime
                0x080dcc98                kanimeDT
                0x080dcccc                kkanimeDT
                0x080dcc10                kxspd
 .rodata        0x080dccec      0x134 ba_enmy.o
                0x080dcddc                Icicle_Ypos
                0x080dcd1c                FreezerSetTableC
                0x080dcd74                RedFireSetTable
                0x080dcd6a                GreenFireBallSetTimer
                0x080dcdd4                Icicle_Xpos
                0x080dcdec                Icicle_SetTable
                0x080dcd60                RedFireBallSetTimer
                0x080dcda4                BattleFireSetTable
                0x080dcd8c                GreenFireSetTable
                0x080dcd34                FreezeFloorTableC
 .rodata        0x080dce20       0xa8 ba_enToge.o
                0x080dce44                tcolor
                0x080dce8c                atimet
                0x080dce20                txspd
                0x080dce7e                tanitime
                0x080dceb0                animeDt
                0x080dce78                tanimeDT
 .rodata        0x080dcec8       0xd8 ba_fire.o
                0x080dcf54                FireBallChrNo
                0x080dcee4                gfbxspd
                0x080dcec8                FireBallAnimeTime
                0x080dcf6c                FireBallFlip
                0x080dced4                xps
                0x080dceec                rfbxspd
                0x080dcefc                rfbyspd
 .rodata        0x080dcfa0       0x10 ba_fishBone.o
 .rodata        0x080dcfb0        0xc ba_heart.o
 .rodata        0x080dcfbc       0x7c ba_ice.o
                0x080dd000                aniTime
 .rodata        0x080dd038       0x48 ba_koura.o
                0x080dd044                KouraAnimeDT
                0x080dd050                KouraSpeedDT
                0x080dd04c                KouraFlipDT
                0x080dd064                KouraAnimeTime
 .rodata        0x080dd080       0x6c ba_kuppa.o
                0x080dd080                kpxspd
                0x080dd0b0                animeTIME
 .rodata        0x080dd0ec       0x30 ba_mutekiStar.o
                0x080dd0ec                MutekiStarTMDT
                0x080dd0f2                MutekiStarChrDT
 .rodata        0x080dd11c       0x18 ba_PipeWave.o
 .rodata        0x080dd134       0x10 ba_point.o
 .rodata        0x080dd144       0x3c ba_pow.o
 .rodata        0x080dd180       0x14 ba_smoke.o
                0x080dd180                SmokeAnimeDT
 .rodata        0x080dd194       0xa8 ba_spark.o
                0x080dd194                speedDT
 .rodata        0x080dd23c       0x28 ba_splash.o
 .rodata        0x080dd264        0xc ba_star.o
 .rodata        0x080dd270       0x54 ba_icicle.o
                0x080dd28c                IcicleAnime
 .rodata        0x080dd2c4       0x18 ba_powsmk.o
 .rodata        0x080dd2dc       0x78 ua_fairy.o
 .rodata        0x080dd354       0x3c ua_walk.o
 .rodata        0x080dd390        0x8 ua_tori.o
 .rodata        0x080dd398        0x8 ua_huck0.o
 .rodata        0x080dd3a0       0x20 ua_shoot.o
 .rodata        0x080dd3c0       0x20 ua_force.o
 .rodata        0x080dd3e0       0x28 ua_burn0.o
 .rodata        0x080dd408       0x24 ua_bird.o
 .rodata        0x080dd42c        0xc ua_ninja.o
 .rodata        0x080dd438       0x14 ua_ninj1.o
 .rodata        0x080dd44c       0x2c ua_flyng.o
 .rodata        0x080dd478       0x54 ua_pigmo.o
 .rodata        0x080dd4cc       0x2c ua_fish0.o
 .rodata        0x080dd4f8       0x14 ua_musi0.o
 .rodata        0x080dd50c        0x8 ua_tubo.o
 .rodata        0x080dd514       0x34 ua_mask.o
 .rodata        0x080dd548       0x18 ua_hebi0.o
 .rodata        0x080dd560       0x10 ua_hebi1.o
 .rodata        0x080dd570       0x28 ua_sbten.o
 .rodata        0x080dd598       0x64 ua_boss0.o
 .rodata        0x080dd5fc       0x34 ua_mikey.o
 .rodata        0x080dd630       0xa0 ua_ball1.o
 .rodata        0x080dd6d0       0x30 ua_snake.o
 .rodata        0x080dd700       0x28 ua_fire1.o
 .rodata        0x080dd728       0x3c ua_bkani.o
 .rodata        0x080dd764       0x14 ua_flwer.o
 .rodata        0x080dd778       0x24 ua_canon.o
 .rodata        0x080dd79c       0x2c ua_fnsui.o
 .rodata        0x080dd7c8       0x14 ua_icemn.o
 .rodata        0x080dd7dc       0x64 ua_fireb.o
 .rodata        0x080dd840       0x4c ua_mamuu.o
 .rodata        0x080dd88c       0x38 ua_bgkao.o
 .rodata        0x080dd8c4       0x1c ua_whats.o
 .rodata        0x080dd8e0        0x4 ua_wood.o
 .rodata        0x080dd8e4       0x40 ua_exit.o
 .rodata        0x080dd924       0x60 ua_item.o
 .rodata        0x080dd984       0x28 ua_rocket.o
 .rodata        0x080dd9ac       0x1c ua_heart.o
 .rodata        0x080dd9c8       0xb8 ua_door.o
 .rodata        0x080dda80       0x2c ua_flag.o
 .rodata        0x080ddaac       0x14 ua_lmp0.o
 .rodata        0x080ddac0       0x30 ua_star.o
 .rodata        0x080ddaf0       0x1c ua_spae.o
 .rodata        0x080ddb0c       0x68 ua_pwbk.o
 .rodata        0x080ddb74       0xac ua_bigboss.o
 .rodata        0x080ddc20       0x18 ua_gondola.o
 .rodata        0x080ddc38       0x20 ua_gonboss.o
 .rodata        0x080ddc58       0x10 ua_cherry.o
 .rodata        0x080ddc68       0x2c ua_gohoubi.o
 .rodata        0x080ddc94        0x4 ua_toge.o
 .rodata        0x080ddc98       0x5c ua_egg.o
 .rodata        0x080ddcf4        0xc ua_mask1.o
 .rodata        0x080ddd00       0x38 ua_capsule.o
 .rodata        0x080ddd38        0x8 ua_lift.o
 .rodata        0x080ddd40       0x2c ua_bubble.o
 .rodata        0x080ddd6c       0x4c ua_sboss.o
 .rodata        0x080dddb8       0x14 ua_itemball.o
 .rodata        0x080dddcc        0x4 ua_mosaic.o
 .rodata        0x080dddd0       0x48 ua_coin.o
 .rodata        0x080dde18       0x4c ua_effect.o
 .rodata        0x080dde64       0x3c ua_shock.o
 .rodata        0x080ddea0       0x6c ua_stareffect.o
 .rodata        0x080ddf0c       0x10 ua_bosseffect.o
 .rodata        0x080ddf1c       0x5c ua_cros.o
 .rodata        0x080ddf78      0x380 up_commondt.o
                0x080de2ea                VScroll_Start_Low
                0x080de2e8                VScroll_Start_High
                0x080ddf78                HScr_Vcounter_UP
                0x080de2ec                VScroll_Stop_High
                0x080de130                HScr_Vcounter_DOWN
                0x080de2f4                keyscch_direction
                0x080de2f2                scrmvx_pos_data
                0x080de2ee                VScroll_Stop_Low
                0x080de2f0                VScroll_SCNT_Data
 .rodata        0x080de2f8       0xb0 up_exst.o
 .rodata        0x080de3a8       0x80 um_yscr.o
                0x080de410                Hscr_scrmvx_pos
 .rodata        0x080de428       0x4c um_tscr.o
 .rodata        0x080de474       0x7c m_mini_malloc.o
 .rodata        0x080de4f0      0x7d8 course_data.o
                0x080de67e                BrosCouseData1
                0x080de4f0                CHR_DATA
                0x080deaae                BrosCouseData3
                0x080de896                BrosCouseData2
 .rodata        0x080decc8      0x648 course_classic.o
                0x080decc8                ClassicCourse1
                0x080deee0                ClassicCourse2
                0x080df0f8                ClassicCourse3
 .rodata        0x080df310      0x200 d_bros_BG_scl.o
                0x080df310                d_bros_BG_sclDT
 .rodata        0x080df510      0x200 d_Bros_obj_winner_scl.o
                0x080df510                d_Bros_obj_winner_sclDT
 .rodata        0x080df710     0x41c0 d_classic_bg_sch_Huff.o
                0x080df710                d_classic_bg_sch_Huff
 .rodata        0x080e38d0      0x200 d_classic_bg_scl.o
                0x080e38d0                d_classic_bg_sclDT
 .rodata        0x080e3ad0     0x545c d_classic_obj_sch_Huff.o
                0x080e3ad0                d_classic_obj_sch_Huff
 .rodata        0x080e8f2c      0x200 d_classic_obj_scl.o
                0x080e8f2c                d_classic_obj_sclDT
 .rodata        0x080e912c     0x1c00 d_classic_BGanime_sch.o
                0x080e912c                d_classic_BGanime_schDT
 .rodata        0x080ead2c      0x200 d_Bros_obj_scl.o
                0x080ead2c                d_Bros_obj_sclDT
 .rodata        0x080eaf2c     0x2800 d_title_bros_bg_sch.o
                0x080eaf2c                d_title_bros_bg_schDT
 .rodata        0x080ed72c      0x200 d_title_bros_bg_scl.o
                0x080ed72c                d_title_bros_bg_sclDT
 .rodata        0x080ed92c      0x800 d_title_kabe_ssc.o
                0x080ed92c                d_title_kabe_sscDT
 .rodata        0x080ee12c      0x800 d_title_waku_ssc.o
                0x080ee12c                d_title_waku_sscDT
 .rodata        0x080ee92c      0x800 d_title_maruc_ssc.o
                0x080ee92c                d_title_maruc_sscDT
 .rodata        0x080ef12c     0x2f78 d_title_bros_obj_Huff.o
                0x080ef12c                d_title_bros_obj_Huff
 .rodata        0x080f20a4      0x200 d_title_bros_obj_scl.o
                0x080f20a4                d_title_bros_obj_sclDT
 .rodata        0x080f22a4      0x1bc d_classic_bonus2_1_Huff.o
                0x080f22a4                classic_bonus2_1_Huff
 .rodata        0x080f2460      0x1e8 d_classic_bonus2_2_Huff.o
                0x080f2460                classic_bonus2_2_Huff
 .rodata        0x080f2648      0x214 d_classic_bonus2_3_Huff.o
                0x080f2648                classic_bonus2_3_Huff
 .rodata        0x080f285c      0x23c d_classic_bonus2_4_Huff.o
                0x080f285c                classic_bonus2_4_Huff
 .rodata        0x080f2a98      0x800 d_demo_maruc_ssc.o
                0x080f2a98                d_demo_maruc_sscDT
 .rodata        0x080f3298      0x2d8 sound/m4aLib.o
                0x080f33dc                FreqTable
                0x080f34a8                CgbFrTable
                0x080f3298                MPlyJmpTbl
                0x080f34fc                Cgb3vol
                0x080f3328                ScaleTable
                0x080f3540                xcmd_tbl
                0x080f350c                clock_tbl_rev01
                0x080f3424                CgbScTable
                0x080f34c0                NoiseTable
                0x080f340c                pcmVBtbl_rev
 .rodata        0x080f3570     0x2188 sound/SoundDat.o
                0x080f3570                voicegroup000
                0x080f41a0                voicegroup003
                0x080f3ba0                voicegroup002
                0x080f3b70                voicegroup001
                0x080f477c                mplay_table
                0x080f48fc                song_table
 .rodata        0x080f56f8      0x2d8 sound/sn_g_cork.o
                0x080f56f8                sn_g_cork
 .rodata        0x080f59d0       0xf4 sound/sn_g_fletbass.o
                0x080f59d0                sn_g_fletbass
 .rodata        0x080f5ac4      0x468 sound/sn_g_brass3.o
                0x080f5ac4                sn_g_brass3
 .rodata        0x080f5f2c      0x8dc sound/sn_g_kusa.o
                0x080f5f2c                sn_g_kusa
 .rodata        0x080f6808     0x13c0 sound/sn_g_yoshi.o
                0x080f6808                sn_g_yoshi
 .rodata        0x080f7bc8      0x7a4 sound/sn_g_steeldr.o
                0x080f7bc8                sn_g_steeldr
 .rodata        0x080f836c      0x70c sound/sn_g_kon.o
                0x080f836c                sn_g_kon
 .rodata        0x080f8a78      0x4ac sound/sn_g_hits.o
                0x080f8a78                sn_g_hits
 .rodata        0x080f8f24      0x764 sound/sn_g_oud.o
                0x080f8f24                sn_g_oud
 .rodata        0x080f9688      0x5cc sound/sn_g_timp1g_f.o
                0x080f9688                sn_g_timp1g_f
 .rodata        0x080f9c54      0x2e4 sound/sn_g_slbass7.o
                0x080f9c54                sn_g_slbass7
 .rodata        0x080f9f38      0x1a0 sound/sn_g_fantasy.o
                0x080f9f38                sn_g_fantasy
 .rodata        0x080fa0d8       0x78 sound/sn_g_panflute.o
                0x080fa0d8                sn_g_panflute
 .rodata        0x080fa150      0x6cc sound/sn_g_s5honky_3.o
                0x080fa150                sn_g_s5honky_3
 .rodata        0x080fa81c      0x1ec sound/sn_g_marimba3.o
                0x080fa81c                sn_g_marimba3
 .rodata        0x080faa08      0x7c8 sound/sn_g_pisnare.o
                0x080faa08                sn_g_pisnare
 .rodata        0x080fb1d0      0x800 sound/sn_g_cannon.o
                0x080fb1d0                sn_g_cannon
 .rodata        0x080fb9d0       0xac sound/sn_g_clarinet.o
                0x080fb9d0                sn_g_clarinet
 .rodata        0x080fba7c      0x270 sound/sn_g_trumpet.o
                0x080fba7c                sn_g_trumpet
 .rodata        0x080fbcec      0x628 sound/sn_g_heavyguitar.o
                0x080fbcec                sn_g_heavyguitar
 .rodata        0x080fc314      0x700 sound/sn_g_lowcg.o
                0x080fc314                sn_g_lowcg
 .rodata        0x080fca14       0x94 sound/sn_g_stringsd5.o
                0x080fca14                sn_g_stringsd5
 .rodata        0x080fcaa8      0x1d8 sound/sn_g_clhihat2.o
                0x080fcaa8                sn_g_clhihat2
 .rodata        0x080fcc80      0x2f8 sound/sn_g_bsdrum.o
                0x080fcc80                sn_g_bsdrum
 .rodata        0x080fcf78      0x44c sound/sn_g_rvsnare.o
                0x080fcf78                sn_g_rvsnare
 .rodata        0x080fd3c4     0x5650 sound/sn_o_usa_00.o
                0x080fd3c4                sn_o_usa_00
 .rodata        0x08102a14     0x44c0 sound/sn_o_br_01.o
                0x08102a14                sn_o_br_01
 .rodata        0x08106ed4     0x2c24 sound/sn_o_ma_07.o
                0x08106ed4                sn_o_ma_07
 .rodata        0x08109af8     0x39a4 sound/sn_o_ma_08.o
                0x08109af8                sn_o_ma_08
 .rodata        0x0810d49c     0x390c sound/sn_o_ma_09.o
                0x0810d49c                sn_o_ma_09
 .rodata        0x08110da8     0x37d0 sound/sn_o_ma_10.o
                0x08110da8                sn_o_ma_10
 .rodata        0x08114578     0x126c sound/sn_o_ma_11.o
                0x08114578                sn_o_ma_11
 .rodata        0x081157e4     0x1f88 sound/sn_o_ma_12.o
                0x081157e4                sn_o_ma_12
 .rodata        0x0811776c     0x131c sound/sn_o_ma_14.o
                0x0811776c                sn_o_ma_14
 .rodata        0x08118a88     0x2764 sound/sn_o_ma_16.o
                0x08118a88                sn_o_ma_16
 .rodata        0x0811b1ec     0x20d4 sound/sn_o_ma_17.o
                0x0811b1ec                sn_o_ma_17
 .rodata        0x0811d2c0     0x36b4 sound/sn_o_ma_19.o
                0x0811d2c0                sn_o_ma_19
 .rodata        0x08120974     0x1214 sound/sn_o_ma_20.o
                0x08120974                sn_o_ma_20
 .rodata        0x08121b88      0xba4 sound/sn_o_ma_21.o
                0x08121b88                sn_o_ma_21
 .rodata        0x0812272c     0x6e48 sound/sn_o_ma_22.o
                0x0812272c                sn_o_ma_22
 .rodata        0x08129574     0x3360 sound/sn_o_ma_23.o
                0x08129574                sn_o_ma_23
 .rodata        0x0812c8d4     0x2084 sound/sn_o_ma_24.o
                0x0812c8d4                sn_o_ma_24
 .rodata        0x0812e958     0x152c sound/sn_o_ma_25.o
                0x0812e958                sn_o_ma_25
 .rodata        0x0812fe84     0x24b0 sound/sn_o_ma_26.o
                0x0812fe84                sn_o_ma_26
 .rodata        0x08132334     0x1dac sound/sn_o_ma_27.o
                0x08132334                sn_o_ma_27
 .rodata        0x081340e0     0x31e4 sound/sn_o_ma_29.o
                0x081340e0                sn_o_ma_29
 .rodata        0x081372c4     0x27a0 sound/sn_o_ma_30.o
                0x081372c4                sn_o_ma_30
 .rodata        0x08139a64     0x2d00 sound/sn_o_ma_31.o
                0x08139a64                sn_o_ma_31
 .rodata        0x0813c764     0x157c sound/sn_o_ma_32.o
                0x0813c764                sn_o_ma_32
 .rodata        0x0813dce0     0x1020 sound/sn_o_ma_33.o
                0x0813dce0                sn_o_ma_33
 .rodata        0x0813ed00     0x2088 sound/sn_o_ma_34.o
                0x0813ed00                sn_o_ma_34
 .rodata        0x08140d88     0x2ec4 sound/sn_o_ma_35.o
                0x08140d88                sn_o_ma_35
 .rodata        0x08143c4c     0x2d50 sound/sn_o_ma_36.o
                0x08143c4c                sn_o_ma_36
 .rodata        0x0814699c     0x35b4 sound/sn_o_ma_37.o
                0x0814699c                sn_o_ma_37
 .rodata        0x08149f50     0x5f14 sound/sn_o_mo_01.o
                0x08149f50                sn_o_mo_01
 .rodata        0x0814fe64     0x1c8c sound/sn_o_mo_02.o
                0x0814fe64                sn_o_mo_02
 .rodata        0x08151af0     0x6a18 sound/sn_o_mo_03.o
                0x08151af0                sn_o_mo_03
 .rodata        0x08158508     0x2e70 sound/sn_o_tr_01.o
                0x08158508                sn_o_tr_01
 .rodata        0x0815b378     0x2b08 sound/sn_o_tr_02.o
                0x0815b378                sn_o_tr_02
 .rodata        0x0815de80     0x24e4 sound/sn_o_tr_03.o
                0x0815de80                sn_o_tr_03
 .rodata        0x08160364     0x39b4 sound/sn_o_tr_04.o
                0x08160364                sn_o_tr_04
 .rodata        0x08163d18     0x4f54 sound/sn_o_tr_05.o
                0x08163d18                sn_o_tr_05
 .rodata        0x08168c6c     0x738c sound/sn_o_cl_01.o
                0x08168c6c                sn_o_cl_01
 .rodata        0x0816fff8     0x2a78 sound/sn_o_cl_02.o
                0x0816fff8                sn_o_cl_02
 .rodata        0x08172a70     0x5ea8 sound/sn_o_cl_03.o
                0x08172a70                sn_o_cl_03
 .rodata        0x08178918     0x4968 sound/sn_o_fl_01.o
                0x08178918                sn_o_fl_01
 .rodata        0x0817d280     0x2a8c sound/sn_o_fl_02.o
                0x0817d280                sn_o_fl_02
 .rodata        0x0817fd0c     0x20f4 sound/sn_o_fl_03.o
                0x0817fd0c                sn_o_fl_03
 .rodata        0x08181e00     0x7878 sound/sn_o_wa_01.o
                0x08181e00                sn_o_wa_01
 .rodata        0x08189678     0x191c sound/sn_o_wa_02.o
                0x08189678                sn_o_wa_02
 .rodata        0x0818af94     0x1ee0 sound/sn_o_wa_03.o
                0x0818af94                sn_o_wa_03
 .rodata        0x0818ce74     0x5f3c sound/sn_o_wa_04.o
                0x0818ce74                sn_o_wa_04
 .rodata        0x08192db0     0xd464 sound/sn_o_wa_05.o
                0x08192db0                sn_o_wa_05
 .rodata        0x081a0214     0x4734 sound/sn_o_na_01.o
                0x081a0214                sn_o_na_01
 .rodata        0x081a4948     0x2e44 sound/sn_o_na_02.o
                0x081a4948                sn_o_na_02
 .rodata        0x081a778c     0x2900 sound/sn_o_na_04.o
                0x081a778c                sn_o_na_04
 .rodata        0x081aa08c     0x280c sound/sn_o_na_05.o
                0x081aa08c                sn_o_na_05
 .rodata        0x081ac898     0x3e44 sound/sn_o_pi_01.o
                0x081ac898                sn_o_pi_01
 .rodata        0x081b06dc     0x4ba8 sound/sn_o_pi_02.o
                0x081b06dc                sn_o_pi_02
 .rodata        0x081b5284     0x2058 sound/sn_o_pi_03.o
                0x081b5284                sn_o_pi_03
 .rodata        0x081b72dc     0x6158 sound/sn_o_pi_04.o
                0x081b72dc                sn_o_pi_04
 .rodata        0x081bd434     0x45e8 sound/sn_o_re_01.o
                0x081bd434                sn_o_re_01
 .rodata        0x081c1a1c     0x4c20 sound/sn_o_re_02.o
                0x081c1a1c                sn_o_re_02
 .rodata        0x081c663c     0x1594 sound/sn_o_re_03.o
                0x081c663c                sn_o_re_03
 .rodata        0x081c7bd0     0x4280 sound/sn_o_re_04.o
                0x081c7bd0                sn_o_re_04
 .rodata        0x081cbe50     0x5388 sound/sn_o_gr_01.o
                0x081cbe50                sn_o_gr_01
 .rodata        0x081d11d8     0x6e04 sound/sn_o_gr_02.o
                0x081d11d8                sn_o_gr_02
 .rodata        0x081d7fdc     0x1fe8 sound/sn_o_gr_03.o
                0x081d7fdc                sn_o_gr_03
 .rodata        0x081d9fc4     0x62e4 sound/sn_o_gr_04.o
                0x081d9fc4                sn_o_gr_04
 .rodata        0x081e02a8     0x2498 sound/sn_o_lu_06.o
                0x081e02a8                sn_o_lu_06
 .rodata        0x081e2740     0x2e60 sound/sn_o_lu_08.o
                0x081e2740                sn_o_lu_08
 .rodata        0x081e55a0     0x2630 sound/sn_o_lu_09.o
                0x081e55a0                sn_o_lu_09
 .rodata        0x081e7bd0     0x2c40 sound/sn_o_lu_10.o
                0x081e7bd0                sn_o_lu_10
 .rodata        0x081ea810     0x11b8 sound/sn_o_lu_11.o
                0x081ea810                sn_o_lu_11
 .rodata        0x081eb9c8     0x1050 sound/sn_o_lu_12.o
                0x081eb9c8                sn_o_lu_12
 .rodata        0x081eca18     0x1db4 sound/sn_o_lu_14.o
                0x081eca18                sn_o_lu_14
 .rodata        0x081ee7cc     0x1930 sound/sn_o_lu_16.o
                0x081ee7cc                sn_o_lu_16
 .rodata        0x081f00fc     0x1754 sound/sn_o_lu_17.o
                0x081f00fc                sn_o_lu_17
 .rodata        0x081f1850     0x339c sound/sn_o_lu_19.o
                0x081f1850                sn_o_lu_19
 .rodata        0x081f4bec      0xfa4 sound/sn_o_lu_20.o
                0x081f4bec                sn_o_lu_20
 .rodata        0x081f5b90     0x234c sound/sn_o_lu_21.o
                0x081f5b90                sn_o_lu_21
 .rodata        0x081f7edc     0x65cc sound/sn_o_lu_22.o
                0x081f7edc                sn_o_lu_22
 .rodata        0x081fe4a8     0x3a9c sound/sn_o_lu_23.o
                0x081fe4a8                sn_o_lu_23
 .rodata        0x08201f44     0x1d70 sound/sn_o_lu_24.o
                0x08201f44                sn_o_lu_24
 .rodata        0x08203cb4     0x1968 sound/sn_o_lu_25.o
                0x08203cb4                sn_o_lu_25
 .rodata        0x0820561c     0x1f54 sound/sn_o_lu_26.o
                0x0820561c                sn_o_lu_26
 .rodata        0x08207570     0x2304 sound/sn_o_lu_27.o
                0x08207570                sn_o_lu_27
 .rodata        0x08209874     0x372c sound/sn_o_lu_28.o
                0x08209874                sn_o_lu_28
 .rodata        0x0820cfa0     0x2200 sound/sn_o_lu_29.o
                0x0820cfa0                sn_o_lu_29
 .rodata        0x0820f1a0     0x2780 sound/sn_o_lu_30.o
                0x0820f1a0                sn_o_lu_30
 .rodata        0x08211920     0x1eb0 sound/sn_o_lu_31.o
                0x08211920                sn_o_lu_31
 .rodata        0x082137d0     0x120c sound/sn_o_lu_32.o
                0x082137d0                sn_o_lu_32
 .rodata        0x082149dc     0x26e0 sound/sn_o_lu_33.o
                0x082149dc                sn_o_lu_33
 .rodata        0x082170bc     0x4298 sound/sn_o_lu_34.o
                0x082170bc                sn_o_lu_34
 .rodata        0x0821b354     0x34ac sound/sn_o_lu_35.o
                0x0821b354                sn_o_lu_35
 .rodata        0x0821e800     0x1ff4 sound/sn_o_lu_36.o
                0x0821e800                sn_o_lu_36
 .rodata        0x082207f4     0x30b4 sound/sn_o_pe_06.o
                0x082207f4                sn_o_pe_06
 .rodata        0x082238a8     0x1b40 sound/sn_o_pe_08.o
                0x082238a8                sn_o_pe_08
 .rodata        0x082253e8     0x1268 sound/sn_o_pe_09.o
                0x082253e8                sn_o_pe_09
 .rodata        0x08226650     0x1f88 sound/sn_o_pe_10.o
                0x08226650                sn_o_pe_10
 .rodata        0x082285d8     0x28f8 sound/sn_o_pe_11.o
                0x082285d8                sn_o_pe_11
 .rodata        0x0822aed0     0x10dc sound/sn_o_pe_13.o
                0x0822aed0                sn_o_pe_13
 .rodata        0x0822bfac     0x2644 sound/sn_o_pe_15.o
                0x0822bfac                sn_o_pe_15
 .rodata        0x0822e5f0     0x18b4 sound/sn_o_pe_16.o
                0x0822e5f0                sn_o_pe_16
 .rodata        0x0822fea4     0x3be4 sound/sn_o_pe_18.o
                0x0822fea4                sn_o_pe_18
 .rodata        0x08233a88      0x9f4 sound/sn_o_pe_19.o
                0x08233a88                sn_o_pe_19
 .rodata        0x0823447c     0x1864 sound/sn_o_pe_20.o
                0x0823447c                sn_o_pe_20
 .rodata        0x08235ce0     0x4810 sound/sn_o_pe_21.o
                0x08235ce0                sn_o_pe_21
 .rodata        0x0823a4f0     0x4110 sound/sn_o_pe_22.o
                0x0823a4f0                sn_o_pe_22
 .rodata        0x0823e600     0x1c3c sound/sn_o_pe_23.o
                0x0823e600                sn_o_pe_23
 .rodata        0x0824023c     0x13c8 sound/sn_o_pe_24.o
                0x0824023c                sn_o_pe_24
 .rodata        0x08241604     0x16cc sound/sn_o_pe_25.o
                0x08241604                sn_o_pe_25
 .rodata        0x08242cd0     0x201c sound/sn_o_pe_26.o
                0x08242cd0                sn_o_pe_26
 .rodata        0x08244cec     0x3538 sound/sn_o_pe_28.o
                0x08244cec                sn_o_pe_28
 .rodata        0x08248224     0x21b8 sound/sn_o_pe_29.o
                0x08248224                sn_o_pe_29
 .rodata        0x0824a3dc     0x2e9c sound/sn_o_pe_30.o
                0x0824a3dc                sn_o_pe_30
 .rodata        0x0824d278     0x1868 sound/sn_o_pe_31.o
                0x0824d278                sn_o_pe_31
 .rodata        0x0824eae0     0x1d9c sound/sn_o_pe_32.o
                0x0824eae0                sn_o_pe_32
 .rodata        0x0825087c     0x2db4 sound/sn_o_pe_33.o
                0x0825087c                sn_o_pe_33
 .rodata        0x08253630     0x2a90 sound/sn_o_pe_34.o
                0x08253630                sn_o_pe_34
 .rodata        0x082560c0     0x2c78 sound/sn_o_pe_35.o
                0x082560c0                sn_o_pe_35
 .rodata        0x08258d38     0x2e30 sound/sn_o_pe_36.o
                0x08258d38                sn_o_pe_36
 .rodata        0x0825bb68     0x2564 sound/sn_o_to_06.o
                0x0825bb68                sn_o_to_06
 .rodata        0x0825e0cc     0x3118 sound/sn_o_to_07.o
                0x0825e0cc                sn_o_to_07
 .rodata        0x082611e4     0x14a0 sound/sn_o_to_08.o
                0x082611e4                sn_o_to_08
 .rodata        0x08262684     0x2070 sound/sn_o_to_09.o
                0x08262684                sn_o_to_09
 .rodata        0x082646f4     0x22d4 sound/sn_o_to_10.o
                0x082646f4                sn_o_to_10
 .rodata        0x082669c8     0x34e8 sound/sn_o_to_11.o
                0x082669c8                sn_o_to_11
 .rodata        0x08269eb0     0x1574 sound/sn_o_to_13.o
                0x08269eb0                sn_o_to_13
 .rodata        0x0826b424     0x25d8 sound/sn_o_to_15.o
                0x0826b424                sn_o_to_15
 .rodata        0x0826d9fc      0xda4 sound/sn_o_to_16.o
                0x0826d9fc                sn_o_to_16
 .rodata        0x0826e7a0     0x57cc sound/sn_o_to_18.o
                0x0826e7a0                sn_o_to_18
 .rodata        0x08273f6c     0x1bf8 sound/sn_o_to_19.o
                0x08273f6c                sn_o_to_19
 .rodata        0x08275b64     0x1594 sound/sn_o_to_20.o
                0x08275b64                sn_o_to_20
 .rodata        0x082770f8     0x7518 sound/sn_o_to_21.o
                0x082770f8                sn_o_to_21
 .rodata        0x0827e610     0x4780 sound/sn_o_to_22.o
                0x0827e610                sn_o_to_22
 .rodata        0x08282d90     0x20b4 sound/sn_o_to_23.o
                0x08282d90                sn_o_to_23
 .rodata        0x08284e44     0x1758 sound/sn_o_to_24.o
                0x08284e44                sn_o_to_24
 .rodata        0x0828659c     0x1e54 sound/sn_o_to_25.o
                0x0828659c                sn_o_to_25
 .rodata        0x082883f0     0x2ab0 sound/sn_o_to_26.o
                0x082883f0                sn_o_to_26
 .rodata        0x0828aea0     0x3e10 sound/sn_o_to_28.o
                0x0828aea0                sn_o_to_28
 .rodata        0x0828ecb0     0x24c0 sound/sn_o_to_29.o
                0x0828ecb0                sn_o_to_29
 .rodata        0x08291170     0x1f40 sound/sn_o_to_30.o
                0x08291170                sn_o_to_30
 .rodata        0x082930b0     0x1e84 sound/sn_o_to_31.o
                0x082930b0                sn_o_to_31
 .rodata        0x08294f34     0x23c8 sound/sn_o_to_32.o
                0x08294f34                sn_o_to_32
 .rodata        0x082972fc     0x28f4 sound/sn_o_to_33.o
                0x082972fc                sn_o_to_33
 .rodata        0x08299bf0     0x2878 sound/sn_o_to_34.o
                0x08299bf0                sn_o_to_34
 .rodata        0x0829c468     0x2b6c sound/sn_o_to_35.o
                0x0829c468                sn_o_to_35
 .rodata        0x0829efd4     0x3538 sound/sn_o_to_36.o
                0x0829efd4                sn_o_to_36
 .rodata        0x082a250c     0x45e8 sound/sn_o_me_01.o
                0x082a250c                sn_o_me_01
 .rodata        0x082a6af4     0x4c20 sound/sn_o_me_02.o
                0x082a6af4                sn_o_me_02
 .rodata        0x082ab714     0x1594 sound/sn_o_me_03.o
                0x082ab714                sn_o_me_03
 .rodata        0x082acca8     0x4280 sound/sn_o_me_04.o
                0x082acca8                sn_o_me_04
 .rodata        0x082b0f28     0x1ac0 sound/sn_o_ma_17ya.o
                0x082b0f28                sn_o_ma_17ya
 .rodata        0x082b29e8     0x181c sound/sn_o_lu_17ya.o
                0x082b29e8                sn_o_lu_17ya
 .rodata        0x082b4204      0xd64 sound/sn_o_pe_16ya.o
                0x082b4204                sn_o_pe_16ya
 .rodata        0x082b4f68      0x944 sound/sn_o_to_16ya.o
                0x082b4f68                sn_o_to_16ya
 .rodata        0x082b58ac      0x324 sound/sn_TITLE.o
                0x082b5bb0                sn_TITLE
 .rodata        0x082b5bd0       0x74 sound/sn_STAGE1.o
                0x082b5c34                sn_STAGE1
 .rodata        0x082b5c44       0x4c sound/sn_STAGE2.o
                0x082b5c80                sn_STAGE2
 .rodata        0x082b5c90       0xf0 sound/sn_CLEAR.o
                0x082b5d74                sn_CLEAR
 .rodata        0x082b5d80       0xa4 sound/sn_GAMEOVER.o
                0x082b5e14                sn_GAMEOVER
 .rodata        0x082b5e24       0x1c sound/sn_BONUS.o
                0x082b5e34                sn_BONUS
 .rodata        0x082b5e40       0x1c sound/sn_KEKKA.o
                0x082b5e50                sn_KEKKA
 .rodata        0x082b5e5c       0x40 sound/sn_PERFECT.o
                0x082b5e8c                sn_PERFECT
 .rodata        0x082b5e9c       0xec sound/sn_BATTLE_DEAD.o
                0x082b5f7c                sn_BATTLE_DEAD
 .rodata        0x082b5f88       0x2c sound/sn_HEART.o
                0x082b5fa8                sn_HEART
 .rodata        0x082b5fb4       0xb0 sound/sn_COIN5.o
                0x082b6058                sn_COIN5
 .rodata        0x082b6064       0x40 sound/sn_JUMP.o
                0x082b6098                sn_JUMP
 .rodata        0x082b60a4       0x20 sound/sn_SLIP.o
                0x082b60b8                sn_SLIP
 .rodata        0x082b60c4       0x1c sound/sn_WALK_C.o
                0x082b60d4                sn_WALK_C
 .rodata        0x082b60e0       0x1c sound/sn_WALK_E.o
                0x082b60f0                sn_WALK_E
 .rodata        0x082b60fc       0x1c sound/sn_WALK_G.o
                0x082b610c                sn_WALK_G
 .rodata        0x082b6118       0x34 sound/sn_MR_DEAD.o
                0x082b6140                sn_MR_DEAD
 .rodata        0x082b614c       0x3c sound/sn_MR_DOWN.o
                0x082b617c                sn_MR_DOWN
 .rodata        0x082b6188       0x64 sound/sn_MR_NEXT.o
                0x082b61e0                sn_MR_NEXT
 .rodata        0x082b61ec       0x40 sound/sn_POW.o
                0x082b6220                sn_POW
 .rodata        0x082b622c       0x2c sound/sn_PAUSE1UP.o
                0x082b624c                sn_PAUSE1UP
 .rodata        0x082b6258       0x1c sound/sn_KAME.o
                0x082b6268                sn_KAME
 .rodata        0x082b6274       0x3c sound/sn_KANI.o
                0x082b62a4                sn_KANI
 .rodata        0x082b62b0       0x6c sound/sn_HAE.o
                0x082b6310                sn_HAE
 .rodata        0x082b631c       0x50 sound/sn_COIN_OUT.o
                0x082b6360                sn_COIN_OUT
 .rodata        0x082b636c       0x40 sound/sn_TEKI_ATTACK.o
                0x082b63a0                sn_TEKI_ATTACK
 .rodata        0x082b63ac       0x5c sound/sn_TEKI_DEAD.o
                0x082b63fc                sn_TEKI_DEAD
 .rodata        0x082b6408       0x20 sound/sn_DOBON.o
                0x082b641c                sn_DOBON
 .rodata        0x082b6428       0x48 sound/sn_COIN_GET.o
                0x082b6464                sn_COIN_GET
 .rodata        0x082b6470       0x54 sound/sn_FREEZER.o
                0x082b64b8                sn_FREEZER
 .rodata        0x082b64c4       0x70 sound/sn_FREEZ_DEAD.o
                0x082b6528                sn_FREEZ_DEAD
 .rodata        0x082b6534       0x38 sound/sn_FIRE.o
                0x082b6560                sn_FIRE
 .rodata        0x082b656c      0x114 sound/sn_boss_bros.o
                0x082b666c                sn_boss_bros
 .rodata        0x082b6680       0xec sound/sn_star_bros.o
                0x082b6754                sn_star_bros
 .rodata        0x082b676c      0x13c sound/sn_KUPPA.o
                0x082b6894                sn_KUPPA
 .rodata        0x082b68a8       0x68 sound/sn_KUPPA_DOSIN.o
                0x082b6904                sn_KUPPA_DOSIN
 .rodata        0x082b6910       0xa4 sound/sn_win1.o
                0x082b6998                sn_win1
 .rodata        0x082b69b4       0xdc sound/sn_lose1.o
                0x082b6a78                sn_lose1
 .rodata        0x082b6a90       0xd4 sound/sn_win2.o
                0x082b6b4c                sn_win2
 .rodata        0x082b6b64       0xa8 sound/sn_lose2.o
                0x082b6bf4                sn_lose2
 .rodata        0x082b6c0c      0x290 sound/sn_battle2.o
                0x082b6e80                sn_battle2
 .rodata        0x082b6e9c      0x15c sound/sn_battlekekka.o
                0x082b6fdc                sn_battlekekka
 .rodata        0x082b6ff8       0x80 sound/sn_zelda_fan.o
                0x082b7060                sn_zelda_fan
 .rodata        0x082b7078       0x28 sound/sn_KUPPAFIRE.o
                0x082b7094                sn_KUPPAFIRE
 .rodata        0x082b70a0       0x1c sound/sn_BAKETU.o
                0x082b70b0                sn_BAKETU
 .rodata        0x082b70bc       0x3c sound/sn_MOTI.o
                0x082b70ec                sn_MOTI
 .rodata        0x082b70f8       0x24 sound/sn_NAGE.o
                0x082b7110                sn_NAGE
 .rodata        0x082b711c       0x28 sound/sn_TAME.o
                0x082b7138                sn_TAME
 .rodata        0x082b7144       0x60 sound/sn_DAMAGE.o
                0x082b7198                sn_DAMAGE
 .rodata        0x082b71a4       0x78 sound/sn_TIBI.o
                0x082b7210                sn_TIBI
 .rodata        0x082b721c       0x38 sound/sn_NORI.o
                0x082b7248                sn_NORI
 .rodata        0x082b7254       0x30 sound/sn_BUTUKARI.o
                0x082b7278                sn_BUTUKARI
 .rodata        0x082b7284       0x20 sound/sn_HEART_GET.o
                0x082b7298                sn_HEART_GET
 .rodata        0x082b72a4       0x50 sound/sn_DEKA.o
                0x082b72e8                sn_DEKA
 .rodata        0x082b72f4       0xb8 sound/sn_KAO.o
                0x082b73a0                sn_KAO
 .rodata        0x082b73ac       0x2c sound/sn_PUSH.o
                0x082b73cc                sn_PUSH
 .rodata        0x082b73d8       0x80 sound/sn_KUPPA_DAMAGE.o
                0x082b744c                sn_KUPPA_DAMAGE
 .rodata        0x082b7458       0xf4 sound/sn_KUPPA_DEAD.o
                0x082b7540                sn_KUPPA_DEAD
 .rodata        0x082b754c       0x2c sound/sn_SHIFT.o
                0x082b756c                sn_SHIFT
 .rodata        0x082b7578       0x5c sound/sn_SAVE.o
                0x082b75c0                sn_SAVE
 .rodata        0x082b75d4       0xd0 sound/sn_intro_battle.o
                0x082b768c                sn_intro_battle
 .rodata        0x082b76a4       0x1c sound/sn_KAMEKERI1.o
                0x082b76b4                sn_KAMEKERI1
 .rodata        0x082b76c0       0x1c sound/sn_KAMEKERI2.o
                0x082b76d0                sn_KAMEKERI2
 .rodata        0x082b76dc       0x1c sound/sn_KAMEKERI3.o
                0x082b76ec                sn_KAMEKERI3
 .rodata        0x082b76f8       0x1c sound/sn_KAMEKERI4.o
                0x082b7708                sn_KAMEKERI4
 .rodata        0x082b7714       0x2c sound/sn_PINPON.o
                0x082b7734                sn_PINPON
 .rodata        0x082b7740       0x24 sound/sn_BUU.o
                0x082b7758                sn_BUU
 .rodata        0x082b7764       0x84 sound/sn_battlekekka_intro.o
                0x082b77d4                sn_battlekekka_intro
 .rodata        0x082b77e8       0x1c sound/sn_FIREDEAD.o
                0x082b77f8                sn_FIREDEAD
 .rodata        0x082b7804       0x24 sound/sn_TURARA_DEAD.o
                0x082b781c                sn_TURARA_DEAD
 .rodata        0x082b7828      0x4ac sound/sn_battle3.o
                0x082b7cb8                sn_battle3
 .rodata        0x082b7cd4      0x328 sound/sn_battle4.o
                0x082b7fe0                sn_battle4
 .rodata        0x082b7ffc      0x3b8 sound/sn_bassdrum3.o
                0x082b8398                sn_bassdrum3
 .rodata        0x082b83b4       0xdc sound/sn_intro_bonus.o
                0x082b8474                sn_intro_bonus
 .rodata        0x082b8490       0x1c sound/sn_NOBONUS.o
                0x082b84a0                sn_NOBONUS
 .rodata        0x082b84ac      0x8f4 sound/sn_usa_title.o
                0x082b8d78                sn_usa_title
 .rodata        0x082b8da0      0xa70 sound/sn_tijou.o
                0x082b97f0                sn_tijou
 .rodata        0x082b9810      0x214 sound/sn_chika.o
                0x082b9a08                sn_chika
 .rodata        0x082b9a24      0x2e4 sound/sn_ura.o
                0x082b9ce8                sn_ura
 .rodata        0x082b9d08      0x594 sound/sn_select.o
                0x082ba27c                sn_select
 .rodata        0x082ba29c      0x2cc sound/sn_boss.o
                0x082ba548                sn_boss
 .rodata        0x082ba568      0x3e0 sound/sn_boss_mamu.o
                0x082ba928                sn_boss_mamu
 .rodata        0x082ba948      0x11c sound/sn_boss_clear.o
                0x082baa48                sn_boss_clear
 .rodata        0x082baa64       0xe4 sound/sn_suishou.o
                0x082bab2c                sn_suishou
 .rodata        0x082bab48       0xcc sound/sn_game_over.o
                0x082babf4                sn_game_over
 .rodata        0x082bac14       0x88 sound/sn_slot_start.o
                0x082bac84                sn_slot_start
 .rodata        0x082bac9c       0xa4 sound/sn_usa_dead.o
                0x082bad28                sn_usa_dead
 .rodata        0x082bad40      0x188 sound/sn_star.o
                0x082baeac                sn_star
 .rodata        0x082baec8      0x350 sound/sn_warp.o
                0x082bb1fc                sn_warp
 .rodata        0x082bb218      0x968 sound/sn_usa_ending.o
                0x082bbb60                sn_usa_ending
 .rodata        0x082bbb80       0x28 sound/sn_se_final.o
                0x082bbb9c                sn_se_final
 .rodata        0x082bbba8       0x24 sound/sn_se_kettei.o
                0x082bbbc0                sn_se_kettei
 .rodata        0x082bbbcc       0x24 sound/sn_se_nage.o
                0x082bbbe4                sn_se_nage
 .rodata        0x082bbbf0       0x20 sound/sn_se_chery.o
                0x082bbc04                sn_se_chery
 .rodata        0x082bbc10       0x28 sound/sn_se_tekidead.o
                0x082bbc2c                sn_se_tekidead
 .rodata        0x082bbc38       0x28 sound/sn_se_hasigo.o
                0x082bbc54                sn_se_hasigo
 .rodata        0x082bbc60       0x60 sound/sn_se_damage.o
                0x082bbcb4                sn_se_damage
 .rodata        0x082bbcc0       0x1c sound/sn_se_moti1.o
                0x082bbcd0                sn_se_moti1
 .rodata        0x082bbcdc       0x3c sound/sn_se_moti2.o
                0x082bbd0c                sn_se_moti2
 .rodata        0x082bbd18       0x28 sound/sn_se_timer.o
                0x082bbd34                sn_se_timer
 .rodata        0x082bbd40       0x48 sound/sn_se_dooropen.o
                0x082bbd7c                sn_se_dooropen
 .rodata        0x082bbd88       0x34 sound/sn_se_doorclose.o
                0x082bbdb0                sn_se_doorclose
 .rodata        0x082bbdbc       0x30 sound/sn_se_kamen.o
                0x082bbde0                sn_se_kamen
 .rodata        0x082bbdec       0x2c sound/sn_se_kujira.o
                0x082bbe0c                sn_se_kujira
 .rodata        0x082bbe18       0x28 sound/sn_se_bomb.o
                0x082bbe34                sn_se_bomb
 .rodata        0x082bbe40       0x1c sound/sn_se_coin.o
                0x082bbe50                sn_se_coin
 .rodata        0x082bbe5c       0x28 sound/sn_se_tame.o
                0x082bbe78                sn_se_tame
 .rodata        0x082bbe84       0x30 sound/sn_se_tuboin.o
                0x082bbea8                sn_se_tuboin
 .rodata        0x082bbeb4       0x30 sound/sn_se_tuboout.o
                0x082bbed8                sn_se_tuboout
 .rodata        0x082bbee4       0x24 sound/sn_se_1up.o
                0x082bbefc                sn_se_1up
 .rodata        0x082bbf08       0x48 sound/sn_se_pow.o
                0x082bbf44                sn_se_pow
 .rodata        0x082bbf50       0x20 sound/sn_se_pause.o
                0x082bbf64                sn_se_pause
 .rodata        0x082bbf70       0x50 sound/sn_se_toriopen.o
                0x082bbfb4                sn_se_toriopen
 .rodata        0x082bbfc0       0x50 sound/sn_se_toriclose.o
                0x082bc004                sn_se_toriclose
 .rodata        0x082bc010       0x54 sound/sn_se_kinoko.o
                0x082bc058                sn_se_kinoko
 .rodata        0x082bc064       0x24 sound/sn_se_slotroll.o
                0x082bc07c                sn_se_slotroll
 .rodata        0x082bc088       0x20 sound/sn_se_slotkettei.o
                0x082bc09c                sn_se_slotkettei
 .rodata        0x082bc0a8       0x6c sound/sn_se_slotdrum1.o
                0x082bc108                sn_se_slotdrum1
 .rodata        0x082bc114       0x24 sound/sn_se_slotdrum2.o
                0x082bc12c                sn_se_slotdrum2
 .rodata        0x082bc138       0x40 sound/sn_se_bossdamage.o
                0x082bc16c                sn_se_bossdamage
 .rodata        0x082bc178       0x38 sound/sn_se_bosshaku.o
                0x082bc1a4                sn_se_bosshaku
 .rodata        0x082bc1b0       0x98 sound/sn_se_rakka.o
                0x082bc23c                sn_se_rakka
 .rodata        0x082bc248       0x4c sound/sn_se_bossdead.o
                0x082bc288                sn_se_bossdead
 .rodata        0x082bc294       0x34 sound/sn_se_kourakie.o
                0x082bc2bc                sn_se_kourakie
 .rodata        0x082bc2c8       0x3c sound/sn_se_jump.o
                0x082bc2f8                sn_se_jump
 .rodata        0x082bc304       0x44 sound/sn_se_rocket.o
                0x082bc33c                sn_se_rocket
 .rodata        0x082bc348       0x78 sound/sn_se_tibi.o
                0x082bc3b4                sn_se_tibi
 .rodata        0x082bc3c0       0x38 sound/sn_se_slip.o
                0x082bc3ec                sn_se_slip
 .rodata        0x082bc3f8       0x1c sound/sn_se_kamekeri0.o
                0x082bc408                sn_se_kamekeri0
 .rodata        0x082bc414       0x1c sound/sn_se_kamekeri1.o
                0x082bc424                sn_se_kamekeri1
 .rodata        0x082bc430       0x1c sound/sn_se_kamekeri2.o
                0x082bc440                sn_se_kamekeri2
 .rodata        0x082bc44c       0x1c sound/sn_se_kamekeri3.o
                0x082bc45c                sn_se_kamekeri3
 .rodata        0x082bc468       0x1c sound/sn_se_kamekeri4.o
                0x082bc478                sn_se_kamekeri4
 .rodata        0x082bc484       0x1c sound/sn_se_kamekeri5.o
                0x082bc494                sn_se_kamekeri5
 .rodata        0x082bc4a0       0x1c sound/sn_se_kamekeri6.o
                0x082bc4b0                sn_se_kamekeri6
 .rodata        0x082bc4bc       0x1c sound/sn_se_kamekeri7.o
                0x082bc4cc                sn_se_kamekeri7
 .rodata        0x082bc4d8       0x1c sound/sn_se_kamekeri8.o
                0x082bc4e8                sn_se_kamekeri8
 .rodata        0x082bc4f4       0x58 sound/sn_se_mamu.o
                0x082bc540                sn_se_mamu
 .rodata        0x082bc54c       0xbc sound/sn_se_mamudead.o
                0x082bc5fc                sn_se_mamudead
 .rodata        0x082bc608       0x1c sound/sn_se_fire.o
                0x082bc618                sn_se_fire
 .rodata        0x082bc624       0x34 sound/sn_se_mamukemuri.o
                0x082bc64c                sn_se_mamukemuri
 .rodata        0x082bc658       0x1c sound/sn_se_yoshi.o
                0x082bc668                sn_se_yoshi
 .rodata        0x082bc674      0x25c sound/sn_tubo.o
                0x082bc8b0                sn_tubo
 .rodata        0x082bc8d0      0x3b8 sound/sn_worldkekka.o
                0x082bcc68                sn_worldkekka
 .rodata        0x082bcc88       0x68 sound/sn_se_awa.o
                0x082bcce4                sn_se_awa
 .rodata        0x082bccf0      0x110 sound/sn_se_big.o
                0x082bcdf4                sn_se_big
 .rodata        0x082bce00       0x64 sound/sn_se_tama.o
                0x082bce58                sn_se_tama
 .rodata        0x082bce64      0x654 sound/sn_boss_mae.o
                0x082bd498                sn_boss_mae
 .rodata        0x082bd4b8      0x30c sound/sn_gamesel.o
                0x082bd7a4                sn_gamesel
 .rodata        0x082bd7c4       0x74 sound/sn_se_jampdai.o
                0x082bd82c                sn_se_jampdai
 .rodata        0x082bd838       0x40 sound/sn_se_bossbig.o
                0x082bd86c                sn_se_bossbig
 .rodata        0x082bd878       0x28 sound/sn_se_bombfire.o
                0x082bd894                sn_se_bombfire
 .rodata        0x082bd8a0       0x38 sound/sn_se_cansel.o
                0x082bd8cc                sn_se_cansel
 .rodata        0x082bd8d8       0x58 sound/sn_se_heart.o
                0x082bd91c                sn_se_heart
 .rodata        0x082bd930       0x34 sound/sn_se_biribiri.o
                0x082bd954                sn_se_biribiri
 .rodata        0x082bd964       0xcc sound/sn_tamago.o
                0x082bda14                sn_tamago
 .rodata        0x082bda30       0x2c sound/sn_se_shift.o
                0x082bda50                sn_se_shift
 .rodata        0x082bda5c       0x54 sound/sn_se_start.o
                0x082bdaa0                sn_se_start
 .rodata        0x082bdab0       0x58 sound/sn_se_save.o
                0x082bdaf4                sn_se_save
 .rodata        0x082bdb08       0x38 sound/sn_se_kamen_okori.o
                0x082bdb30                sn_se_kamen_okori
 .rodata        0x082bdb40       0x24 sound/sn_se_kabe.o
                0x082bdb58                sn_se_kabe
 .rodata        0x082bdb64       0xd8 sound/sn_se_titlemoti.o
                0x082bdc2c                sn_se_titlemoti
 .rodata        0x082bdc3c       0x38 sound/sn_se_titledosun2.o
                0x082bdc68                sn_se_titledosun2
 .rodata        0x082bdc74       0x38 sound/sn_se_titledosun3.o
                0x082bdca0                sn_se_titledosun3
 .rodata        0x082bdcac       0x24 sound/sn_se_tamago.o
                0x082bdcc4                sn_se_tamago
 .rodata        0x082bdcd0      0x654 sound/sn_boss_mae_r.o
                0x082be304                sn_boss_mae_r
 .rodata        0x082be324      0x2cc sound/sn_boss_r.o
                0x082be5d0                sn_boss_r
 .rodata        0x082be5f0      0x120 sound/sn_se_kirakira.o
                0x082be6fc                sn_se_kirakira
 .rodata        0x082be710       0x20 sound/sn_se_cork.o
                0x082be724                sn_se_cork
 .rodata        0x082be730       0x20 sound/sn_v_usa_00.o
                0x082be744                sn_v_usa_00
 .rodata        0x082be750       0x20 sound/sn_v_br_01.o
                0x082be764                sn_v_br_01
 .rodata        0x082be770       0x20 sound/sn_v_ma_07.o
                0x082be784                sn_v_ma_07
 .rodata        0x082be790       0x20 sound/sn_v_ma_08.o
                0x082be7a4                sn_v_ma_08
 .rodata        0x082be7b0       0x20 sound/sn_v_ma_09.o
                0x082be7c4                sn_v_ma_09
 .rodata        0x082be7d0       0x20 sound/sn_v_ma_10.o
                0x082be7e4                sn_v_ma_10
 .rodata        0x082be7f0       0x20 sound/sn_v_ma_11.o
                0x082be804                sn_v_ma_11
 .rodata        0x082be810       0x20 sound/sn_v_ma_12.o
                0x082be824                sn_v_ma_12
 .rodata        0x082be830       0x20 sound/sn_v_ma_14.o
                0x082be844                sn_v_ma_14
 .rodata        0x082be850       0x20 sound/sn_v_ma_16.o
                0x082be864                sn_v_ma_16
 .rodata        0x082be870       0x20 sound/sn_v_ma_17.o
                0x082be884                sn_v_ma_17
 .rodata        0x082be890       0x20 sound/sn_v_ma_19.o
                0x082be8a4                sn_v_ma_19
 .rodata        0x082be8b0       0x20 sound/sn_v_ma_20.o
                0x082be8c4                sn_v_ma_20
 .rodata        0x082be8d0       0x20 sound/sn_v_ma_21.o
                0x082be8e4                sn_v_ma_21
 .rodata        0x082be8f0       0x20 sound/sn_v_ma_22.o
                0x082be904                sn_v_ma_22
 .rodata        0x082be910       0x20 sound/sn_v_ma_23.o
                0x082be924                sn_v_ma_23
 .rodata        0x082be930       0x20 sound/sn_v_ma_24.o
                0x082be944                sn_v_ma_24
 .rodata        0x082be950       0x20 sound/sn_v_ma_25.o
                0x082be964                sn_v_ma_25
 .rodata        0x082be970       0x20 sound/sn_v_ma_26.o
                0x082be984                sn_v_ma_26
 .rodata        0x082be990       0x20 sound/sn_v_ma_27.o
                0x082be9a4                sn_v_ma_27
 .rodata        0x082be9b0       0x20 sound/sn_v_ma_29.o
                0x082be9c4                sn_v_ma_29
 .rodata        0x082be9d0       0x20 sound/sn_v_ma_30.o
                0x082be9e4                sn_v_ma_30
 .rodata        0x082be9f0       0x20 sound/sn_v_ma_31.o
                0x082bea04                sn_v_ma_31
 .rodata        0x082bea10       0x20 sound/sn_v_ma_32.o
                0x082bea24                sn_v_ma_32
 .rodata        0x082bea30       0x20 sound/sn_v_ma_33.o
                0x082bea44                sn_v_ma_33
 .rodata        0x082bea50       0x20 sound/sn_v_ma_34.o
                0x082bea64                sn_v_ma_34
 .rodata        0x082bea70       0x20 sound/sn_v_ma_35.o
                0x082bea84                sn_v_ma_35
 .rodata        0x082bea90       0x20 sound/sn_v_ma_36.o
                0x082beaa4                sn_v_ma_36
 .rodata        0x082beab0       0x20 sound/sn_v_ma_37.o
                0x082beac4                sn_v_ma_37
 .rodata        0x082bead0       0x20 sound/sn_v_ma_17ya.o
                0x082beae4                sn_v_ma_17ya
 .rodata        0x082beaf0       0x20 sound/sn_v_mo_01.o
                0x082beb04                sn_v_mo_01
 .rodata        0x082beb10       0x20 sound/sn_v_mo_02.o
                0x082beb24                sn_v_mo_02
 .rodata        0x082beb30       0x20 sound/sn_v_mo_03.o
                0x082beb44                sn_v_mo_03
 .rodata        0x082beb50       0x20 sound/sn_v_tr_01.o
                0x082beb64                sn_v_tr_01
 .rodata        0x082beb70       0x20 sound/sn_v_tr_02.o
                0x082beb84                sn_v_tr_02
 .rodata        0x082beb90       0x20 sound/sn_v_tr_03.o
                0x082beba4                sn_v_tr_03
 .rodata        0x082bebb0       0x20 sound/sn_v_tr_04.o
                0x082bebc4                sn_v_tr_04
 .rodata        0x082bebd0       0x20 sound/sn_v_tr_05.o
                0x082bebe4                sn_v_tr_05
 .rodata        0x082bebf0       0x20 sound/sn_v_cl_01.o
                0x082bec04                sn_v_cl_01
 .rodata        0x082bec10       0x20 sound/sn_v_cl_02.o
                0x082bec24                sn_v_cl_02
 .rodata        0x082bec30       0x20 sound/sn_v_cl_03.o
                0x082bec44                sn_v_cl_03
 .rodata        0x082bec50       0x20 sound/sn_v_fl_01.o
                0x082bec64                sn_v_fl_01
 .rodata        0x082bec70       0x20 sound/sn_v_fl_02.o
                0x082bec84                sn_v_fl_02
 .rodata        0x082bec90       0x20 sound/sn_v_fl_03.o
                0x082beca4                sn_v_fl_03
 .rodata        0x082becb0       0x20 sound/sn_v_wa_01.o
                0x082becc4                sn_v_wa_01
 .rodata        0x082becd0       0x20 sound/sn_v_wa_02.o
                0x082bece4                sn_v_wa_02
 .rodata        0x082becf0       0x20 sound/sn_v_wa_03.o
                0x082bed04                sn_v_wa_03
 .rodata        0x082bed10       0x20 sound/sn_v_wa_04.o
                0x082bed24                sn_v_wa_04
 .rodata        0x082bed30       0x20 sound/sn_v_wa_05.o
                0x082bed44                sn_v_wa_05
 .rodata        0x082bed50       0x20 sound/sn_v_na_01.o
                0x082bed64                sn_v_na_01
 .rodata        0x082bed70       0x20 sound/sn_v_na_02.o
                0x082bed84                sn_v_na_02
 .rodata        0x082bed90       0x20 sound/sn_v_na_04.o
                0x082beda4                sn_v_na_04
 .rodata        0x082bedb0       0x20 sound/sn_v_na_05.o
                0x082bedc4                sn_v_na_05
 .rodata        0x082bedd0       0x20 sound/sn_v_pi_01.o
                0x082bede4                sn_v_pi_01
 .rodata        0x082bedf0       0x20 sound/sn_v_pi_02.o
                0x082bee04                sn_v_pi_02
 .rodata        0x082bee10       0x20 sound/sn_v_pi_03.o
                0x082bee24                sn_v_pi_03
 .rodata        0x082bee30       0x20 sound/sn_v_pi_04.o
                0x082bee44                sn_v_pi_04
 .rodata        0x082bee50       0x20 sound/sn_v_re_01.o
                0x082bee64                sn_v_re_01
 .rodata        0x082bee70       0x20 sound/sn_v_re_02.o
                0x082bee84                sn_v_re_02
 .rodata        0x082bee90       0x20 sound/sn_v_re_03.o
                0x082beea4                sn_v_re_03
 .rodata        0x082beeb0       0x20 sound/sn_v_re_04.o
                0x082beec4                sn_v_re_04
 .rodata        0x082beed0       0x20 sound/sn_v_gr_01.o
                0x082beee4                sn_v_gr_01
 .rodata        0x082beef0       0x20 sound/sn_v_gr_02.o
                0x082bef04                sn_v_gr_02
 .rodata        0x082bef10       0x20 sound/sn_v_gr_03.o
                0x082bef24                sn_v_gr_03
 .rodata        0x082bef30       0x20 sound/sn_v_gr_04.o
                0x082bef44                sn_v_gr_04
 .rodata        0x082bef50       0x20 sound/sn_v_me_01.o
                0x082bef64                sn_v_me_01
 .rodata        0x082bef70       0x20 sound/sn_v_me_02.o
                0x082bef84                sn_v_me_02
 .rodata        0x082bef90       0x20 sound/sn_v_me_03.o
                0x082befa4                sn_v_me_03
 .rodata        0x082befb0       0x20 sound/sn_v_me_04.o
                0x082befc4                sn_v_me_04
 .rodata        0x082befd0       0x20 sound/sn_v_lu_06.o
                0x082befe4                sn_v_lu_06
 .rodata        0x082beff0       0x20 sound/sn_v_lu_08.o
                0x082bf004                sn_v_lu_08
 .rodata        0x082bf010       0x20 sound/sn_v_lu_10.o
                0x082bf024                sn_v_lu_10
 .rodata        0x082bf030       0x20 sound/sn_v_lu_09.o
                0x082bf044                sn_v_lu_09
 .rodata        0x082bf050       0x20 sound/sn_v_lu_11.o
                0x082bf064                sn_v_lu_11
 .rodata        0x082bf070       0x20 sound/sn_v_lu_12.o
                0x082bf084                sn_v_lu_12
 .rodata        0x082bf090       0x20 sound/sn_v_lu_14.o
                0x082bf0a4                sn_v_lu_14
 .rodata        0x082bf0b0       0x20 sound/sn_v_lu_16.o
                0x082bf0c4                sn_v_lu_16
 .rodata        0x082bf0d0       0x20 sound/sn_v_lu_17.o
                0x082bf0e4                sn_v_lu_17
 .rodata        0x082bf0f0       0x20 sound/sn_v_lu_19.o
                0x082bf104                sn_v_lu_19
 .rodata        0x082bf110       0x20 sound/sn_v_lu_20.o
                0x082bf124                sn_v_lu_20
 .rodata        0x082bf130       0x20 sound/sn_v_lu_21.o
                0x082bf144                sn_v_lu_21
 .rodata        0x082bf150       0x20 sound/sn_v_lu_22.o
                0x082bf164                sn_v_lu_22
 .rodata        0x082bf170       0x20 sound/sn_v_lu_23.o
                0x082bf184                sn_v_lu_23
 .rodata        0x082bf190       0x20 sound/sn_v_lu_24.o
                0x082bf1a4                sn_v_lu_24
 .rodata        0x082bf1b0       0x20 sound/sn_v_lu_25.o
                0x082bf1c4                sn_v_lu_25
 .rodata        0x082bf1d0       0x20 sound/sn_v_lu_26.o
                0x082bf1e4                sn_v_lu_26
 .rodata        0x082bf1f0       0x20 sound/sn_v_lu_27.o
                0x082bf204                sn_v_lu_27
 .rodata        0x082bf210       0x20 sound/sn_v_lu_28.o
                0x082bf224                sn_v_lu_28
 .rodata        0x082bf230       0x20 sound/sn_v_lu_29.o
                0x082bf244                sn_v_lu_29
 .rodata        0x082bf250       0x20 sound/sn_v_lu_30.o
                0x082bf264                sn_v_lu_30
 .rodata        0x082bf270       0x20 sound/sn_v_lu_31.o
                0x082bf284                sn_v_lu_31
 .rodata        0x082bf290       0x20 sound/sn_v_lu_32.o
                0x082bf2a4                sn_v_lu_32
 .rodata        0x082bf2b0       0x20 sound/sn_v_lu_33.o
                0x082bf2c4                sn_v_lu_33
 .rodata        0x082bf2d0       0x20 sound/sn_v_lu_34.o
                0x082bf2e4                sn_v_lu_34
 .rodata        0x082bf2f0       0x20 sound/sn_v_lu_35.o
                0x082bf304                sn_v_lu_35
 .rodata        0x082bf310       0x20 sound/sn_v_lu_36.o
                0x082bf324                sn_v_lu_36
 .rodata        0x082bf330       0x20 sound/sn_v_lu_17ya.o
                0x082bf344                sn_v_lu_17ya
 .rodata        0x082bf350       0x20 sound/sn_v_pe_06.o
                0x082bf364                sn_v_pe_06
 .rodata        0x082bf370       0x20 sound/sn_v_pe_08.o
                0x082bf384                sn_v_pe_08
 .rodata        0x082bf390       0x20 sound/sn_v_pe_09.o
                0x082bf3a4                sn_v_pe_09
 .rodata        0x082bf3b0       0x20 sound/sn_v_pe_10.o
                0x082bf3c4                sn_v_pe_10
 .rodata        0x082bf3d0       0x20 sound/sn_v_pe_11.o
                0x082bf3e4                sn_v_pe_11
 .rodata        0x082bf3f0       0x20 sound/sn_v_pe_13.o
                0x082bf404                sn_v_pe_13
 .rodata        0x082bf410       0x20 sound/sn_v_pe_15.o
                0x082bf424                sn_v_pe_15
 .rodata        0x082bf430       0x20 sound/sn_v_pe_16.o
                0x082bf444                sn_v_pe_16
 .rodata        0x082bf450       0x20 sound/sn_v_pe_18.o
                0x082bf464                sn_v_pe_18
 .rodata        0x082bf470       0x20 sound/sn_v_pe_19.o
                0x082bf484                sn_v_pe_19
 .rodata        0x082bf490       0x20 sound/sn_v_pe_20.o
                0x082bf4a4                sn_v_pe_20
 .rodata        0x082bf4b0       0x20 sound/sn_v_pe_21.o
                0x082bf4c4                sn_v_pe_21
 .rodata        0x082bf4d0       0x20 sound/sn_v_pe_22.o
                0x082bf4e4                sn_v_pe_22
 .rodata        0x082bf4f0       0x20 sound/sn_v_pe_23.o
                0x082bf504                sn_v_pe_23
 .rodata        0x082bf510       0x20 sound/sn_v_pe_24.o
                0x082bf524                sn_v_pe_24
 .rodata        0x082bf530       0x20 sound/sn_v_pe_25.o
                0x082bf544                sn_v_pe_25
 .rodata        0x082bf550       0x20 sound/sn_v_pe_26.o
                0x082bf564                sn_v_pe_26
 .rodata        0x082bf570       0x20 sound/sn_v_pe_28.o
                0x082bf584                sn_v_pe_28
 .rodata        0x082bf590       0x20 sound/sn_v_pe_29.o
                0x082bf5a4                sn_v_pe_29
 .rodata        0x082bf5b0       0x20 sound/sn_v_pe_30.o
                0x082bf5c4                sn_v_pe_30
 .rodata        0x082bf5d0       0x20 sound/sn_v_pe_31.o
                0x082bf5e4                sn_v_pe_31
 .rodata        0x082bf5f0       0x20 sound/sn_v_pe_32.o
                0x082bf604                sn_v_pe_32
 .rodata        0x082bf610       0x20 sound/sn_v_pe_33.o
                0x082bf624                sn_v_pe_33
 .rodata        0x082bf630       0x20 sound/sn_v_pe_34.o
                0x082bf644                sn_v_pe_34
 .rodata        0x082bf650       0x20 sound/sn_v_pe_35.o
                0x082bf664                sn_v_pe_35
 .rodata        0x082bf670       0x20 sound/sn_v_pe_36.o
                0x082bf684                sn_v_pe_36
 .rodata        0x082bf690       0x20 sound/sn_v_pe_16ya.o
                0x082bf6a4                sn_v_pe_16ya
 .rodata        0x082bf6b0       0x20 sound/sn_v_to_06.o
                0x082bf6c4                sn_v_to_06
 .rodata        0x082bf6d0       0x20 sound/sn_v_to_07.o
                0x082bf6e4                sn_v_to_07
 .rodata        0x082bf6f0       0x20 sound/sn_v_to_08.o
                0x082bf704                sn_v_to_08
 .rodata        0x082bf710       0x20 sound/sn_v_to_09.o
                0x082bf724                sn_v_to_09
 .rodata        0x082bf730       0x20 sound/sn_v_to_10.o
                0x082bf744                sn_v_to_10
 .rodata        0x082bf750       0x20 sound/sn_v_to_11.o
                0x082bf764                sn_v_to_11
 .rodata        0x082bf770       0x20 sound/sn_v_to_13.o
                0x082bf784                sn_v_to_13
 .rodata        0x082bf790       0x20 sound/sn_v_to_15.o
                0x082bf7a4                sn_v_to_15
 .rodata        0x082bf7b0       0x20 sound/sn_v_to_16.o
                0x082bf7c4                sn_v_to_16
 .rodata        0x082bf7d0       0x20 sound/sn_v_to_18.o
                0x082bf7e4                sn_v_to_18
 .rodata        0x082bf7f0       0x20 sound/sn_v_to_19.o
                0x082bf804                sn_v_to_19
 .rodata        0x082bf810       0x20 sound/sn_v_to_20.o
                0x082bf824                sn_v_to_20
 .rodata        0x082bf830       0x20 sound/sn_v_to_21.o
                0x082bf844                sn_v_to_21
 .rodata        0x082bf850       0x20 sound/sn_v_to_22.o
                0x082bf864                sn_v_to_22
 .rodata        0x082bf870       0x20 sound/sn_v_to_23.o
                0x082bf884                sn_v_to_23
 .rodata        0x082bf890       0x20 sound/sn_v_to_24.o
                0x082bf8a4                sn_v_to_24
 .rodata        0x082bf8b0       0x20 sound/sn_v_to_25.o
                0x082bf8c4                sn_v_to_25
 .rodata        0x082bf8d0       0x20 sound/sn_v_to_26.o
                0x082bf8e4                sn_v_to_26
 .rodata        0x082bf8f0       0x20 sound/sn_v_to_28.o
                0x082bf904                sn_v_to_28
 .rodata        0x082bf910       0x20 sound/sn_v_to_29.o
                0x082bf924                sn_v_to_29
 .rodata        0x082bf930       0x20 sound/sn_v_to_30.o
                0x082bf944                sn_v_to_30
 .rodata        0x082bf950       0x20 sound/sn_v_to_31.o
                0x082bf964                sn_v_to_31
 .rodata        0x082bf970       0x20 sound/sn_v_to_32.o
                0x082bf984                sn_v_to_32
 .rodata        0x082bf990       0x20 sound/sn_v_to_33.o
                0x082bf9a4                sn_v_to_33
 .rodata        0x082bf9b0       0x20 sound/sn_v_to_34.o
                0x082bf9c4                sn_v_to_34
 .rodata        0x082bf9d0       0x20 sound/sn_v_to_35.o
                0x082bf9e4                sn_v_to_35
 .rodata        0x082bf9f0       0x20 sound/sn_v_to_36.o
                0x082bfa04                sn_v_to_36
 .rodata        0x082bfa10       0x20 sound/sn_v_to_16ya.o
                0x082bfa24                sn_v_to_16ya
 .rodata        0x082bfa30       0x84 C:/agb/lib//libagbbackup.a(AgbEeprom.o)
 .rodata        0x082bfab4      0x200 USA_data/usa_data.a(ud_title_scl.o)
                0x082bfab4                title_sclDT
 .rodata        0x082bfcb4    0x2b43c USA_data/usa_data.a(ud_game_base_chr.o)
                0x082c44c4                base_chenge_chrDT
                0x082bfcb4                base_bg_char_table1
                0x082dacc4                d_bg1_200_schDT
                0x082cbcc4                bg_2_1_schDT
                0x082ca4c4                bg_2_0_schDT
                0x082dbcc4                d_bg1_240_schDT
                0x082e14f0                obj_dat2DT
                0x082decf0                obj_jyochu_sch1DT
                0x082dc4e0                base_obj_char_table13
                0x082bfcc4                base_char1DT
                0x082d5cc4                bg_2_3_schDT
                0x082c24c4                base_char2DT
                0x082d0cc4                bg_2_2_schDT
                0x082dc4f0                obj_jyochu_schDT
                0x082dc4c4                base_obj_char_table11
                0x082e34f0                obj_dat3DT
                0x082df4f0                obj_dat1DT
                0x082dc4d2                base_obj_char_table12
                0x082e74f0                obj_tensoDT
                0x082c2cc4                base_char3DT
                0x082e80f0                d_baikaku_schDT
 .rodata        0x082eb0f0     0x8000 USA_data/usa_data.a(ud_player_sch.o)
                0x082eb0f0                d_player_schDT
 .rodata        0x082f30f0      0x220 USA_data/usa_data.a(ud_base_col.o)
                0x082f31b0                d_gradation_sclDT2
                0x082f31f0                d_gradation_sclDT4
                0x082f3210                ud_usa_score_sclDT
                0x082f30f0                d_debu_chasalin_sclDT
                0x082f3190                d_gradation_sclDT1
                0x082f31d0                d_gradation_sclDT3
                0x082f3250                ud_yoshi_tamago_sclDT
 .rodata        0x082f3310     0x4000 USA_data/usa_data.a(ud_hajimari_sch.o)
                0x082f3310                d_hajimari_schDT
 .rodata        0x082f7310       0xe0 USA_data/usa_data.a(ud_hajimari_obj_sch.o)
                0x082f7310                d_hajimari_obj_schDT
 .rodata        0x082f73f0      0x200 USA_data/usa_data.a(ud_player_sel_scl.o)
                0x082f73f0                d_player_sel_sclDT
 .rodata        0x082f75f0      0x3e8 USA_data/usa_data.a(ud_player_sel_BG1_ssc.o)
                0x082f75f0                d_player_sel_BG1_sscDTCP
 .rodata        0x082f79d8      0x230 USA_data/usa_data.a(ud_hajimari_main_ssc.o)
                0x082f79d8                d_hajimari_main_sscDTCP
 .rodata        0x082f7c08      0x2b0 USA_data/usa_data.a(ud_hajimari_main_yossy_ssc.o)
                0x082f7c08                d_hajimari_main_yossy_sscDTCP
 .rodata        0x082f7eb8       0x6c USA_data/usa_data.a(ud_hajimari_win2_ssc.o)
                0x082f7eb8                d_hajimari_win2_sscDTCP
 .rodata        0x082f7f24      0x590 USA_data/usa_data.a(ud_hajimari_win_ssc.o)
                0x082f7f24                d_hajimari_win_sscDTCP
 .rodata        0x082f84b4      0x630 USA_data/usa_data.a(ud_hajimari_win_yossy_ssc.o)
                0x082f84b4                d_hajimari_win_yossy_sscDTCP
 .rodata        0x082f8ae4      0x508 USA_data/usa_data.a(ud_redcoin_normal_ssc.o)
                0x082f8ae4                d_redcoin_normal_sscDTCP
 .rodata        0x082f8fec      0x520 USA_data/usa_data.a(ud_redcoin_yossy_ssc.o)
                0x082f8fec                d_redcoin_yossy_sscDTCP
 .rodata        0x082f950c      0x1c4 USA_data/usa_data.a(ud_course_sel_ssc.o)
                0x082f950c                d_course_sel_sscDTCP
 .rodata        0x082f96d0     0x1000 USA_data/usa_data.a(ud_hajimari_tenso_sch.o)
                0x082f96d0                d_hajimari_tenso_schDT
 .rodata        0x082fa6d0     0x1000 USA_data/usa_data.a(ud_bg3_sch.o)
                0x082fa6d0                d_bg3_schDT
 .rodata        0x082fb6d0       0x68 USA_data/usa_data.a(ud_slot_BG1_ssc.o)
                0x082fb6d0                d_slot_BG1_sscDTCP
 .rodata        0x082fb738      0x800 USA_data/usa_data.a(ud_slot_BG2_ssc.o)
                0x082fb738                ud_slot_BG2_sscDT
 .rodata        0x082fbf38      0x480 USA_data/usa_data.a(ud_slot_scl.o)
                0x082fbf38                d_leach_sclDT
                0x082fc338                d_coinup_sclDT
                0x082fc138                d_atari_sclDT
 .rodata        0x082fc3b8     0x1400 USA_data/usa_data.a(ud_slot_obj_sch.o)
                0x082fc3b8                d_slot_obj_schDT
 .rodata        0x082fd7b8      0x200 USA_data/usa_data.a(ud_slot_obj_scl.o)
                0x082fd7b8                d_slot_obj_sclDT
 .rodata        0x082fd9b8      0x800 USA_data/usa_data.a(ud_game_over_ssc.o)
                0x082fd9b8                d_game_over_sscDT
 .rodata        0x082fe1b8      0x800 USA_data/usa_data.a(ud_warp_ssc.o)
                0x082fe1b8                d_warp_sscDT
 .rodata        0x082fe9b8     0x1000 USA_data/usa_data.a(ud_pause_sch.o)
                0x082fe9b8                ud_pause_schDT
 .rodata        0x082ff9b8      0x800 USA_data/usa_data.a(ud_ending_sch.o)
                0x082ff9b8                ud_ending_schDT
 .rodata        0x083001b8     0x3800 USA_data/usa_data.a(ud_ending_ssc.o)
                0x083019b8                ud_ending1_1_sscDT
                0x083011b8                ud_ending0_3_sscDT
                0x083021b8                ud_ending1_2_sscDT
                0x083009b8                ud_ending0_2_sscDT
                0x083029b8                ud_ending1_3_sscDT
                0x083001b8                ud_ending0_1_sscDT
                0x083031b8                ud_ending2_1_sscDT
 .rodata        0x083039b8       0x60 USA_data/usa_data.a(ud_ending_scl.o)
                0x083039b8                ud_ending_sclDT
 .rodata        0x08303a18      0xc00 USA_data/usa_data.a(ud_ending1_sch.o)
                0x08303a18                ud_ending1_schDT
 .rodata        0x08304618     0x1800 USA_data/usa_data.a(ud_ending1_obj_sch.o)
                0x08304618                ud_ending1_obj_schDT
 .rodata        0x08305e18      0x400 USA_data/usa_data.a(ud_ending1_scl.o)
                0x08305e18                ud_ending1_bg_sclDT
                0x08306018                ud_ending1_obj_sclDT
 .rodata        0x08306218      0x400 USA_data/usa_data.a(ud_ending2_scl.o)
                0x08306418                ud_ending2_obj_sclDT
                0x08306218                ud_ending2_bg_sclDT
 .rodata        0x08306618     0x6000 USA_data/usa_data.a(ud_ending2_bg_sch.o)
                0x08306618                ud_ending2_bg_schDT
 .rodata        0x0830c618     0x1800 USA_data/usa_data.a(ud_ending2_bg_base_sch.o)
                0x0830c618                ud_ending2_bg_base_schDT
 .rodata        0x0830de18     0x3800 USA_data/usa_data.a(ud_ending2_obj_sch.o)
                0x0830de18                ud_ending2_obj_schDT
 .rodata        0x08311618     0x2800 USA_data/usa_data.a(ud_gondola_BG_sch.o)
                0x08311618                ud_gondola_BG_schDT
 .rodata        0x08313e18       0x80 USA_data/usa_data.a(ud_gondola_BG_scl.o)
                0x08313e18                ud_gondola_BG_sclDT
 .rodata        0x08313e98      0x800 USA_data/usa_data.a(ud_gondola_BG2_ssc.o)
                0x08313e98                ud_gondola_BG2_sscDT
 .rodata        0x08314698      0x800 USA_data/usa_data.a(ud_gondola_BG3_ssc.o)
                0x08314698                ud_gondola_BG3_sscDT
 .rodata        0x08314e98      0x120 USA_data/usa_data.a(ud_gondola_OBJ_scl.o)
                0x08314e98                ud_gondola_OBJ_sclDT
 .rodata        0x08314fb8      0x200 USA_data/usa_data.a(ud_gondola_obj2_sch.o)
                0x08314fb8                ud_gondola_obj2_schDT
 .rodata        0x083151b8       0x60 USA_data/usa_data.a(ud_tubo_BG_scl.o)
                0x083151b8                ud_tubo_BG_sclDT
 .rodata        0x08315218      0x400 USA_data/usa_data.a(ud_bighakkun_sch.o)
                0x08315218                ud_bighakkun_schDT
 .rodata        0x08315618     0x6e00 USA_data/usa_data.a(ad_select_obj_sch.o)
                0x08315618                ad_select_obj_schDT
 .rodata        0x0831c418      0x200 USA_data/usa_data.a(ad_select_obj_scl.o)
                0x0831c418                ad_select_obj_sclDT
 .rodata        0x0831c618     0x4000 USA_data/usa_data.a(ad_select_bg_sch.o)
                0x0831c618                ad_select_bg_schDT
 .rodata        0x08320618      0x200 USA_data/usa_data.a(ad_select_bg_scl.o)
                0x08320618                ad_select_bg_sclDT
 .rodata        0x08320818      0x100 USA_data/usa_data.a(ad_selectbg1_game_ssc.o)
                0x08320818                ad_selectbg1_game_sscDT
 .rodata        0x08320918      0x100 USA_data/usa_data.a(ad_selectbg1_file_ssc.o)
                0x08320918                ad_selectbg1_file_sscDT
 .rodata        0x08320a18      0x280 USA_data/usa_data.a(ad_selectbg2_ssc.o)
                0x08320a18                ad_selectbg2_sscDT
 .rodata        0x08320c98      0x3c0 USA_data/usa_data.a(ad_selectbg2_2_ssc.o)
                0x08320c98                ad_selectbg2_2_sscDT
 .rodata        0x08321058      0x260 USA_data/usa_data.a(ad_selectbg3_ssc.o)
                0x08321058                ad_selectbg3_sscDTCP
 .rodata        0x083212b8      0x378 USA_data/usa_data.a(ad_selectbg4_ssc.o)
                0x083212b8                ad_selectbg4_sscDTCP
 .rodata        0x08321630      0x200 USA_data/usa_data.a(ud_yoshi_scl.o)
                0x08321630                d_yoshi_sclDT
 .rodata        0x08321830     0x1800 USA_data/usa_data.a(ud_yoshi_BG_sch.o)
                0x08321830                d_yoshi_BG_schDT
                0x08322e30                d_yoshi_BG2_schDT
 .rodata        0x08323030     0x3c00 USA_data/usa_data.a(ud_yoshi_obj_sch.o)
                0x08323030                d_yoshi_obj_schDT
 .rodata        0x08326c30      0x104 USA_data/usa_data.a(ud_yoshi_BG0_ssc.o)
                0x08326c30                d_yoshi_BG0_sscDTCP
 .rodata        0x08326d34      0x3f0 USA_data/usa_data.a(ud_yoshi_BG1_ssc.o)
                0x08326f2c                d_yoshi_BG1_2_sscDTCP
                0x08326d34                d_yoshi_BG1_sscDTCP
 .rodata        0x08327124      0x780 USA_data/usa_data.a(ud_yoshi_BG2_ssc.o)
                0x08327124                d_yoshi_BG2_sscDT
 .rodata        0x083278a4      0x200 USA_data/usa_data.a(ud_player_selobj_scl.o)
                0x083278a4                d_player_selobj_sclDT
 .rodata        0x08327aa4     0x4800 USA_data/usa_data.a(ud_player_selobj_sch.o)
                0x08327aa4                d_player_selobj_schDT
 .rodata        0x0832c2a4      0xe00 USA_data/usa_data.a(ud_courseclear_sch.o)
                0x0832c2a4                ud_courseclear_schDT
 .rodata        0x0832d0a4     0x1000 USA_data/usa_data.a(ad_demo_4bit_sch.o)
                0x0832d0a4                d_demo_4bit_schDT
 .rodata        0x0832e0a4     0x5000 USA_data/usa_data.a(ad_demo_8bit_sch.o)
                0x0832e0a4                d_demo_8bit_schDT
 .rodata        0x083330a4      0x200 USA_data/usa_data.a(ad_demo_8bit4bit_scl.o)
                0x083330a4                d_demo_8bit4bit_sclDT
 .rodata        0x083332a4     0x1000 USA_data/usa_data.a(ad_demo_map_ssc.o)
                0x083332a4                d_demo_map_sscDT
 .rodata        0x083342a4      0x1c0 USA_data/usa_data.a(ad_demo_minititle_ssc.o)
                0x083342a4                d_demo_minititle_sscDT
 .rodata        0x08334464     0x3800 USA_data/usa_data.a(ad_demo_obj_sch.o)
                0x08334464                d_demo_obj_schDT
 .rodata        0x08337c64      0x200 USA_data/usa_data.a(ad_demo_obj_scl.o)
                0x08337c64                d_demo_obj_sclDT
 .rodata        0x08337e64      0x800 USA_data/usa_data.a(ad_demo_sky_ssc.o)
                0x08337e64                d_demo_sky_sscDT
 .rodata        0x08338664      0x400 USA_data/usa_data.a(ad_demo_usatitle_ssc.o)
                0x08338664                d_demo_usatitle_sscDT
 .rodata        0x08338a64      0x500 USA_data/usa_data.a(ad_demo_mask_ssc.o)
                0x08338a64                d_demo_mask_sscDT
 .rodata        0x08338f64       0x60 USA_data/usa_data.a(ad_demo_sky4bit_scl.o)
                0x08338f64                d_demo_sky4bit_sclDT
 .rodata        0x08338fc4      0x600 USA_data/usa_data.a(ud_back_up_sch.o)
                0x08338fc4                ud_back_up_schDT
 .rodata        0x083395c4      0x200 USA_data/usa_data.a(ud_back_up_scl.o)
                0x083395c4                ud_back_up_sclDT
 .rodata        0x083397c4     0x1e00 USA_data/usa_data.a(ud_waku_base_sch.o)
                0x083397c4                ud_waku_base_schDT
 .rodata        0x0833b5c4     0x1800 USA_data/usa_data.a(ud_waku_tenso_sch.o)
                0x0833b5c4                ud_waku_tenso_schDT
 .rodata        0x0833cdc4      0x528 COS_data/usa_cos.a(ud_next_goto.o)
                0x0833d134                bg_2_table3
                0x0833cf7c                bg_2_table2
                0x0833cdc4                bg_2_table1
 .rodata        0x0833d2ec       0x2c C:\PROGRA~1\Cygnus\thumbelf-000512\H-i686-cygwin32\bin/../lib/gcc-lib/thumb-elf/2.9-arm-000512/../../../../thumb-elf/lib/libg.a(assert.o)
 .rodata        0x0833d318        0x4 C:\PROGRA~1\Cygnus\thumbelf-000512\H-i686-cygwin32\bin/../lib/gcc-lib/thumb-elf/2.9-arm-000512/../../../../thumb-elf/lib/libg.a(impure.o)
 .rodata        0x0833d31c       0x6c C:\PROGRA~1\Cygnus\thumbelf-000512\H-i686-cygwin32\bin/../lib/gcc-lib/thumb-elf/2.9-arm-000512/../../../../thumb-elf/lib/libg.a(vfiprintf.o)
 .rodata        0x0833d388       0x3c C:\PROGRA~1\Cygnus\thumbelf-000512\H-i686-cygwin32\bin/../lib/gcc-lib/thumb-elf/2.9-arm-000512/../../../../thumb-elf/lib/libg.a(locale.o)
 .rodata        0x0833d3c4       0x28 C:\PROGRA~1\Cygnus\thumbelf-000512\H-i686-cygwin32\bin/../lib/gcc-lib/thumb-elf/2.9-arm-000512/../../../../thumb-elf/lib/libg.a(syscalls.o)
d4232 1
a4232 1
                0x0833d4ec                .=(ALIGN(0x100)+(.&0xff))
d4234 1
a4234 1
.data           0x0833d4ec    0xaae3c
d4236 1514
a5749 1513
 .data          0x0833d4ec       0x40 ba_effect.o
                0x0833d510                effectAct_menu
                0x0833d4ec                effectActInitDT
 .data          0x0833d52c      0x36c ba_player.o
                0x0833d820                ScoreCoinBGAddress
 .data          0x0833d898        0xc cm_game.o
                0x0833d898                cm_game_menu
 .data          0x0833d8a4       0x58 m_battle_rom_play.o
                0x0833d8a4                cgame_play_menu
 .data          0x0833d8fc       0x58 m_classic_play.o
                0x0833d8fc                game_play_menu
 .data          0x0833d954      0x43c m_erase.o
                0x0833dd4c                msg2_adr_table
                0x0833dd7c                msg2_data3
                0x0833da5a                eeprom_msg4
                0x0833dd60                msg2_data2
                0x0833dcb6                eeprom_msg11
                0x0833dd34                erase_menu
                0x0833da1e                eeprom_msg3
                0x0833db8a                eeprom_msg8
                0x0833d992                eeprom_msg2
                0x0833dd28                error_set
                0x0833dc52                eeprom_msg10
                0x0833dd54                msg2_data1
                0x0833daa4                eeprom_msg5
                0x0833db38                eeprom_msg7
                0x0833dcfc                eeprom_msg_table
                0x0833dbee                eeprom_msg9
                0x0833daee                eeprom_msg6
                0x0833d954                eeprom_msg1
 .data          0x0833dd90       0x38 m_game.o
                0x0833dd90                us_menu
                0x0833ddb4                MAIN_menu
                0x0833ddac                M_game_menu
 .data          0x0833ddc8      0x11c m_game_title.o
                0x0833de90                PlateData
                0x0833decc                game_title_menu
 .data          0x0833dee4       0x3c m_main.o
                0x0833df18                Oamclr
                0x0833dee4                VCountIntr_menu
                0x0833def4                nmi_sub
 .data          0x0833df20      0xd40 m_opening.o
                0x0833e540                Op_eff_clr
                0x0833ebc0                op_mario_move_tbl
                0x0833ebd8                op_peach_move_tbl
                0x0833eb74                op_egg_move_tbl
                0x0833ebec                op_kinopio_move_tbl
                0x0833ec00                op_luigi_move_tbl
                0x0833e51c                Op_obj_clr
                0x0833ec24                op_obj_oam_tbl
                0x0833eb84                op_obj_move_tbl
                0x0833ec14                Opening_menu
 .data          0x0833ec60       0x1c m_title.o
                0x0833ec60                M_title_menu
 .data          0x0833ec7c      0xffc m_title_sub.o
                0x0833fba0                title_obj_move_tbl
                0x0833f28c                Ts_obj_clr
                0x0833fc0c                title_obj_oam_tbl
                0x0833fb34                tlsel_objdt_tbl
 .data          0x0833fc78      0x184 m_vs.o
                0x0833fc78                Message_0
                0x0833fcb6                Message_3
                0x0833fc8e                Message_1
                0x0833fca0                Message_2
                0x0833fcc2                Message_4
 .data          0x0833fdfc        0xc m_VsGame.o
                0x0833fdfc                vs_game_menu
 .data          0x0833fe08      0x630 ua_course.o
                0x08340410                BOSROM
                0x08340404                unit_table
                0x08340420                one_room_in
                0x0834042c                one_room_out
 .data          0x08340438      0xc78 ua_ending.o
                0x08340ea0                ending_DEMAIN_table
                0x08340aec                u_ending_plmod_table
                0x08340aa0                ending_table
                0x08341058                ending_CASTMV_table
 .data          0x083410b0      0x690 ua_game.o
                0x083416ac                game_menu
                0x083416f0                sort_flag_data
 .data          0x08341740      0x864 ua_game_over.o
 .data          0x08341fa4      0x9ec ua_pause.o
 .data          0x08342990      0x62c ua_score.o
                0x08342f9c                pt_addspd
                0x08342fac                scr_pw1up
                0x08342f8c                pt_addtim
 .data          0x08342fbc      0x890 ua_warp.o
                0x08343838                warp_table
 .data          0x0834384c      0x630 um_bonus.o
                0x08343e6c                bonus_menu
 .data          0x08343e7c      0x5fc um_courseclear.o
 .data          0x08344478      0x62c um_select.o
                0x08344a88                select_menu
 .data          0x08344aa4      0x954 um_select_sub.o
 .data          0x083453f8      0x7f8 um_yossy.o
                0x08345bd4                ys_mode_tbl
                0x08345a46                YossyAnim_Ptn
                0x08345bb4                yossy_menu
                0x08345a28                YossyAnim_Tim
                0x08345a22                YossyCol_Tbl
                0x08345ac4                YossyDT
                0x083459f4                ys_obj_clr
 .data          0x08345bf0      0x6e4 up_common.o
                0x08346210                play_xwidth
                0x08346218                play_yoffset_Bjump
                0x083461ec                player_OBJXYST_menu
                0x08346212                play_ywidth
                0x0834620e                play_yoffset
                0x0834623c                EVPSDT
                0x08346224                player_CROSSET_menu
                0x08346214                play_xoffset_Bjump
                0x08346220                play_ywidth_Bjump
                0x08346240                TAMABOUND
                0x0834620c                play_xoffset
                0x08346204                XSPCKDT
                0x083462cc                Voice_Index
                0x0834625c                PLAY_WKATYAD_BIG
                0x0834624c                KTSTYD
                0x0834623e                PLHFCKDT
                0x08346248                HDFTCMP
                0x0834621c                play_xwidth_Bjump
 .data          0x083462d4      0x72c up_player.o
                0x08346944                ERVXSP
                0x0834691c                SLIPDT_ML
                0x08346924                WKTIMER
                0x083468d0                player_menu
                0x0834699a                ENSYNODT
                0x08346904                CHGSND_VOICE
                0x08346946                BGCRDT
                0x083469fa                XPLASDT
                0x08346900                CHGSND
                0x08346974                TRBCPSL
                0x08346934                XDWNDT
                0x08346954                SPKTTM
                0x0834695a                KTTMDT_BIG
                0x08346914                XPOWDT_PK
                0x08346996                CRFGDT1
                0x08346972                TRBCPSH
                0x0834697e                TRBCDT
                0x083469ec                NAORXSP
                0x08346978                CHTMDT
                0x08346976                TRENPSL
                0x0834690c                XPOWDT_ML
                0x083469f4                NAORXSP_BK
                0x083469b1                stone_set_unit
                0x08346948                KTCHDT
                0x08346931                PLRNPAT
                0x0834694e                KTCHDT_BIG
                0x08346908                FLYSPDT
                0x0834693c                XDWNDT_ONEN
                0x083469e8                BPSHBGIN
                0x083469f6                NAORYSP
                0x083469c8                door_initial_menu
                0x0834692e                PLWKPAT
 .data          0x08346a00      0x5fc m_boot.o
 .data          0x08346ffc       0x38 ua_save.o
 .data          0x08347034      0x638 um_result.o
                0x08347650                rs_egg_move_tbl
                0x08347644                result_menu
                0x08347660                rs_mode_tbl
 .data          0x0834766c      0x5fc um_oamset.o
 .data          0x08347c68      0x5fc um_mosaic.o
 .data          0x08348264      0x30c um_coursecleardt.o
                0x08348274                clear_Dt1
                0x08348425                clear_DtE
                0x08348438                clear_effect_ptn1
                0x083482ec                clear_Dt5
                0x08348436                clear_DtF
                0x083482a2                clear_Dt3
                0x083483ce                clear_DtB
                0x08348289                clear_Dt2
                0x083484d4                clear_effect_ptn2
                0x0834836f                clear_Dt8
                0x08348384                clear_Dt9
                0x08348319                clear_Dt6
                0x083483b1                clear_DtA
                0x08348264                clear_hosei_Dt
                0x0834833e                clear_Dt7
                0x08348408                clear_DtD
                0x083482c3                clear_Dt4
                0x083483eb                clear_DtC
 .data          0x08348570       0x10 cm_game_title.o
                0x08348570                multi_title_menu
 .data          0x08348580      0x654 ua_act.o
                0x08348b7c                actmem_menu
 .data          0x08348bd4      0x650 ua_common.o
                0x08349220                gohoubi_en
 .data          0x08349224     0x1ef8 ua_commondt.o
                0x08349c92                BALL1_Dt
                0x08349ebe                FLWE1_Dt
                0x0834a68a                WATCH_Dt
                0x083499fa                BALLM_Dt
                0x0834a5a8                CRPET_Dt
                0x0834ad64                POINT100_Dt
                0x0834a76a                BIGDR_Dt
                0x0834ae98                BIGHAHEN_Dt
                0x0834a2a4                WHAT1_Dt
                0x0834abf8                SKANI_Dt
                0x0834ad86                POINT200_Dt
                0x08349f04                DANGN_Dt
                0x0834ae16                UP1_Dt
                0x0834aa1a                GONDOLA_Dt
                0x08349f38                ICEMN_Dt
                0x08349c9c                SNAKE_Dt
                0x0834ae52                HAHEN_Dt
                0x0834acfa                SFIRFL_Dt
                0x0834b0cc                scr_oamset_tbl
                0x08349970                BIRD_Dt
                0x0834acb0                PWBKFL_Dt
                0x08349f4a                FIREB_Dt
                0x08349eac                FLWER_Dt
                0x0834a59e                ONEUP_Dt
                0x08349890                score_clear
                0x0834aba6                MOSAIC_Dt
                0x0834abdc                SSNAKE_Dt
                0x0834a87a                RIBON_Dt
                0x083498e2                TORI_Dt
                0x0834aba2                LIFT_Dt
                0x0834b0b0                act_enmodoam_tbl
                0x0834adca                POINT800_Dt
                0x08349a0c                PIGMO_Dt
                0x0834ae7e                BIGSHOCK_Dt
                0x08349a42                TBO00_Dt
                0x083499d6                FLYNG_Dt
                0x0834ae38                SHOCK_Dt
                0x0834a594                HEART_Dt
                0x08349a1e                FISH0_Dt
                0x0834aa38                AKADAMA_Dt
                0x083499b2                NINJA_Dt
                0x0834ac9e                SUND_Dt
                0x0834ad1c                POINT10_Dt
                0x0834ac38                BLAK_Dt
                0x0834a634                EXITR_Dt
                0x0834aa24                TOGE_Dt
                0x08349d90                BKANI_Dt
                0x0834993c                FORCE_Dt
                0x0834a694                BOMB_Dt
                0x0834aecc                act_oamset_tbl
                0x0834a794                WOODDR_Dt
                0x083499c4                NINJ1_Dt
                0x083499e8                FLYN1_Dt
                0x0834a2da                HAPPA_Dt
                0x0834a3ce                RKET_Dt
                0x083498b4                FAIRY_Dt
                0x0834a680                STAR_Dt
                0x08349f16                FNSUI_Dt
                0x0834ac4a                BURN_Dt
                0x0834a2b6                WHAT2_Dt
                0x08349a30                MUSI0_Dt
                0x0834aa42                AODAMA_Dt
                0x0834aea2                BSEFT_Dt
                0x083498be                WALK0_Dt
                0x08349a66                MASK0_Dt
                0x08349820                abase_clear
                0x08349b04                BALL0_Dt
                0x0834a578                KEY_Dt
                0x0834a520                BRK_Dt
                0x0834a582                LMP0_Dt
                0x0834ae5c                HANABI_Dt
                0x0834aa56                HIKARI_Dt
                0x0834ab72                BIGBALL_Dt
                0x08349af2                SBTEN_Dt
                0x0834992a                SHOO2_Dt
                0x08349b0e                BOSS0_Dt
                0x0834a2e4                KABU_Dt
                0x0834abca                SMIKEY_Dt
                0x0834aec0                POINT4_Dt
                0x0834a332                COIN_Dt
                0x0834a5f2                EXITL_Dt
                0x0834ad52                POINT80_Dt
                0x0834ac12                ITEMBALL_Dt
                0x08349a70                HEBI_Dt
                0x0834a884                BIGBOSS_Dt
                0x0834a856                BIGWALK_Dt
                0x0834a2c8                WHAT3_Dt
                0x0834a36c                BKDN_Dt
                0x0834aba4                LIFT2_Dt
                0x0834a676                XTAL_Dt
                0x0834ad2e                POINT20_Dt
                0x0834a976                BIGSMK_Dt
                0x0834aaa0                BIGHIKARI_Dt
                0x0834a546                DOOR_Dt
                0x08349ed0                FLWE2_Dt
                0x08349a54                TBO01_Dt
                0x0834ac5c                SMOK_Dt
                0x0834a52a                PWBK_Dt
                0x0834a306                BIGKABU_Dt
                0x0834abee                SFIREB_Dt
                0x0834aa2e                CHERRY_Dt
                0x0834ada8                POINT400_Dt
                0x0834a868                BIGWALK1_Dt
                0x08349906                SHOOT_Dt
                0x0834adec                POINT1000_Dt
                0x0834aeb6                POINT1_Dt
                0x083498f4                HUCK0_Dt
                0x0834aa4c                EGG_Dt
                0x0834ab7c                TILTSMK_Dt
                0x0834ac14                BIGCOIN_Dt
                0x0834a1a0                BGKAO_Dt
                0x083498d0                WALK1_Dt
                0x0834ac26                BIGNINJI_Dt
                0x0834995e                BURN0_Dt
                0x0834ad40                POINT40_Dt
                0x08349ea2                BISHI_Dt
                0x0834a310                FACE_Dt
                0x0834aeac                BIGBSEFT_Dt
                0x0834a6a6                KEMURI_Dt
                0x08349d76                FIRE1_Dt
                0x0834a9b8                BIGPWBK_Dt
                0x0834ab96                KABUFAIRY_Dt
                0x0834a08c                FIRES_Dt
                0x0834aba8                BUBBLE_Dt
                0x08349bd0                MIKEY_Dt
                0x08349918                SHOO1_Dt
                0x0834a6e8                KEMURI2_Dt
                0x08349ee2                CANON_Dt
                0x0834a292                WHATS_Dt
                0x0834a534                WOOD_Dt
                0x0834a0ae                MAMUU_Dt
                0x0834aba0                CAPSULE_Dt
 .data          0x0834b11c      0x134 ua_color.o
                0x0834b248                TOUPAT
 .data          0x0834b250      0x6c4 ua_sort.o
                0x0834b8d0                Sort_Tbl
 .data          0x0834b914      0x5fc ua_eggmeter.o
 .data          0x0834bf10       0x88 ba_act.o
                0x0834bf10                acterInitDT
                0x0834bf4c                acter_menu
 .data          0x0834bf98      0x130 ba_bucket.o
                0x0834bfc0                d_bucket_sob_01
                0x0834bf98                d_bucket_sob_00
                0x0834c008                d_bucket_sob_02
                0x0834c030                d_bucket_sob_03
                0x0834c058                d_bucket_sob_04
 .data          0x0834c0c8       0x38 ba_Coin.o
                0x0834c0c8                Coin_menu
                0x0834c0e4                Coin_anime
 .data          0x0834c100        0xc ba_egg.o
 .data          0x0834c10c       0x68 ba_enFly.o
                0x0834c10c                Fly_menu
                0x0834c140                Fly_anime
 .data          0x0834c174       0x68 ba_enKani.o
                0x0834c174                Kani_menu
                0x0834c1a8                Kani_anime
 .data          0x0834c1dc       0x10 ba_enmy.o
 .data          0x0834c1ec       0x68 ba_enToge.o
                0x0834c1ec                Togezo_menu
                0x0834c220                Togezo_anime
 .data          0x0834c254       0x30 ba_fire.o
                0x0834c254                Fire_menu
                0x0834c26c                Fire_anime
 .data          0x0834c284        0x8 ba_fishBone.o
 .data          0x0834c28c      0x12c ba_ice.o
                0x0834c344                IceOamTable
                0x0834c2c4                IceOamData_4
                0x0834c2e4                IceOamData_6
                0x0834c28c                IceOamData_0
                0x0834c2d4                IceOamData_5
                0x0834c2a4                IceOamData_2
                0x0834c31c                IceOamData_8
                0x0834c294                IceOamData_1
                0x0834c2b4                IceOamData_3
                0x0834c2f4                IceOamData_7
                0x0834c390                Ice_anime
                0x0834c368                Ice_menu
 .data          0x0834c3b8       0x18 ba_koura.o
 .data          0x0834c3d0      0x9d8 ba_kuppa.o
                0x0834cbbc                KppFireOam_10
                0x0834c93c                KppFireOam_8
                0x0834ca3c                KppFireOam_C
                0x0834c4e8                KppOamData_4
                0x0834cb34                KppFireOam_F
                0x0834ccb4                KppFireOam_13
                0x0834c70c                KppFireOam_2
                0x0834c3d8                KppOamData_1
                0x0834c6ac                Kuppa_anime
                0x0834c88c                KppFireOam_6
                0x0834c630                KppOamData_8
                0x0834cda0                KppFire_menu
                0x0834c6c4                KppFireOam_0
                0x0834cd2c                KppFireTable
                0x0834c9fc                KppFireOam_B
                0x0834caf4                KppFireOam_E
                0x0834c984                KppFireOam_9
                0x0834c440                KppOamData_3
                0x0834cc0c                KppFireOam_11
                0x0834c7c4                KppFireOam_4
                0x0834c73c                KppFireOam_3
                0x0834c668                KppOamTable
                0x0834ccfc                KppFireOam_14
                0x0834c5f8                KppOamData_7
                0x0834c550                KppOamData_6
                0x0834c3d0                KppOamData_0
                0x0834c8dc                KppFireOam_7
                0x0834c6cc                KppFireOam_1
                0x0834c5a0                KppOamData_A
                0x0834ca6c                KppFireOam_D
                0x0834c490                KppOamData_9
                0x0834c9cc                KppFireOam_A
                0x0834cc6c                KppFireOam_12
                0x0834c408                KppOamData_2
                0x0834c804                KppFireOam_5
                0x0834c694                Kuppa_menu
                0x0834c518                KppOamData_5
 .data          0x0834cda8       0xec ba_PipeWave.o
 .data          0x0834ce94       0x28 ba_point.o
                0x0834ceb4                Point_menu
 .data          0x0834cebc       0x1c ba_pow.o
 .data          0x0834ced8        0x8 ba_spark.o
 .data          0x0834cee0       0xd0 ba_splash.o
                0x0834cfa8                Splash_menu
 .data          0x0834cfb0       0xf4 ba_icicle.o
                0x0834cff0                IcicleData_4
                0x0834d000                IcicleData_5
                0x0834d08c                Icicle_menu
                0x0834d040                IcicleData_8
                0x0834cfe0                IcicleData_3
                0x0834cfb8                IcicleData_1
                0x0834d030                IcicleData_7
                0x0834cfb0                IcicleData_0
                0x0834d018                IcicleData_6
                0x0834cfd0                IcicleData_2
                0x0834d068                IcicleTable
 .data          0x0834d0a4       0xa4 ba_powsmk.o
                0x0834d140                Powsmk_menu
 .data          0x0834d148      0x618 ua_fairy.o
                0x0834d750                FairyMoveTable
                0x0834d744                FairyIdouTable
 .data          0x0834d760      0x604 ua_walk.o
                0x0834dd5c                BIGSIZDT
 .data          0x0834dd64      0x5fc ua_tori.o
 .data          0x0834e360      0x5fc ua_huck0.o
 .data          0x0834e95c      0x5fc ua_shoot.o
 .data          0x0834ef58      0x5fc ua_force.o
 .data          0x0834f554      0x5fc ua_burn0.o
 .data          0x0834fb50      0x5fc ua_bird.o
 .data          0x0835014c      0x5fc ua_ninja.o
 .data          0x08350748      0x5fc ua_ninj1.o
 .data          0x08350d44      0x5fc ua_flyng.o
 .data          0x08351340      0x5fc ua_pigmo.o
 .data          0x0835193c      0x5fc ua_fish0.o
 .data          0x08351f38      0x604 ua_musi0.o
                0x08352534                MUSI_BGCK
 .data          0x0835253c      0x5fc ua_tubo.o
 .data          0x08352b38      0x5fc ua_mask.o
 .data          0x08353134      0x5fc ua_hebi0.o
 .data          0x08353730      0x5fc ua_hebi1.o
 .data          0x08353d2c      0x610 ua_sbten.o
 .data          0x0835433c      0x5fc ua_boss0.o
 .data          0x08354938      0x5fc ua_mikey.o
 .data          0x08354f34      0x5fc ua_ball1.o
 .data          0x08355530      0x5fc ua_snake.o
 .data          0x08355b2c      0x5fc ua_fire1.o
 .data          0x08356128      0x5fc ua_bkani.o
 .data          0x08356724      0x5fc ua_flwer.o
 .data          0x08356d20      0x5fc ua_canon.o
 .data          0x0835731c      0x620 ua_fnsui.o
 .data          0x0835793c      0x5fc ua_icemn.o
 .data          0x08357f38      0x5fc ua_fireb.o
 .data          0x08358534      0x5fc ua_mamuu.o
 .data          0x08358b30      0x5fc ua_bgkao.o
 .data          0x0835912c      0x5fc ua_whats.o
 .data          0x08359728      0x5fc ua_wood.o
 .data          0x08359d24      0x5fc ua_exit.o
 .data          0x0835a320      0x5fc ua_item.o
 .data          0x0835a91c      0x5fc ua_rocket.o
 .data          0x0835af18      0x5fc ua_heart.o
 .data          0x0835b514      0x67c ua_door.o
                0x0835bb80                DRCHST2_menu
 .data          0x0835bb90      0x60c ua_flag.o
 .data          0x0835c19c      0x5fc ua_lmp0.o
 .data          0x0835c798      0x5fc ua_star.o
 .data          0x0835cd94      0x5fc ua_spae.o
 .data          0x0835d390      0x62c ua_pwbk.o
 .data          0x0835d9bc      0x64c ua_bigboss.o
                0x0835dfbf                bgbs_NOMVTM
                0x0835dfb8                bgbs_OBJSIZDT
                0x0835dfe8                bgbsmv_menu
                0x0835dfc8                bgbsit_menu
 .data          0x0835e008      0x5fc ua_gondola.o
 .data          0x0835e604      0x608 ua_gonboss.o
                0x0835ec04                color_table
                0x0835ec00                gondola_color_table
 .data          0x0835ec0c      0x6c8 ua_gondata.o
                0x0835f24b                gondola_init_data4_3
                0x0835f254                gondola_init_data5_1
                0x0835f208                gondola_init_data1_1
                0x0835f270                gondola_init_data6_2
                0x0835f224                gondola_init_data2_2
                0x0835f27a                gondola_init_data7_1
                0x0835f271                gondola_init_data6_3
                0x0835f25e                gondola_init_data5_3
                0x0835f24a                gondola_init_data4_2
                0x0835f240                gondola_init_data3_3
                0x0835f21b                gondola_init_data2_1
                0x0835f212                gondola_init_data1_3
                0x0835f267                gondola_init_data6_1
                0x0835f27f                gondola_init_data7_2
                0x0835f255                gondola_init_data5_2
                0x0835f236                gondola_init_data3_1
                0x0835f23f                gondola_init_data3_2
                0x0835f249                gondola_init_data4_1
                0x0835f284                gondola_init_data_table
                0x0835f22d                gondola_init_data2_3
                0x0835f211                gondola_init_data1_2
 .data          0x0835f2d4      0x5fc ua_cherry.o
 .data          0x0835f8d0      0x5fc ua_gohoubi.o
 .data          0x0835fecc      0x5fc ua_toge.o
 .data          0x083604c8      0x5fc ua_egg.o
 .data          0x08360ac4      0x5fc ua_mask1.o
 .data          0x083610c0      0x62c ua_capsule.o
                0x083616d4                CapsuleOamsetTable
                0x083616bc                CapsuleMoveTable
 .data          0x083616ec      0x5fc ua_lift.o
 .data          0x08361ce8      0x610 ua_bubble.o
                0x083622e4                b_mxspd
 .data          0x083622f8      0x5fc ua_sboss.o
 .data          0x083628f4      0x5fc ua_itemball.o
 .data          0x08362ef0      0x5fc ua_mosaic.o
 .data          0x083634ec      0x604 ua_coin.o
 .data          0x08363af0      0x1d4 ua_endat0a.o
                0x08363b80                FIYSDT
                0x08363af0                BOSFDT1
                0x08363b71                MSXSDT
                0x08363baa                BSSHTM
                0x08363b68                MSPWDT
                0x08363b6e                MSYLTD
                0x08363b98                FBSXAD
                0x08363b4c                PGYMXSDT
                0x08363c6a                BTAMSD
                0x08363cba                KAFLTM
                0x08363ba4                FRSYSD
                0x08363bea                SNHDAD
                0x08363c6f                PAGTOP
                0x08363b44                PGXMXSDT
                0x08363bfa                MMBLYD
                0x08363bfe                DRXPSL
                0x08363b2a                FISYSDT
                0x08363b16                FLIXPS
                0x08363b28                FISYPS
                0x08363ba8                BS0BXAD
                0x08363c34                BMYAD
                0x08363b78                FIXSDT
                0x08363bad                KSFITM
                0x08363c06                DRXSPD
                0x08363c58                BTAMSZ
                0x08363b54                CRPTSDT
                0x08363c78                COUSE_DT
                0x08363b60                ICEXMXSDT
                0x08363bc7                KNISYD
                0x08363b6b                MSXLTD
                0x08363b74                MSYSDT
                0x08363bd2                SNFRXSD
                0x08363c94                KAMROM
                0x08363bc4                KNISXD
                0x08363b88                FBSXSD
                0x08363b36                NIN1YSD
                0x08363c02                DRYPSL
                0x08363af6                hibana_xdt
                0x08363b3c                PGPOWDT
                0x08363bb4                ISYSDT
                0x08363c9c                KACGDT
                0x08363bde                SNFRYSD
                0x08363bca                ISJPDT
                0x08363b58                ICEPOWDT
                0x08363b18                FLYSDT
                0x08363c10                BMXAD
                0x08363b9c                FBSYAD
                0x08363b06                hibana_ydt
                0x08363bb0                BKDNYSPD
                0x08363bbc                KNYSDT
                0x08363ba0                FRSAND
 .data          0x08363cc4      0x7cc ua_endat0b.o
                0x08364417                SORTDT
                0x08364010                OSZBGBS1_Dt
                0x08364014                OSZBGBS2_Dt
                0x0836401c                OSZITEMBALL1_Dt
                0x08363cc4                BSZBIG_Dt
                0x08363ff0                OSZTOGE_Dt
                0x08364141                act_ENOJSZ_tbl
                0x08363fbc                OSZBOMB_Dt
                0x08363fac                OSZCN_Dt
                0x08364233                ENATDT
                0x08363f78                OSZ0_Dt
                0x08364028                OSZBIGWALK1_Dt
                0x08364018                OSZITEMBALL0_Dt
                0x08363d64                BSZCRPT_Dt
                0x08363fb0                OSZMM_Dt
                0x08363ff8                OSZEXIT3_Dt
                0x08364020                OSZITEMBALL2_Dt
                0x08363ff4                OSZEXIT2_Dt
                0x08364000                OSZEGG_Dt
                0x08364325                CROSMD
                0x08363d14                BSZSHO_Dt
                0x083641ba                ENCLDT
                0x08363fe0                OSZGONDOLA_Dt
                0x08363fa4                OSZ03_Dt
                0x08363d44                BSZTAMA_Dt
                0x08364038                act_hit_tbl
                0x08363fa8                OSZSNK_Dt
                0x08363f94                OSZEXIT_Dt
                0x08363d34                BSZ9_Dt
                0x08363f9c                OSZ3_Dt
                0x08363fec                OSZBIGBR_Dt
                0x08363fd0                OSZBLUE1_Dt
                0x08363fb8                OSZKN_Dt
                0x08363fcc                OSZFISH4_Dt
                0x08363cd4                BSZBGBS_Dt
                0x08364030                OSZBIGWALK3_Dt
                0x08363fd8                OSZBLUE3_Dt
                0x08363fdc                OSZBLUE4_Dt
                0x08363fc4                OSZFISH2_Dt
                0x08363d04                BSZ2_Dt
                0x08364034                OSZBIGWALK4_Dt
                0x08363f7c                OSZBIG_Dt
                0x0836402c                OSZBIGWALK2_Dt
                0x08363d84                BSZFACE_Dt
                0x0836400c                OSZBGBS0_Dt
                0x08364004                OSZFACE_Dt
                0x08363ce4                BSZ0_Dt
                0x08363fd4                OSZBLUE2_Dt
                0x08363fe8                OSZLIFT2_Dt
                0x08363fc8                OSZFISH3_Dt
                0x08363fc0                OSZFISH1_Dt
                0x08363fa0                OSZ02_Dt
                0x08363d54                BSZB_Dt
                0x08364024                OSZBIGCOIN_Dt
                0x08363d74                BSZBOMB_Dt
                0x08363fb4                OSZFN_Dt
                0x08363d94                act_bgcross_tbl
                0x08363d24                BSZS_Dt
                0x0836410c                ENOZSZ_Dt
                0x08363ffc                OSZMASK1_Dt
                0x08363fe4                OSZLIFT_Dt
                0x08364008                OSZBIRD_Dt
                0x0836439e                ENCRSMD
                0x08363f90                OSZCRPT_Dt
                0x08363cf4                BSZ1_Dt
                0x083642ac                ENMDDT
                0x08363f84                OSZ2_Dt
                0x08363f88                OSZB_Dt
                0x08363f8c                OSZWOOD_Dt
                0x08363f98                OSZBGKAO_Dt
                0x08363f80                OSZ1_Dt
 .data          0x08364490     0x2634 ua_endt.o
                0x0836565c                ENDT9_10
                0x08365610                ENDT9_7
                0x0836662a                ENDT20_7
                0x08366754                couse_endt_tbl
                0x08364e4e                ENDT3_3
                0x083652fa                ENDT7_4
                0x08364fbc                ENDT5_1
                0x083662e0                ENDT19_1
                0x0836673e                ENDT20_10
                0x08365746                ENDT10_2
                0x08365fe2                ENDT16_7
                0x0836535a                ENDT8_0
                0x083654c4                ENDT9_3
                0x08365260                ENDT6_10
                0x08364ee0                ENDT3_4
                0x0836612c                ENDT18_1
                0x08366258                ENDT18_4
                0x08364a8c                ENDT_EMPTY
                0x08365e98                ENDT15_5
                0x08365436                ENDT8_2
                0x08365748                ENDT10_4
                0x08366432                ENDT20_1
                0x08366482                ENDT20_2
                0x08366410                ENDT19_10
                0x08366030                ENDT17_1
                0x08365c14                ENDT14_2
                0x08364c2c                ENDT1_10
                0x08364afe                ENDT1_2
                0x08365a0c                ENDT12_3
                0x0836577c                ENDT11_1
                0x08364cf0                ENDT2_4
                0x0836547a                ENDT9_2
                0x08365eb4                ENDT16_0
                0x08365f98                ENDT16_3
                0x0836591c                ENDT12_0
                0x08365a94                ENDT13_0
                0x08365048                ENDT5_2
                0x08365a5e                ENDT12_6
                0x08365750                ENDT11_0
                0x08365d72                ENDT15_2
                0x08365100                ENDT6_0
                0x08364aba                ENDT1_1
                0x0836524c                ENDT6_7
                0x08365fc6                ENDT16_5
                0x083663e8                ENDT19_4
                0x08365fe4                ENDT16_10
                0x08364ef6                ENDT4_0
                0x08366724                ENDT20_9
                0x083655ea                ENDT9_6
                0x0836651c                ENDT20_4
                0x083658f6                ENDT11_4
                0x083650f8                ENDT5_10
                0x08364eee                ENDT3_10
                0x08365d9e                ENDT15_3
                0x08364f4c                ENDT4_1
                0x08364c96                ENDT2_1
                0x08365ca2                ENDT14_4
                0x08366152                ENDT18_2
                0x0836628a                ENDT18_5
                0x083650de                ENDT5_5
                0x083656f0                ENDT10_1
                0x083660fe                ENDT17_2
                0x08364bc6                ENDT1_3
                0x083652d4                ENDT7_3
                0x08364cc8                ENDT2_2
                0x08365f2e                ENDT16_1
                0x08364c0c                ENDT1_5
                0x08364f8a                ENDT4_2
                0x083664de                ENDT20_3
                0x08365b2e                ENDT13_2
                0x08365eac                ENDT15_10
                0x08364f9e                ENDT4_4
                0x0836544a                ENDT8_3
                0x08365cf0                ENDT15_0
                0x08365b64                ENDT14_1
                0x08365fb8                ENDT16_4
                0x08364dc8                ENDT3_2
                0x08366360                ENDT19_2
                0x08365074                ENDT5_3
                0x08365998                ENDT12_2
                0x08365a8c                ENDT12_10
                0x0836515a                ENDT6_3
                0x0836584a                ENDT11_2
                0x083652cc                ENDT7_2
                0x083650d6                ENDT5_4
                0x08365a7e                ENDT12_7
                0x08365152                ENDT6_2
                0x08365ce2                ENDT14_10
                0x08365fda                ENDT16_6
                0x083662c4                ENDT18_10
                0x083662cc                ENDT19_0
                0x08365648                ENDT9_8
                0x083655be                ENDT9_5
                0x0836657e                ENDT20_5
                0x08366586                ENDT20_6
                0x083651ce                ENDT6_4
                0x08364bf2                ENDT1_4
                0x08366402                ENDT19_5
                0x08365326                ENDT7_5
                0x08366698                ENDT20_8
                0x08364ce2                ENDT2_3
                0x08365e36                ENDT15_4
                0x08364db4                ENDT3_1
                0x083662a4                ENDT18_6
                0x08366124                ENDT18_0
                0x083661ba                ENDT18_3
                0x08364c34                ENDT2_0
                0x08365108                ENDT6_1
                0x08365fec                ENDT17_0
                0x08365c64                ENDT14_3
                0x08365276                ENDT7_1
                0x08365352                ENDT7_10
                0x08364fa6                ENDT4_10
                0x08365562                ENDT9_4
                0x08365f72                ENDT16_2
                0x08365b4e                ENDT13_10
                0x08365664                ENDT10_0
                0x08365cb6                ENDT14_5
                0x08366418                ENDT20_0
                0x0836523e                ENDT6_6
                0x08365ab4                ENDT13_1
                0x08364cf8                ENDT3_0
                0x08364a8e                ENDT1_0
                0x08365a44                ENDT12_5
                0x08364fae                ENDT5_0
                0x083653f2                ENDT8_1
                0x0836592a                ENDT12_1
                0x08365452                ENDT9_0
                0x08365b56                ENDT14_0
                0x08365d0a                ENDT15_1
                0x083651d6                ENDT6_5
                0x08365268                ENDT7_0
                0x08366398                ENDT19_3
                0x08365460                ENDT9_1
                0x083658ca                ENDT11_3
 .data          0x08366ac4      0x5fc ua_effect.o
 .data          0x083670c0      0x11c ua_effectdt.o
                0x083671ca                bseft_yspd_dt
                0x08367132                score_point_talbe
                0x08367102                bighahen_psdt
                0x083670c0                stareft_plttdt
                0x08367152                score_addpoint_table
                0x083670e2                hahen_psdt
                0x0836717a                hanabi_dt
                0x083671ba                bseft_xspd_dt
                0x08367142                score_pwpit_talbe
 .data          0x083671dc      0x5fc ua_shock.o
 .data          0x083677d8      0x6a8 ua_stareffect.o
 .data          0x08367e80      0x5fc ua_bosseffect.o
 .data          0x0836847c      0x618 ua_cros.o
                0x08368a78                enmy_giveup_menu
 .data          0x08368a94      0x478 up_commondt.o
                0x08368e6c                player_BGcheck_Y_left
                0x08368e14                SLDATA4
                0x08368e64                player_BGcheck_X_left
                0x08368ea0                player_BGcheck_X_data
                0x08368f04                no_katsugi_time
                0x08368e7c                player_BGcheck_Y_right
                0x08368e8a                player_BGcheck_Y_mtsuru
                0x08368cd4                player_oamdt_Bjump_Big_01
                0x08368d34                player_OAM_data_Bjump_Big
                0x08368e86                player_BGcheck_Y_tsuru
                0x08368cfc                player_oamdt_Bjump_Big_02
                0x08368ec4                player_BGcheck_Y_data
                0x08368e54                player_BGcheck_X_foot
                0x08368ef8                TSRXSP
                0x08368a94                player_OAM_data
                0x08368ee8                DORCKDT
                0x08368e8c                player_BGcheck_X_front
                0x08368d88                player_oamdt_Bjump_Small_02
                0x08368efb                TSRYSP
                0x08368dcc                SLDATA1
                0x08368e4c                player_BGcheck_Y_head
                0x08368e88                player_BGcheck_X_mtsuru
                0x08368d68                player_oamdt_Bjump_Small_01
                0x08368dc8                player_OAM_count_Bjump_Small
                0x08368e2c                play_seldata_tbl
                0x08368de4                SLDATA2
                0x08368dfc                SLDATA3
                0x08368e90                player_BGcheck_X_nage
                0x08368e84                player_BGcheck_X_tsuru
                0x08368d44                player_OAM_count_Bjump_Big
                0x08368efe                LFITDT
                0x08368e5c                player_BGcheck_Y_foot
                0x08368e98                player_BGcheck_Y_nage
                0x08368e3c                player_PLSYDT
                0x08368f02                no_katsugi_char
                0x08368e8d                player_BGcheck_Y_front
                0x08368e74                player_BGcheck_X_right
                0x08368d98                player_oamdt_Bjump_Small_03
                0x08368d14                player_oamdt_Bjump_Big_03
                0x08368db8                player_OAM_data_Bjump_Small
                0x08368e8e                player_BGcheck_X_tsubo
                0x08368e8f                player_BGcheck_Y_tsubo
                0x08368f06                back_jump_time
                0x08368cb4                player_oamdt_Bjump_Big_00
                0x08368e44                player_BGcheck_X_head
                0x08368d48                player_oamdt_Bjump_Small_00
 .data          0x08368f0c      0x6fc up_exst.o
                0x08369568                stone_OAM_data
                0x08369554                stone_Xspd_in
                0x08369564                stone_wait_time
                0x08369582                star_color
                0x08369514                ex_move_menu
                0x08369586                star_OAM_data
                0x08369524                smoke_OAM_data
                0x0836957d                star_pattern
                0x08369578                star_timer
                0x08369570                WFSTTM
                0x08369520                ex_oamcount
                0x08369508                ex_init_menu
                0x08369544                stone_Xoffset
                0x0836954c                stone_Yoffset
                0x0836955c                stone_Yspd_in
 .data          0x08369608        0x8 um_yscr.o
                0x08369608                H_scroll_select
 .data          0x08369610        0x8 um_tscr.o
                0x08369610                V_scroll_select
 .data          0x08369618      0x2e0 course_data.o
                0x0836983c                MapData5
                0x083697d8                MapData0
                0x08369850                MapData6
                0x083697b8                EnDtBtl_0B
                0x08369658                EnDtBtl_00
                0x083696d8                EnDtBtl_04
                0x0836988c                MapData9
                0x08369828                MapData4
                0x08369648                BGCoinData
                0x083698b4                MapDataB
                0x08369798                EnDtBtl_0A
                0x08369758                EnDtBtl_08
                0x083698a0                MapDataA
                0x08369814                MapData3
                0x08369618                BrosCourseTable
                0x083696b8                EnDtBtl_03
                0x08369738                EnDtBtl_07
                0x083696f8                EnDtBtl_05
                0x08369878                MapData8
                0x083698c8                MapDataTBL
                0x083697ec                MapData1
                0x08369864                MapData7
                0x08369800                MapData2
                0x08369778                EnDtBtl_09
                0x08369678                EnDtBtl_01
                0x08369698                EnDtBtl_02
                0x08369718                EnDtBtl_06
 .data          0x083698f8      0x440 course_classic.o
                0x08369b70                MapClas6
                0x08369c60                MapClas12
                0x08369bfc                MapClasD
                0x08369cc4                MapClas17
                0x08369a98                EnDtCls_09
                0x08369998                EnDtCls_01
                0x08369af8                MapClas0
                0x08369a58                EnDtCls_07
                0x083699f8                EnDtCls_04
                0x08369b48                MapClas4
                0x08369be8                MapClasC
                0x083699b8                EnDtCls_02
                0x08369b34                MapClas3
                0x08369958                BGCCoinData
                0x08369cb0                MapClas16
                0x083698f8                ClassicCourseTable
                0x08369c24                MapClasF
                0x08369c10                MapClasE
                0x08369c38                MapClas10
                0x08369cd8                MapClassic
                0x08369ad8                EnDtCls_0C
                0x08369bc0                MapClasA
                0x08369c9c                MapClas15
                0x08369a38                EnDtCls_06
                0x08369b0c                MapClas1
                0x08369bac                MapClas9
                0x08369a18                EnDtCls_05
                0x08369bd4                MapClasB
                0x08369b84                MapClas7
                0x08369c88                MapClas14
                0x08369c74                MapClas13
                0x08369a78                EnDtCls_08
                0x08369978                EnDtCls_00
                0x08369c4c                MapClas11
                0x08369ab8                EnDtCls_0A
                0x08369b98                MapClas8
                0x08369b5c                MapClas5
                0x08369b20                MapClas2
                0x083699d8                EnDtCls_03
 .data          0x08369d38      0x53c d_classic_haikeiA_LZ.o
                0x08369d38                d_classic_haikeiA_LZ
 .data          0x0836a274      0x5a4 d_classic_haikeiB_LZ.o
                0x0836a274                d_classic_haikeiB_LZ
 .data          0x0836a818      0x560 d_classic_haikeiC_LZ.o
                0x0836a818                d_classic_haikeiC_LZ
 .data          0x0836ad78      0x4cc d_classic_haikeiD_LZ.o
                0x0836ad78                d_classic_haikeiD_LZ
 .data          0x0836b244      0x2f0 d_playerA_sob.o
                0x0836b314                d_playerA_sob_0B
                0x0836b43c                d_playerA_sob_16
                0x0836b25c                d_playerA_sob_01
                0x0836b39c                d_playerA_sob_11
                0x0836b2bc                d_playerA_sob_05
                0x0836b2fc                d_playerA_sob_0A
                0x0836b33c                d_playerA_sob_0D
                0x0836b484                d_playerA_sob_18
                0x0836b4dc                d_playerA_sob_1B
                0x0836b3cc                d_playerA_sob_13
                0x0836b244                d_playerA_sob_00
                0x0836b2d4                d_playerA_sob_08
                0x0836b4ac                d_playerA_sob_19
                0x0836b50c                d_playerA_sob_1D
                0x0836b3b4                d_playerA_sob_12
                0x0836b384                d_playerA_sob_10
                0x0836b274                d_playerA_sob_02
                0x0836b4c4                d_playerA_sob_1A
                0x0836b40c                d_playerA_sob_15
                0x0836b36c                d_playerA_sob_0F
                0x0836b324                d_playerA_sob_0C
                0x0836b3e4                d_playerA_sob_14
                0x0836b2a4                d_playerA_sob_04
                0x0836b2ec                d_playerA_sob_09
                0x0836b4f4                d_playerA_sob_1C
                0x0836b45c                d_playerA_sob_17
                0x0836b354                d_playerA_sob_0E
                0x0836b28c                d_playerA_sob_03
 .data          0x0836b534      0x2d8 d_playerB_sob.o
                0x0836b674                d_playerB_sob_0F
                0x0836b62c                d_playerB_sob_0C
                0x0836b564                d_playerB_sob_02
                0x0836b6a4                d_playerB_sob_11
                0x0836b61c                d_playerB_sob_0B
                0x0836b7e4                d_playerB_sob_1C
                0x0836b7cc                d_playerB_sob_1B
                0x0836b72c                d_playerB_sob_15
                0x0836b5c4                d_playerB_sob_06
                0x0836b534                d_playerB_sob_00
                0x0836b65c                d_playerB_sob_0E
                0x0836b54c                d_playerB_sob_01
                0x0836b5dc                d_playerB_sob_08
                0x0836b5f4                d_playerB_sob_09
                0x0836b6fc                d_playerB_sob_14
                0x0836b7f4                d_playerB_sob_1D
                0x0836b744                d_playerB_sob_16
                0x0836b76c                d_playerB_sob_17
                0x0836b57c                d_playerB_sob_03
                0x0836b644                d_playerB_sob_0D
                0x0836b6bc                d_playerB_sob_12
                0x0836b604                d_playerB_sob_0A
                0x0836b68c                d_playerB_sob_10
                0x0836b7b4                d_playerB_sob_1A
                0x0836b6d4                d_playerB_sob_13
                0x0836b784                d_playerB_sob_18
                0x0836b79c                d_playerB_sob_19
                0x0836b594                d_playerB_sob_04
                0x0836b5ac                d_playerB_sob_05
 .data          0x0836b80c      0x898 ud_course_data.o
                0x0836b9c4                cos_buf_table1
                0x0836b80c                cos_init_table
                0x0836bd34                cos_buf_table2
 .data          0x0836c0a4     0x52f0 client.o
                0x08371394                _binary_client_bin_end
                0x0836c0a4                _binary_client_bin_start
 .data          0x08371394     0x2800 bros_bg.o
                0x08371394                _binary_bros_bg_bin_start
                0x08373b94                _binary_bros_bg_bin_end
 .data          0x08373b94     0x7300 bros_obj1.o
                0x08373b94                _binary_bros_obj1_bin_start
                0x0837ae94                _binary_bros_obj1_bin_end
 .data          0x0837ae94    0x388d8 vs.o
                0x083b376c                _binary_vs_bin_end
                0x0837ae94                _binary_vs_bin_start
 .data          0x083b376c      0xd00 bros_obj0.o
                0x083b376c                _binary_bros_obj0_bin_start
                0x083b446c                _binary_bros_obj0_bin_end
 .data          0x083b446c     0x27dc USA_data/usa_data.a(ud_crosdt.o)
                0x083b446c                tokuten_table
 .data          0x083b6c48     0x13c4 USA_data/usa_data.a(ud_ending.o)
                0x083b7e74                ending_save
                0x083b790c                XSPDT
                0x083b78fa                YPOSDT
                0x083b7966                ending_BANZDT
                0x083b7954                TMDT
                0x083b77a8                ending_HEBIDT
                0x083b7cf4                ending_DSPEND_table
                0x083b7930                YSPDT
                0x083b78e8                XPOSDT
                0x083b7d9c                ending_ENSTRTD
                0x083b77e8                ending_MAMUDT
                0x083b795d                CLRDT
                0x083b7870                ending_ADRCAL_table
 .data          0x083b800c     0x3734 USA_data/usa_data.a(ud_base_col.o)
                0x083ba40c                m_bg_col7
                0x083bb2c4                m_obj_col5
                0x083b9e0c                m_bg_col6
                0x083baea4                KSRCD2
                0x083baf84                PSRCD0
                0x083baf04                LSRCD0
                0x083bb084                m_obj_col2
                0x083baa4c                W63CGDT
                0x083baaac                STCGDT
                0x083bb384                m_obj_col6
                0x083bb66c                MAMUCGDT
                0x083bac54                TOCGDT07
                0x083baf64                NSRCD1
                0x083baa6c                W23CGDT
                0x083bae84                KSRCD1
                0x083bb730                gradation_table
                0x083b8c0c                m_bg_col3
                0x083bb704                player_pjumpcol_table
                0x083bb714                obj_col_table
                0x083b800c                m_bg_col1
                0x083bb204                m_obj_col4
                0x083bade4                m_MARIO_col
                0x083b860c                m_bg_col2
                0x083bac5c                TOCGDT0C
                0x083bb6a8                player_col_table
                0x083bb144                m_obj_col3
                0x083b920c                m_bg_col4
                0x083bb6f4                LUIJI_pjump_col
                0x083bb444                m_obj_col7
                0x083bb6d4                PEACH_pjump_col
                0x083bac64                m_obj_base
                0x083bb564                chasa_table
                0x083bae44                m_LUIJI_col
                0x083bb6b8                KSRTBL
                0x083baee4                MSRCD1
                0x083bafc4                m_obj_col1
                0x083bb68c                bg_col_table
                0x083bae04                m_PIECH_col
                0x083baacc                ICCGDT
                0x083bb58c                m_boss_col
                0x083baa8c                TNCGDT
                0x083baf24                LSRCD1
                0x083bb504                m_chasa_col
                0x083bb6e4                KINOPIO_pjump_col
                0x083baec4                MSRCD0
                0x083bb6c4                MARIO_pjump_col
                0x083bafa4                PSRCD1
                0x083bac4c                TOCGDT06
                0x083baf44                NSRCD0
                0x083bae64                KSRCD0
                0x083bae24                m_KINOPIO_col
                0x083baa0c                W22CGDT
                0x083b980c                m_bg_col5
 .data          0x083bb740      0x170 USA_data/usa_data.a(ud_player_sel_BG0_ssc.o)
                0x083bb740                d_player_sel_BG0_sscDTCP
 .data          0x083bb8b0       0xe0 USA_data/usa_data.a(ud_player_sel_BG2_ssc.o)
                0x083bb8b0                d_player_sel_BG2_sscDTCP
 .data          0x083bb990      0x1b0 USA_data/usa_data.a(ud_player_sel_BG3_ssc.o)
                0x083bb990                d_player_sel_BG3_sscDTCP
 .data          0x083bbb40      0x7e8 USA_data/usa_data.a(ud_slot_ssc.o)
                0x083bbf90                d_slot_effect_sscDTCP
                0x083bbb40                d_slot_sscDTCP
 .data          0x083bc328      0xce0 USA_data/usa_data.a(ud_unit.o)
                0x083bc820                unit_data1
                0x083bc328                unit_data0
                0x083bc998                unit_data2
 .data          0x083bd008     0x222c USA_data/usa_data.a(ud_unit2.o)
                0x083bef68                unit_TUBO
                0x083bd270                unit_W11UNT
                0x083bd2d0                unit_W13UNT
                0x083bea58                unit_W52UNT
                0x083bdb08                unit_W22UNT
                0x083bd008                unit_W10UNT
                0x083bec10                unit_W53UNT
                0x083be0d0                unit_W33UNT
                0x083bd748                unit_W20UNT
                0x083becf0                unit_KEYUNT
                0x083be2e8                unit_W71UNT
                0x083bd930                unit_W21UNT
                0x083be6b8                unit_W72UNT
                0x083bdc58                unit_W40UNT
                0x083bdcd8                unit_W41UNT
                0x083bf1f8                unit2_table
 .data          0x083bf234      0x2c4 USA_data/usa_data.a(ud_unit3.o)
                0x083bf304                unit3_BGUNT01
                0x083bf234                unit3_BGUNT00
                0x083bf34c                unit3_BGUNT02
                0x083bf40c                unit3_table
                0x083bf41c                unit3_table_COSDAT3
                0x083bf3ac                unit3_BGUNT03
 .data          0x083bf4f8      0x5c8 USA_data/usa_data.a(ud_tubo_bg2.o)
                0x083bf4f8                tubo_bg2_1
                0x083bf79c                tubo_bg2_4
                0x083bf5b3                tubo_bg2_2
                0x083bf933                tubo_bg2_5
                0x083bf66c                tubo_bg2_3
 .data          0x083bfac0      0x9bc USA_data/usa_data.a(ud_bg3.o)
                0x083bfd6f                BG3_CLOD04
                0x083c0450                STAR05
                0x083c0045                BG3_CLOD07
                0x083bfc0c                BG3_CLOD02
                0x083c03ec                STAR01
                0x083c0468                BG3_star_table
                0x083c03bc                BG3_KUMVAL
                0x083bfaec                BG3_CLOD00
                0x083c0137                BG3_CLOD08
                0x083c041a                STAR03
                0x083bfe61                BG3_CLOD05
                0x083bff53                BG3_CLOD06
                0x083c031b                BG3_CLOD0A
                0x083c0368                BG3_CLOD0B
                0x083bfac0                pattern_KUMOPAT
                0x083c0437                STAR04
                0x083bfb70                BG3_CLOD01
                0x083c0229                BG3_CLOD09
                0x083c0405                STAR02
                0x083bfc9d                BG3_CLOD03
 .data          0x083c047c      0x2c0 COS_data/usa_cos.a(ud_cos1_1_0.o)
                0x083c047c                cos1_1_0CP
 .data          0x083c073c      0x4a0 COS_data/usa_cos.a(ud_cos1_1_1.o)
                0x083c073c                cos1_1_1CP
 .data          0x083c0bdc      0x7d0 COS_data/usa_cos.a(ud_cos1_1_2.o)
                0x083c0bdc                cos1_1_2CP
 .data          0x083c13ac      0x420 COS_data/usa_cos.a(ud_cos1_1_3.o)
                0x083c13ac                cos1_1_3CP
 .data          0x083c17cc      0x308 COS_data/usa_cos.a(ud_cos1_1_4.o)
                0x083c17cc                cos1_1_4CP
 .data          0x083c1ad4      0x2e0 COS_data/usa_cos.a(ud_cos1_1_5.o)
                0x083c1ad4                cos1_1_5CP
 .data          0x083c1db4      0x748 COS_data/usa_cos.a(ud_cos1_2_0.o)
                0x083c1db4                cos1_2_0CP
 .data          0x083c24fc      0x410 COS_data/usa_cos.a(ud_cos1_2_1.o)
                0x083c24fc                cos1_2_1CP
 .data          0x083c290c      0x2c0 COS_data/usa_cos.a(ud_cos1_2_2.o)
                0x083c290c                cos1_2_2CP
 .data          0x083c2bcc      0x140 COS_data/usa_cos.a(ud_cos1_2_3.o)
                0x083c2bcc                cos1_2_3CP
 .data          0x083c2d0c      0x140 COS_data/usa_cos.a(ud_cos1_2_4.o)
                0x083c2d0c                cos1_2_4CP
 .data          0x083c2e4c      0x860 COS_data/usa_cos.a(ud_cos1_3_0.o)
                0x083c2e4c                cos1_3_0CP
 .data          0x083c36ac      0x174 COS_data/usa_cos.a(ud_cos1_3_1.o)
                0x083c36ac                cos1_3_1CP
 .data          0x083c3820      0x8f0 COS_data/usa_cos.a(ud_cos1_3_2.o)
                0x083c3820                cos1_3_2CP
 .data          0x083c4110      0x28c COS_data/usa_cos.a(ud_cos1_3_3.o)
                0x083c4110                cos1_3_3CP
 .data          0x083c439c      0x204 COS_data/usa_cos.a(ud_cos1_3_4.o)
                0x083c439c                cos1_3_4CP
 .data          0x083c45a0      0x40c COS_data/usa_cos.a(ud_cos2_1_0.o)
                0x083c45a0                cos2_1_0CP
 .data          0x083c49ac      0x3b8 COS_data/usa_cos.a(ud_cos2_1_1.o)
                0x083c49ac                cos2_1_1CP
 .data          0x083c4d64      0x34c COS_data/usa_cos.a(ud_cos2_1_2.o)
                0x083c4d64                cos2_1_2CP
 .data          0x083c50b0      0x1a0 COS_data/usa_cos.a(ud_cos2_1_3.o)
                0x083c50b0                cos2_1_3CP
 .data          0x083c5250      0x170 COS_data/usa_cos.a(ud_cos2_1_4.o)
                0x083c5250                cos2_1_4CP
 .data          0x083c53c0      0x210 COS_data/usa_cos.a(ud_cos2_2_0.o)
                0x083c53c0                cos2_2_0CP
 .data          0x083c55d0      0x488 COS_data/usa_cos.a(ud_cos2_2_1.o)
                0x083c55d0                cos2_2_1CP
 .data          0x083c5a58      0x3e0 COS_data/usa_cos.a(ud_cos2_2_2.o)
                0x083c5a58                cos2_2_2CP
 .data          0x083c5e38      0x550 COS_data/usa_cos.a(ud_cos2_2_3.o)
                0x083c5e38                cos2_2_3CP
 .data          0x083c6388      0x16c COS_data/usa_cos.a(ud_cos2_2_4.o)
                0x083c6388                cos2_2_4CP
 .data          0x083c64f4      0x2f4 COS_data/usa_cos.a(ud_cos2_2_5.o)
                0x083c64f4                cos2_2_5CP
 .data          0x083c67e8      0x16c COS_data/usa_cos.a(ud_cos2_2_6.o)
                0x083c67e8                cos2_2_6CP
 .data          0x083c6954      0x214 COS_data/usa_cos.a(ud_cos2_2_7.o)
                0x083c6954                cos2_2_7CP
 .data          0x083c6b68       0xac COS_data/usa_cos.a(ud_cos2_3_0.o)
                0x083c6b68                cos2_3_0CP
 .data          0x083c6c14      0x594 COS_data/usa_cos.a(ud_cos2_3_1.o)
                0x083c6c14                cos2_3_1CP
 .data          0x083c71a8      0x1f8 COS_data/usa_cos.a(ud_cos2_3_2.o)
                0x083c71a8                cos2_3_2CP
 .data          0x083c73a0      0x8d4 COS_data/usa_cos.a(ud_cos2_3_3.o)
                0x083c73a0                cos2_3_3CP
 .data          0x083c7c74      0x164 COS_data/usa_cos.a(ud_cos2_3_4.o)
                0x083c7c74                cos2_3_4CP
 .data          0x083c7dd8      0x4b0 COS_data/usa_cos.a(ud_cos2_3_5.o)
                0x083c7dd8                cos2_3_5CP
 .data          0x083c8288      0x1f8 COS_data/usa_cos.a(ud_cos2_3_6.o)
                0x083c8288                cos2_3_6CP
 .data          0x083c8480      0x120 COS_data/usa_cos.a(ud_cos2_3_7.o)
                0x083c8480                cos2_3_7CP
 .data          0x083c85a0      0x280 COS_data/usa_cos.a(ud_cos3_1_0.o)
                0x083c85a0                cos3_1_0CP
 .data          0x083c8820      0x54c COS_data/usa_cos.a(ud_cos3_1_1.o)
                0x083c8820                cos3_1_1CP
 .data          0x083c8d6c      0x258 COS_data/usa_cos.a(ud_cos3_1_2.o)
                0x083c8d6c                cos3_1_2CP
 .data          0x083c8fc4      0x4cc COS_data/usa_cos.a(ud_cos3_1_3.o)
                0x083c8fc4                cos3_1_3CP
 .data          0x083c9490      0x330 COS_data/usa_cos.a(ud_cos3_1_4.o)
                0x083c9490                cos3_1_4CP
 .data          0x083c97c0      0x214 COS_data/usa_cos.a(ud_cos3_1_5.o)
                0x083c97c0                cos3_1_5CP
 .data          0x083c99d4      0x75c COS_data/usa_cos.a(ud_cos3_2_0.o)
                0x083c99d4                cos3_2_0CP
 .data          0x083ca130      0x984 COS_data/usa_cos.a(ud_cos3_2_1.o)
                0x083ca130                cos3_2_1CP
 .data          0x083caab4      0x29c COS_data/usa_cos.a(ud_cos3_2_2.o)
                0x083caab4                cos3_2_2CP
 .data          0x083cad50      0x23c COS_data/usa_cos.a(ud_cos3_3_0.o)
                0x083cad50                cos3_3_0CP
 .data          0x083caf8c      0x1f0 COS_data/usa_cos.a(ud_cos3_3_1.o)
                0x083caf8c                cos3_3_1CP
 .data          0x083cb17c      0x1cc COS_data/usa_cos.a(ud_cos3_3_2.o)
                0x083cb17c                cos3_3_2CP
 .data          0x083cb348      0xbc8 COS_data/usa_cos.a(ud_cos3_3_3.o)
                0x083cb348                cos3_3_3CP
 .data          0x083cbf10      0x6ac COS_data/usa_cos.a(ud_cos3_3_4.o)
                0x083cbf10                cos3_3_4CP
 .data          0x083cc5bc      0x310 COS_data/usa_cos.a(ud_cos3_3_5.o)
                0x083cc5bc                cos3_3_5CP
 .data          0x083cc8cc      0x168 COS_data/usa_cos.a(ud_cos3_3_6.o)
                0x083cc8cc                cos3_3_6CP
 .data          0x083cca34       0xcc COS_data/usa_cos.a(ud_cos3_3_7.o)
                0x083cca34                cos3_3_7CP
 .data          0x083ccb00      0x27c COS_data/usa_cos.a(ud_cos3_3_8.o)
                0x083ccb00                cos3_3_8CP
 .data          0x083ccd7c      0x36c COS_data/usa_cos.a(ud_cos4_1_0.o)
                0x083ccd7c                cos4_1_0CP
 .data          0x083cd0e8      0x4fc COS_data/usa_cos.a(ud_cos4_1_1.o)
                0x083cd0e8                cos4_1_1CP
 .data          0x083cd5e4      0x16c COS_data/usa_cos.a(ud_cos4_1_2.o)
                0x083cd5e4                cos4_1_2CP
 .data          0x083cd750      0x16c COS_data/usa_cos.a(ud_cos4_1_4.o)
                0x083cd750                cos4_1_4CP
 .data          0x083cd8bc      0x22c COS_data/usa_cos.a(ud_cos4_2_0.o)
                0x083cd8bc                cos4_2_0CP
 .data          0x083cdae8      0x118 COS_data/usa_cos.a(ud_cos4_2_1.o)
                0x083cdae8                cos4_2_1CP
 .data          0x083cdc00      0x534 COS_data/usa_cos.a(ud_cos4_2_2.o)
                0x083cdc00                cos4_2_2CP
 .data          0x083ce134      0x304 COS_data/usa_cos.a(ud_cos4_2_3.o)
                0x083ce134                cos4_2_3CP
 .data          0x083ce438      0x2c4 COS_data/usa_cos.a(ud_cos4_2_4.o)
                0x083ce438                cos4_2_4CP
 .data          0x083ce6fc      0x1d8 COS_data/usa_cos.a(ud_cos4_3_0.o)
                0x083ce6fc                cos4_3_0CP
 .data          0x083ce8d4      0x63c COS_data/usa_cos.a(ud_cos4_3_1.o)
                0x083ce8d4                cos4_3_1CP
 .data          0x083cef10      0x624 COS_data/usa_cos.a(ud_cos4_3_2.o)
                0x083cef10                cos4_3_2CP
 .data          0x083cf534      0x628 COS_data/usa_cos.a(ud_cos4_3_3.o)
                0x083cf534                cos4_3_3CP
 .data          0x083cfb5c      0x22c COS_data/usa_cos.a(ud_cos4_3_4.o)
                0x083cfb5c                cos4_3_4CP
 .data          0x083cfd88      0x15c COS_data/usa_cos.a(ud_cos4_3_5.o)
                0x083cfd88                cos4_3_5CP
 .data          0x083cfee4      0x130 COS_data/usa_cos.a(ud_cos4_3_6.o)
                0x083cfee4                cos4_3_6CP
 .data          0x083d0014       0xc0 COS_data/usa_cos.a(ud_cos4_3_7.o)
                0x083d0014                cos4_3_7CP
 .data          0x083d00d4      0x2ac COS_data/usa_cos.a(ud_cos5_1_0.o)
                0x083d00d4                cos5_1_0CP
 .data          0x083d0380      0x734 COS_data/usa_cos.a(ud_cos5_1_1.o)
                0x083d0380                cos5_1_1CP
 .data          0x083d0ab4      0x188 COS_data/usa_cos.a(ud_cos5_1_2.o)
                0x083d0ab4                cos5_1_2CP
 .data          0x083d0c3c      0x1c8 COS_data/usa_cos.a(ud_cos5_2_0.o)
                0x083d0c3c                cos5_2_0CP
 .data          0x083d0e04      0x7d0 COS_data/usa_cos.a(ud_cos5_2_1.o)
                0x083d0e04                cos5_2_1CP
 .data          0x083d15d4      0x578 COS_data/usa_cos.a(ud_cos5_2_2.o)
                0x083d15d4                cos5_2_2CP
 .data          0x083d1b4c      0xa48 COS_data/usa_cos.a(ud_cos5_2_3.o)
                0x083d1b4c                cos5_2_3CP
 .data          0x083d2594      0x1d4 COS_data/usa_cos.a(ud_cos5_2_4.o)
                0x083d2594                cos5_2_4CP
 .data          0x083d2768      0x260 COS_data/usa_cos.a(ud_cos5_2_5.o)
                0x083d2768                cos5_2_5CP
 .data          0x083d29c8      0x248 COS_data/usa_cos.a(ud_cos5_3_0.o)
                0x083d29c8                cos5_3_0CP
 .data          0x083d2c10      0x8a4 COS_data/usa_cos.a(ud_cos5_3_1.o)
                0x083d2c10                cos5_3_1CP
 .data          0x083d34b4      0x600 COS_data/usa_cos.a(ud_cos5_3_2.o)
                0x083d34b4                cos5_3_2CP
 .data          0x083d3ab4      0x754 COS_data/usa_cos.a(ud_cos5_3_3.o)
                0x083d3ab4                cos5_3_3CP
 .data          0x083d4208      0x82c COS_data/usa_cos.a(ud_cos5_3_4.o)
                0x083d4208                cos5_3_4CP
 .data          0x083d4a34      0x1a8 COS_data/usa_cos.a(ud_cos5_3_5.o)
                0x083d4a34                cos5_3_5CP
 .data          0x083d4bdc      0x3e4 COS_data/usa_cos.a(ud_cos6_1_0.o)
                0x083d4bdc                cos6_1_0CP
 .data          0x083d4fc0      0x34c COS_data/usa_cos.a(ud_cos6_1_1.o)
                0x083d4fc0                cos6_1_1CP
 .data          0x083d530c      0x218 COS_data/usa_cos.a(ud_cos6_1_2.o)
                0x083d530c                cos6_1_2CP
 .data          0x083d5524      0x25c COS_data/usa_cos.a(ud_cos6_1_3.o)
                0x083d5524                cos6_1_3CP
 .data          0x083d5780      0x144 COS_data/usa_cos.a(ud_cos6_1_4.o)
                0x083d5780                cos6_1_4CP
 .data          0x083d58c4      0x270 COS_data/usa_cos.a(ud_cos6_1_5.o)
                0x083d58c4                cos6_1_5CP
 .data          0x083d5b34      0x138 COS_data/usa_cos.a(ud_cos6_1_6.o)
                0x083d5b34                cos6_1_6CP
 .data          0x083d5c6c      0x13c COS_data/usa_cos.a(ud_cos6_1_7.o)
                0x083d5c6c                cos6_1_7CP
 .data          0x083d5da8      0x238 COS_data/usa_cos.a(ud_cos6_2_0.o)
                0x083d5da8                cos6_2_0CP
 .data          0x083d5fe0      0x3d0 COS_data/usa_cos.a(ud_cos6_2_1.o)
                0x083d5fe0                cos6_2_1CP
 .data          0x083d63b0      0x2bc COS_data/usa_cos.a(ud_cos6_2_2.o)
                0x083d63b0                cos6_2_2CP
 .data          0x083d666c       0xbc COS_data/usa_cos.a(ud_cos6_3_0.o)
                0x083d666c                cos6_3_0CP
 .data          0x083d6728      0x360 COS_data/usa_cos.a(ud_cos6_3_1.o)
                0x083d6728                cos6_3_1CP
 .data          0x083d6a88      0x7f4 COS_data/usa_cos.a(ud_cos6_3_2.o)
                0x083d6a88                cos6_3_2CP
 .data          0x083d727c      0xd68 COS_data/usa_cos.a(ud_cos6_3_3.o)
                0x083d727c                cos6_3_3CP
 .data          0x083d7fe4      0x1a0 COS_data/usa_cos.a(ud_cos6_3_4.o)
                0x083d7fe4                cos6_3_4CP
 .data          0x083d8184       0xc0 COS_data/usa_cos.a(ud_cos6_3_5.o)
                0x083d8184                cos6_3_5CP
 .data          0x083d8244      0x1cc COS_data/usa_cos.a(ud_cos6_3_6.o)
                0x083d8244                cos6_3_6CP
 .data          0x083d8410      0x214 COS_data/usa_cos.a(ud_cos6_3_7.o)
                0x083d8410                cos6_3_7CP
 .data          0x083d8624       0xa0 COS_data/usa_cos.a(ud_cos7_1_0.o)
                0x083d8624                cos7_1_0CP
 .data          0x083d86c4      0x400 COS_data/usa_cos.a(ud_cos7_1_1.o)
                0x083d86c4                cos7_1_1CP
 .data          0x083d8ac4      0x1e4 COS_data/usa_cos.a(ud_cos7_1_2.o)
                0x083d8ac4                cos7_1_2CP
 .data          0x083d8ca8      0x304 COS_data/usa_cos.a(ud_cos7_1_3.o)
                0x083d8ca8                cos7_1_3CP
 .data          0x083d8fac      0x218 COS_data/usa_cos.a(ud_cos7_1_4.o)
                0x083d8fac                cos7_1_4CP
 .data          0x083d91c4      0x130 COS_data/usa_cos.a(ud_cos7_1_5.o)
                0x083d91c4                cos7_1_5CP
 .data          0x083d92f4      0x210 COS_data/usa_cos.a(ud_cos7_2_0.o)
                0x083d92f4                cos7_2_0CP
 .data          0x083d9504      0x478 COS_data/usa_cos.a(ud_cos7_2_1.o)
                0x083d9504                cos7_2_1CP
 .data          0x083d997c      0xb78 COS_data/usa_cos.a(ud_cos7_2_2.o)
                0x083d997c                cos7_2_2CP
 .data          0x083da4f4      0x390 COS_data/usa_cos.a(ud_cos7_2_3.o)
                0x083da4f4                cos7_2_3CP
 .data          0x083da884      0x684 COS_data/usa_cos.a(ud_cos7_2_4.o)
                0x083da884                cos7_2_4CP
 .data          0x083daf08      0x45c COS_data/usa_cos.a(ud_cos7_2_5.o)
                0x083daf08                cos7_2_5CP
 .data          0x083db364      0xbd8 COS_data/usa_cos.a(ud_cos7_2_6.o)
                0x083db364                cos7_2_6CP
 .data          0x083dbf3c      0x404 COS_data/usa_cos.a(ud_cos7_2_7.o)
                0x083dbf3c                cos7_2_7CP
 .data          0x083dc340      0x8bc COS_data/usa_cos.a(ud_cos7_2_8.o)
                0x083dc340                cos7_2_8CP
 .data          0x083dcbfc      0x490 COS_data/usa_cos.a(ud_cos7_2_9.o)
                0x083dcbfc                cos7_2_9CP
 .data          0x083dd08c      0x7f4 COS_data/usa_cos.a(ud_cos21_1.o)
                0x083dd2b1                cos21_1_3CP
                0x083dd08c                cos21_1_0CP
                0x083dd0e7                cos21_1_2CP
                0x083dd824                cos21_1_5CP
 .data          0x083dd880      0xd84 COS_data/usa_cos.a(ud_cos21_3.o)
                0x083de416                cos21_3_4CP
                0x083dd9af                cos21_3_2CP
                0x083ddef4                cos21_3_3CP
                0x083dd880                cos21_3_1CP
 .data          0x083de604      0xb2c COS_data/usa_cos.a(ud_cos22_1.o)
                0x083de604                cos22_1_0CP
                0x083de759                cos22_1_1CP
                0x083df0f9                cos22_1_4CP
                0x083deb22                cos22_1_2CP
 .data          0x083df130      0x460 COS_data/usa_cos.a(ud_cos22_2.o)
                0x083df536                cos22_2_4CP
                0x083df2a2                cos22_2_1CP
                0x083df445                cos22_2_3CP
                0x083df130                cos22_2_0CP
 .data          0x083df590      0x2a4 COS_data/usa_cos.a(ud_cos22_3.o)
                0x083df66b                cos22_3_6CP
                0x083df590                cos22_3_4CP
 .data          0x083df834       0xf4 COS_data/usa_cos.a(ud_cos23_1.o)
                0x083df834                cos23_1_0CP
                0x083df8cb                cos23_1_3CP
 .data          0x083df928      0x320 COS_data/usa_cos.a(ud_cos23_2.o)
                0x083dfb3d                cos23_2_2CP
                0x083df928                cos23_2_0CP
                0x083dfa33                cos23_2_1CP
 .data          0x083dfc48      0x130 COS_data/usa_cos.a(ud_cos23_3.o)
                0x083dfc48                cos23_3_7CP
 .data          0x083dfd78      0x4b8 COS_data/usa_cos.a(ud_cos24_1.o)
                0x083dff2a                cos24_1_1CP
                0x083dfd78                cos24_1_0CP
 .data          0x083e0230      0x290 COS_data/usa_cos.a(ud_cos24_2.o)
                0x083e0465                cos24_2_3CP
                0x083e0230                cos24_2_0CP
 .data          0x083e04c0       0x5c COS_data/usa_cos.a(ud_cos24_3.o)
                0x083e04c0                cos24_3_4CP
 .data          0x083e051c       0x74 COS_data/usa_cos.a(ud_cos25_1.o)
                0x083e051c                cos25_1_0CP
 .data          0x083e0590      0x774 COS_data/usa_cos.a(ud_cos25_2.o)
                0x083e0b88                cos25_2_4CP
                0x083e0910                cos25_2_3CP
                0x083e0590                cos25_2_1CP
                0x083e075c                cos25_2_2CP
                0x083e0c2a                cos25_2_5CP
 .data          0x083e0d04      0x8ac COS_data/usa_cos.a(ud_cos25_3.o)
                0x083e13d6                cos25_3_4CP
                0x083e0d04                cos25_3_3CP
                0x083e1431                cos25_3_5CP
 .data          0x083e15b0      0x220 COS_data/usa_cos.a(ud_cos26_1.o)
                0x083e15b0                cos26_1_3CP
                0x083e1776                cos26_1_6CP
                0x083e16aa                cos26_1_5CP
                0x083e167c                cos26_1_4CP
 .data          0x083e17d0      0x1f8 COS_data/usa_cos.a(ud_cos26_2.o)
                0x083e17d0                cos26_2_1CP
 .data          0x083e19c8      0x224 COS_data/usa_cos.a(ud_cos26_3.o)
                0x083e1a23                cos26_3_6CP
                0x083e19c8                cos26_3_4CP
 .data          0x083e1bec      0x8bc COS_data/usa_cos.a(ud_cos27_1.o)
                0x083e22c9                cos27_1_5CP
                0x083e1bec                cos27_1_1CP
                0x083e20ec                cos27_1_4CP
                0x083e1e6c                cos27_1_2CP
 .data          0x083e24a8     0x2fec COS_data/usa_cos.a(ud_cos27_2.o)
                0x083e4a3b                cos27_2_7CP
                0x083e2c7e                cos27_2_2CP
                0x083e24a8                cos27_2_0CP
                0x083e3b74                cos27_2_4CP
                0x083e4f66                cos27_2_8CP
                0x083e4510                cos27_2_6CP
                0x083e42ef                cos27_2_5CP
                0x083e33f9                cos27_2_3CP
                0x083e2503                cos27_2_1CP
 .data          0x083e5494     0x157c COS_data/usa_cos.a(ud_tubo.o)
                0x083e625c                tubo5_2
                0x083e57ce                tubo2_1
                0x083e58dc                tubo2_2
                0x083e5f30                tubo4_2
                0x083e6588                tubo6_2
                0x083e647a                tubo6_1
                0x083e67a4                tubo7_1
                0x083e614e                tubo5_1
                0x083e5c06                tubo3_2
                0x083e59ea                tubo2_3
                0x083e603e                tubo4_3
                0x083e5af8                tubo3_1
                0x083e55aa                tubo1_2
                0x083e6696                tubo6_3
                0x083e69c0                tubo_bg1_table
                0x083e56b8                tubo1_3
                0x083e5d14                tubo3_3
                0x083e68b2                tubo7_2
                0x083e636c                tubo5_3
                0x083e5e22                tubo4_1
                0x083e5494                tubo1_1
 .data          0x083e6a10     0x11d0 COS_data/usa_cos.a(ud_next_goto.o)
                0x083e6a10                next_data
                0x083e7b68                kinoko_data
                0x083e7ba4                egg_data
                0x083e79b0                cos_unit2_dat
                0x083e7bcc                boss_grand_no
                0x083e7a8c                yos_col_address
 .data          0x083e7be0      0x2f0 C:\PROGRA~1\Cygnus\thumbelf-000512\H-i686-cygwin32\bin/../lib/gcc-lib/thumb-elf/2.9-arm-000512/../../../../thumb-elf/lib/libg.a(impure.o)
                0x083e7ecc                _impure_ptr
 .data          0x083e7ed0       0x14 C:\PROGRA~1\Cygnus\thumbelf-000512\H-i686-cygwin32\bin/../lib/gcc-lib/thumb-elf/2.9-arm-000512/../../../../thumb-elf/lib/libg.a(locale.o)
                0x083e7ed0                __mb_cur_max
 .data          0x083e7ee4      0x444 C:\PROGRA~1\Cygnus\thumbelf-000512\H-i686-cygwin32\bin/../lib/gcc-lib/thumb-elf/2.9-arm-000512/../../../../thumb-elf/lib/libg.a(mallocr.o)
                0x083e82f0                __malloc_top_pad
                0x083e82f8                __malloc_max_sbrked_mem
                0x083e82f4                __malloc_sbrk_base
                0x083e8300                __malloc_current_mallinfo
                0x083e7ee4                __malloc_av_
                0x083e82fc                __malloc_max_total_mem
                0x083e82ec                __malloc_trim_threshold
d5776 4
a5779 4
                0x083e8328                _edata=.
                0x083e8328                PROVIDE (edata, .)
                0x083e8328                __bss_start=.
                0x083e8328                __bss_start__=.
d6309 1
a6309 1
                0x00000000     0x9144
d6322 1
a6322 1
                0x00000409      0x191 m_classic_play.o
d6324 1
a6324 1
                0x0000059a      0x15c m_erase.o
d6326 1
a6326 1
                0x000006f6       0x70 m_game.o
d6328 1
a6328 1
                0x00000766      0x779 m_game_sub.o
d6330 1
a6330 1
                0x00000edf       0xa4 m_game_title.o
d6332 1
a6332 1
                0x00000f83      0x140 m_main.o
d6334 1
a6334 1
                0x000010c3      0x146 m_opening.o
d6336 1
a6336 1
                0x00001209       0x3b m_score.o
d6338 1
a6338 1
                0x00001244       0x59 m_title.o
d6340 1
a6340 1
                0x0000129d      0x292 m_title_sub.o
d6342 1
a6342 1
                0x0000152f      0x11c m_vs.o
d6344 1
a6344 1
                0x0000164b       0x35 m_VsGame.o
d6346 1
a6346 1
                0x00001680       0xb1 m_VsMain.o
d6348 1
a6348 1
                0x00001731       0x8e ua_char_set.o
d6350 1
a6350 1
                0x000017bf       0xb0 ua_course.o
d6352 1
a6352 1
                0x0000186f       0xa8 ua_ending.o
d6354 1
a6354 1
                0x00001917       0xfa ua_game.o
d6356 1
a6356 1
                0x00001a11       0x6e ua_game_over.o
d6358 1
a6358 1
                0x00001a7f       0x95 ua_pause.o
d6360 1
a6360 1
                0x00001b14      0x100 ua_score.o
d6362 1
a6362 1
                0x00001c14       0x71 ua_warp.o
d6364 1
a6364 1
                0x00001c85       0x91 um_bonus.o
d6366 1
a6366 1
                0x00001d16       0x4a um_courseclear.o
d6368 1
a6368 1
                0x00001d60       0x4a um_select.o
d6370 1
a6370 1
                0x00001daa      0x14f um_select_sub.o
d6372 1
a6372 1
                0x00001ef9       0xe3 um_yossy.o
d6374 1
a6374 1
                0x00001fdc      0x353 up_common.o
d6376 1
a6376 1
                0x0000232f      0x26e up_player.o
d6378 1
a6378 1
                0x0000259d       0x1f m_boot.o
d6380 1
a6380 1
                0x000025bc       0x8d m_sub.o
d6382 1
a6382 1
                0x00002649       0xb5 m_MultiSio.o
d6384 1
a6384 1
                0x000026fe       0x82 MultiBoot.o
d6386 1
a6386 1
                0x00002780       0x55 m_bgcheck.o
d6388 1
a6388 1
                0x000027d5       0x2e m_scroll.o
d6390 1
a6390 1
                0x00002803      0x10f m_classic_sub.o
d6392 1
a6392 1
                0x00002912       0x87 ua_save.o
d6394 1
a6394 1
                0x00002999       0xa9 um_result.o
d6396 1
a6396 1
                0x00002a42       0x45 um_math.o
d6398 1
a6398 1
                0x00002a87       0x93 um_oamset.o
d6400 1
a6400 1
                0x00002b1a       0x31 um_mosaic.o
d6402 1
a6402 1
                0x00002b4b      0x123 um_coursecleardt.o
d6404 1
a6404 1
                0x00002c6e       0x37 cm_game_title.o
d6406 1
a6406 1
                0x00002ca5       0x9c ua_act.o
d6408 1
a6408 1
                0x00002d41      0x2cb ua_common.o
d6410 1
a6410 1
                0x0000300c      0x71b ua_commondt.o
d6412 1
a6412 1
                0x00003727       0x68 ua_bg.o
d6414 1
a6414 1
                0x0000378f       0x22 ua_unit_change.o
d6416 1
a6416 1
                0x000037b1       0xf9 ua_color.o
d6418 1
a6418 1
                0x000038aa       0x25 ua_bg3_set.o
d6420 1
a6420 1
                0x000038cf       0x43 ua_sort.o
d6422 1
a6422 1
                0x00003912       0x4f ua_eggmeter.o
d6424 1
a6424 1
                0x00003961       0x6d ba_act.o
d6426 1
a6426 1
                0x000039ce       0x3e ba_bgYuKa.o
d6428 1
a6428 1
                0x00003a0c       0xd3 ba_bucket.o
d6430 1
a6430 1
                0x00003adf       0x8e ba_Coin.o
d6432 1
a6432 1
                0x00003b6d      0x1a1 ba_common.o
d6434 1
a6434 1
                0x00003d0e       0x39 ba_egg.o
d6436 1
a6436 1
                0x00003d47       0xcc ba_enFly.o
d6438 1
a6438 1
                0x00003e13       0xf1 ba_enKani.o
d6440 1
a6440 1
                0x00003f04      0x2a0 ba_enmy.o
d6442 1
a6442 1
                0x000041a4       0x24 ba_enNoko.o
d6444 1
a6444 1
                0x000041c8       0xc1 ba_enToge.o
d6446 1
a6446 1
                0x00004289       0xdc ba_fire.o
d6448 1
a6448 1
                0x00004365       0x35 ba_fishBone.o
d6450 1
a6450 1
                0x0000439a       0x2f ba_heart.o
d6452 1
a6452 1
                0x000043c9      0x112 ba_ice.o
d6454 1
a6454 1
                0x000044db       0x94 ba_koura.o
d6456 1
a6456 1
                0x0000456f      0x2e4 ba_kuppa.o
d6458 1
a6458 1
                0x00004853       0x60 ba_mutekiStar.o
d6460 1
a6460 1
                0x000048b3       0x47 ba_PipeWave.o
d6462 1
a6462 1
                0x000048fa       0x30 ba_point.o
d6464 1
a6464 1
                0x0000492a       0x48 ba_pow.o
d6466 1
a6466 1
                0x00004972       0x32 ba_smoke.o
d6468 1
a6468 1
                0x000049a4       0x3b ba_spark.o
d6470 1
a6470 1
                0x000049df       0x32 ba_splash.o
d6472 1
a6472 1
                0x00004a11       0x2d ba_star.o
d6474 1
a6474 1
                0x00004a3e       0xeb ba_icicle.o
d6476 1
a6476 1
                0x00004b29       0x32 ba_powsmk.o
d6478 1
a6478 1
                0x00004b5b       0x88 ua_fairy.o
d6480 1
a6480 1
                0x00004be3       0x80 ua_walk.o
d6482 1
a6482 1
                0x00004c63       0x32 ua_tori.o
d6484 1
a6484 1
                0x00004c95       0x34 ua_huck0.o
d6486 1
a6486 1
                0x00004cc9       0x45 ua_shoot.o
d6488 1
a6488 1
                0x00004d0e       0x54 ua_force.o
d6490 1
a6490 1
                0x00004d62       0x44 ua_burn0.o
d6492 1
a6492 1
                0x00004da6       0x42 ua_bird.o
d6494 1
a6494 1
                0x00004de8       0x34 ua_ninja.o
d6496 1
a6496 1
                0x00004e1c       0x34 ua_ninj1.o
d6498 1
a6498 1
                0x00004e50       0x34 ua_flyng.o
d6500 1
a6500 1
                0x00004e84       0x76 ua_pigmo.o
d6502 1
a6502 1
                0x00004efa       0x44 ua_fish0.o
d6504 1
a6504 1
                0x00004f3e       0x42 ua_musi0.o
d6506 1
a6506 1
                0x00004f80       0x41 ua_tubo.o
d6508 1
a6508 1
                0x00004fc1       0x42 ua_mask.o
d6510 1
a6510 1
                0x00005003       0x43 ua_hebi0.o
d6512 1
a6512 1
                0x00005046       0x46 ua_hebi1.o
d6514 1
a6514 1
                0x0000508c       0x52 ua_sbten.o
d6516 1
a6516 1
                0x000050de       0x57 ua_boss0.o
d6518 1
a6518 1
                0x00005135       0x44 ua_mikey.o
d6520 1
a6520 1
                0x00005179      0x15e ua_ball1.o
d6522 1
a6522 1
                0x000052d7       0x44 ua_snake.o
d6524 1
a6524 1
                0x0000531b       0x9b ua_fire1.o
d6526 1
a6526 1
                0x000053b6       0x44 ua_bkani.o
d6528 1
a6528 1
                0x000053fa       0x34 ua_flwer.o
d6530 1
a6530 1
                0x0000542e       0x54 ua_canon.o
d6532 1
a6532 1
                0x00005482       0x44 ua_fnsui.o
d6534 1
a6534 1
                0x000054c6       0x34 ua_icemn.o
d6536 1
a6536 1
                0x000054fa       0x76 ua_fireb.o
d6538 1
a6538 1
                0x00005570       0x44 ua_mamuu.o
d6540 1
a6540 1
                0x000055b4       0x44 ua_bgkao.o
d6542 1
a6542 1
                0x000055f8       0x52 ua_whats.o
d6544 1
a6544 1
                0x0000564a       0x32 ua_wood.o
d6546 1
a6546 1
                0x0000567c       0x41 ua_exit.o
d6548 1
a6548 1
                0x000056bd       0xa2 ua_item.o
d6550 1
a6550 1
                0x0000575f       0x47 ua_rocket.o
d6552 1
a6552 1
                0x000057a6       0x2f ua_heart.o
d6554 1
a6554 1
                0x000057d5       0xdb ua_door.o
d6556 1
a6556 1
                0x000058b0       0x6a ua_flag.o
d6558 1
a6558 1
                0x0000591a       0x22 ua_lmp0.o
d6560 1
a6560 1
                0x0000593c       0x4f ua_star.o
d6562 1
a6562 1
                0x0000598b       0x22 ua_spae.o
d6564 1
a6564 1
                0x000059ad       0x66 ua_pwbk.o
d6566 1
a6566 1
                0x00005a13       0xb0 ua_bigboss.o
d6568 1
a6568 1
                0x00005ac3       0x6f ua_gondola.o
d6570 1
a6570 1
                0x00005b32       0x81 ua_gonboss.o
d6572 1
a6572 1
                0x00005bb3      0x222 ua_gondata.o
d6574 1
a6574 1
                0x00005dd5       0x54 ua_cherry.o
d6576 1
a6576 1
                0x00005e29       0xa0 ua_gohoubi.o
d6578 1
a6578 1
                0x00005ec9       0x50 ua_toge.o
d6580 1
a6580 1
                0x00005f19       0x75 ua_egg.o
d6582 1
a6582 1
                0x00005f8e       0x53 ua_mask1.o
d6584 1
a6584 1
                0x00005fe1      0x1cd ua_capsule.o
d6586 1
a6586 1
                0x000061ae       0x60 ua_lift.o
d6588 1
a6588 1
                0x0000620e       0x62 ua_bubble.o
d6590 1
a6590 1
                0x00006270       0x6b ua_sboss.o
d6592 1
a6592 1
                0x000062db       0x6d ua_itemball.o
d6594 1
a6594 1
                0x00006348       0x47 ua_mosaic.o
d6596 1
a6596 1
                0x0000638f       0x78 ua_coin.o
d6598 1
a6598 1
                0x00006407      0x25e ua_endat0a.o
d6600 1
a6600 1
                0x00006665      0x431 ua_endat0b.o
d6602 1
a6602 1
                0x00006a96      0x6c8 ua_endt.o
d6604 1
a6604 1
                0x0000715e       0x95 ua_effect.o
d6606 1
a6606 1
                0x000071f3       0xbd ua_effectdt.o
d6608 1
a6608 1
                0x000072b0       0x53 ua_shock.o
d6610 1
a6610 1
                0x00007303       0xb8 ua_stareffect.o
d6612 1
a6612 1
                0x000073bb       0x42 ua_bosseffect.o
d6614 1
a6614 1
                0x000073fd       0x4d ua_cros.o
d6616 1
a6616 1
                0x0000744a      0x533 up_commondt.o
d6618 1
a6618 1
                0x0000797d      0x1eb up_exst.o
d6620 1
a6620 1
                0x00007b68       0x71 um_yscr.o
d6622 1
a6622 1
                0x00007bd9       0x5e um_tscr.o
d6624 1
a6624 1
                0x00007c37       0x59 m_mini_malloc.o
d6626 1
a6626 1
                0x00007c90      0x1da course_data.o
d6628 1
a6628 1
                0x00007e6a      0x275 course_classic.o
d6630 1
a6630 1
                0x000080df       0x26 d_bros_BG_scl.o
d6632 1
a6632 1
                0x00008105       0x2e d_Bros_obj_winner_scl.o
d6634 1
a6634 1
                0x00008133       0x2c d_classic_bg_sch_Huff.o
d6636 1
a6636 1
                0x0000815f       0x29 d_classic_bg_scl.o
d6638 1
a6638 1
                0x00008188       0x2d d_classic_obj_sch_Huff.o
d6640 1
a6640 1
                0x000081b5       0x2a d_classic_obj_scl.o
d6642 1
a6642 1
                0x000081df       0x2b d_classic_haikeiA_LZ.o
d6644 1
a6644 1
                0x0000820a       0x2b d_classic_haikeiB_LZ.o
d6646 1
a6646 1
                0x00008235       0x2b d_classic_haikeiC_LZ.o
d6648 1
a6648 1
                0x00008260       0x2b d_classic_haikeiD_LZ.o
d6650 1
a6650 1
                0x0000828b       0x2e d_classic_BGanime_sch.o
d6652 1
a6652 1
                0x000082b9       0x27 d_Bros_obj_scl.o
d6654 1
a6654 1
                0x000082e0      0x25e d_playerA_sob.o
d6656 1
a6656 1
                0x0000853e      0x273 d_playerB_sob.o
d6658 1
a6658 1
                0x000087b1       0x2c d_title_bros_bg_sch.o
d6660 1
a6660 1
                0x000087dd       0x2c d_title_bros_bg_scl.o
d6662 1
a6662 1
                0x00008809       0x29 d_title_kabe_ssc.o
d6664 1
a6664 1
                0x00008832       0x29 d_title_waku_ssc.o
d6666 1
a6666 1
                0x0000885b       0x2a d_title_maruc_ssc.o
d6668 1
a6668 1
                0x00008885       0x2c d_title_bros_obj_Huff.o
d6670 1
a6670 1
                0x000088b1       0x2d d_title_bros_obj_scl.o
d6672 1
a6672 1
                0x000088de       0x2c d_classic_bonus2_1_Huff.o
d6674 1
a6674 1
                0x0000890a       0x2c d_classic_bonus2_2_Huff.o
d6676 1
a6676 1
                0x00008936       0x2c d_classic_bonus2_3_Huff.o
d6678 1
a6678 1
                0x00008962       0x2c d_classic_bonus2_4_Huff.o
d6680 1
a6680 1
                0x0000898e       0x29 d_demo_maruc_ssc.o
d6682 1
a6682 1
                0x000089b7       0x4b ud_course_data.o
d6684 1
a6684 1
                0x00008a02       0xef C:/agb/lib//libagbbackup.a(AgbEeprom.o)
d6686 1
a6686 1
                0x00008af1       0x1f C:\PROGRA~1\Cygnus\thumbelf-000512\H-i686-cygwin32\bin/../lib/gcc-lib/thumb-elf/2.9-arm-000512/../../../../thumb-elf/lib/libg.a(assert.o)
d6688 1
a6688 1
                0x00008b10       0x1f C:\PROGRA~1\Cygnus\thumbelf-000512\H-i686-cygwin32\bin/../lib/gcc-lib/thumb-elf/2.9-arm-000512/../../../../thumb-elf/lib/libg.a(fiprintf.o)
d6690 1
a6690 1
                0x00008b2f       0x22 C:\PROGRA~1\Cygnus\thumbelf-000512\H-i686-cygwin32\bin/../lib/gcc-lib/thumb-elf/2.9-arm-000512/../../../../thumb-elf/lib/libg.a(impure.o)
d6692 1
a6692 1
                0x00008b51       0x31 C:\PROGRA~1\Cygnus\thumbelf-000512\H-i686-cygwin32\bin/../lib/gcc-lib/thumb-elf/2.9-arm-000512/../../../../thumb-elf/lib/libg.a(libcfunc.o)
d6694 1
a6694 1
                0x00008b82       0x1d C:\PROGRA~1\Cygnus\thumbelf-000512\H-i686-cygwin32\bin/../lib/gcc-lib/thumb-elf/2.9-arm-000512/../../../../thumb-elf/lib/libg.a(memcpy.o)
d6696 1
a6696 1
                0x00008b9f       0x1d C:\PROGRA~1\Cygnus\thumbelf-000512\H-i686-cygwin32\bin/../lib/gcc-lib/thumb-elf/2.9-arm-000512/../../../../thumb-elf/lib/libg.a(memset.o)
d6698 1
a6698 1
                0x00008bbc       0x31 C:\PROGRA~1\Cygnus\thumbelf-000512\H-i686-cygwin32\bin/../lib/gcc-lib/thumb-elf/2.9-arm-000512/../../../../thumb-elf/lib/libg.a(vfiprintf.o)
d6700 1
a6700 1
                0x00008bed       0x20 C:\PROGRA~1\Cygnus\thumbelf-000512\H-i686-cygwin32\bin/../lib/gcc-lib/thumb-elf/2.9-arm-000512/../../../../thumb-elf/lib/libg.a(wsetup.o)
d6702 1
a6702 1
                0x00008c0d       0x1d C:\PROGRA~1\Cygnus\thumbelf-000512\H-i686-cygwin32\bin/../lib/gcc-lib/thumb-elf/2.9-arm-000512/../../../../thumb-elf/lib/libg.a(fflush.o)
d6704 1
a6704 1
                0x00008c2a       0x55 C:\PROGRA~1\Cygnus\thumbelf-000512\H-i686-cygwin32\bin/../lib/gcc-lib/thumb-elf/2.9-arm-000512/../../../../thumb-elf/lib/libg.a(findfp.o)
d6706 1
a6706 1
                0x00008c7f       0x31 C:\PROGRA~1\Cygnus\thumbelf-000512\H-i686-cygwin32\bin/../lib/gcc-lib/thumb-elf/2.9-arm-000512/../../../../thumb-elf/lib/libg.a(freer.o)
d6708 1
a6708 1
                0x00008cb0       0x21 C:\PROGRA~1\Cygnus\thumbelf-000512\H-i686-cygwin32\bin/../lib/gcc-lib/thumb-elf/2.9-arm-000512/../../../../thumb-elf/lib/libg.a(fvwrite.o)
d6710 1
a6710 1
                0x00008cd1       0x1d C:\PROGRA~1\Cygnus\thumbelf-000512\H-i686-cygwin32\bin/../lib/gcc-lib/thumb-elf/2.9-arm-000512/../../../../thumb-elf/lib/libg.a(fwalk.o)
d6712 1
a6712 1
                0x00008cee       0x63 C:\PROGRA~1\Cygnus\thumbelf-000512\H-i686-cygwin32\bin/../lib/gcc-lib/thumb-elf/2.9-arm-000512/../../../../thumb-elf/lib/libg.a(locale.o)
d6714 1
a6714 1
                0x00008d51       0x21 C:\PROGRA~1\Cygnus\thumbelf-000512\H-i686-cygwin32\bin/../lib/gcc-lib/thumb-elf/2.9-arm-000512/../../../../thumb-elf/lib/libg.a(makebuf.o)
d6716 1
a6716 1
                0x00008d72       0xce C:\PROGRA~1\Cygnus\thumbelf-000512\H-i686-cygwin32\bin/../lib/gcc-lib/thumb-elf/2.9-arm-000512/../../../../thumb-elf/lib/libg.a(mallocr.o)
d6718 1
a6718 1
                0x00008e40       0x20 C:\PROGRA~1\Cygnus\thumbelf-000512\H-i686-cygwin32\bin/../lib/gcc-lib/thumb-elf/2.9-arm-000512/../../../../thumb-elf/lib/libg.a(mbtowc_r.o)
d6720 1
a6720 1
                0x00008e60       0x1d C:\PROGRA~1\Cygnus\thumbelf-000512\H-i686-cygwin32\bin/../lib/gcc-lib/thumb-elf/2.9-arm-000512/../../../../thumb-elf/lib/libg.a(memchr.o)
d6722 1
a6722 1
                0x00008e7d       0x1e C:\PROGRA~1\Cygnus\thumbelf-000512\H-i686-cygwin32\bin/../lib/gcc-lib/thumb-elf/2.9-arm-000512/../../../../thumb-elf/lib/libg.a(memmove.o)
d6724 1
a6724 1
                0x00008e9b       0x38 C:\PROGRA~1\Cygnus\thumbelf-000512\H-i686-cygwin32\bin/../lib/gcc-lib/thumb-elf/2.9-arm-000512/../../../../thumb-elf/lib/libg.a(mlock.o)
d6726 1
a6726 1
                0x00008ed3       0x28 C:\PROGRA~1\Cygnus\thumbelf-000512\H-i686-cygwin32\bin/../lib/gcc-lib/thumb-elf/2.9-arm-000512/../../../../thumb-elf/lib/libg.a(sbrkr.o)
d6728 1
a6728 1
                0x00008efb       0x44 C:\PROGRA~1\Cygnus\thumbelf-000512\H-i686-cygwin32\bin/../lib/gcc-lib/thumb-elf/2.9-arm-000512/../../../../thumb-elf/lib/libg.a(stdio.o)
d6730 1
a6730 1
                0x00008f3f       0x1d C:\PROGRA~1\Cygnus\thumbelf-000512\H-i686-cygwin32\bin/../lib/gcc-lib/thumb-elf/2.9-arm-000512/../../../../thumb-elf/lib/libg.a(strcmp.o)
d6732 1
a6732 1
                0x00008f5c       0x1d C:\PROGRA~1\Cygnus\thumbelf-000512\H-i686-cygwin32\bin/../lib/gcc-lib/thumb-elf/2.9-arm-000512/../../../../thumb-elf/lib/libg.a(strlen.o)
d6734 1
a6734 1
                0x00008f79      0x113 C:\PROGRA~1\Cygnus\thumbelf-000512\H-i686-cygwin32\bin/../lib/gcc-lib/thumb-elf/2.9-arm-000512/../../../../thumb-elf/lib/libg.a(syscalls.o)
d6736 1
a6736 1
                0x0000908c       0x1f C:\PROGRA~1\Cygnus\thumbelf-000512\H-i686-cygwin32\bin/../lib/gcc-lib/thumb-elf/2.9-arm-000512/../../../../thumb-elf/lib/libg.a(writer.o)
d6738 1
a6738 1
                0x000090ab       0x1f C:\PROGRA~1\Cygnus\thumbelf-000512\H-i686-cygwin32\bin/../lib/gcc-lib/thumb-elf/2.9-arm-000512/../../../../thumb-elf/lib/libg.a(closer.o)
d6740 1
a6740 1
                0x000090ca       0x1e C:\PROGRA~1\Cygnus\thumbelf-000512\H-i686-cygwin32\bin/../lib/gcc-lib/thumb-elf/2.9-arm-000512/../../../../thumb-elf/lib/libg.a(errno.o)
d6742 1
a6742 1
                0x000090e8       0x1f C:\PROGRA~1\Cygnus\thumbelf-000512\H-i686-cygwin32\bin/../lib/gcc-lib/thumb-elf/2.9-arm-000512/../../../../thumb-elf/lib/libg.a(fstatr.o)
d6744 1
a6744 1
                0x00009107       0x1f C:\PROGRA~1\Cygnus\thumbelf-000512\H-i686-cygwin32\bin/../lib/gcc-lib/thumb-elf/2.9-arm-000512/../../../../thumb-elf/lib/libg.a(lseekr.o)
d6746 1
a6746 1
                0x00009126       0x1e C:\PROGRA~1\Cygnus\thumbelf-000512\H-i686-cygwin32\bin/../lib/gcc-lib/thumb-elf/2.9-arm-000512/../../../../thumb-elf/lib/libg.a(readr.o)
d6748 1
a6748 1
.debug_info     0x00000000   0x68b6ba
d6750 218
a6967 218
 .debug_info    0x00000000     0x8e77 ba_effect.o
 .debug_info    0x00008e77     0xca0e ba_player.o
 .debug_info    0x00015885     0x8e4f ba_reach.o
 .debug_info    0x0001e6d4     0x8ff3 cm_game.o
 .debug_info    0x000276c7     0x9304 m_battle_rom_play.o
 .debug_info    0x000309cb     0x9c57 m_classic_play.o
 .debug_info    0x0003a622     0x9448 m_erase.o
 .debug_info    0x00043a6a     0x95da m_game.o
 .debug_info    0x0004d044     0xae88 m_game_sub.o
 .debug_info    0x00057ecc     0x979b m_game_title.o
 .debug_info    0x00061667     0x9b82 m_main.o
 .debug_info    0x0006b1e9     0xc4de m_opening.o
 .debug_info    0x000776c7     0x8e1f m_score.o
 .debug_info    0x000804e6     0xaa54 m_title.o
 .debug_info    0x0008af3a     0xbbb0 m_title_sub.o
 .debug_info    0x00096aea     0xa4e4 m_vs.o
 .debug_info    0x000a0fce     0x8edd m_VsGame.o
 .debug_info    0x000a9eab     0x8fdb m_VsMain.o
 .debug_info    0x000b2e86     0xa435 ua_char_set.o
 .debug_info    0x000bd2bb     0xaf49 ua_course.o
 .debug_info    0x000c8204     0xbda7 ua_ending.o
 .debug_info    0x000d3fab     0xb34b ua_game.o
 .debug_info    0x000df2f6     0xa8bb ua_game_over.o
 .debug_info    0x000e9bb1     0xa818 ua_pause.o
 .debug_info    0x000f43c9     0xadb4 ua_score.o
 .debug_info    0x000ff17d     0xa8ad ua_warp.o
 .debug_info    0x00109a2a     0xb37b um_bonus.o
 .debug_info    0x00114da5     0xa6bc um_courseclear.o
 .debug_info    0x0011f461     0xaf9f um_select.o
 .debug_info    0x0012a400     0xaf38 um_select_sub.o
 .debug_info    0x00135338     0xb721 um_yossy.o
 .debug_info    0x00140a59     0xba71 up_common.o
 .debug_info    0x0014c4ca     0xb8c0 up_player.o
 .debug_info    0x00157d8a     0xb712 m_boot.o
 .debug_info    0x0016349c     0x8ecc m_sub.o
 .debug_info    0x0016c368     0x9066 m_MultiSio.o
 .debug_info    0x001753ce     0x3118 MultiBoot.o
 .debug_info    0x001784e6     0x8eee m_bgcheck.o
 .debug_info    0x001813d4     0x8d86 m_scroll.o
 .debug_info    0x0018a15a     0x90ac m_classic_sub.o
 .debug_info    0x00193206     0x94d2 ua_save.o
 .debug_info    0x0019c6d8     0xb0de um_result.o
 .debug_info    0x001a77b6     0x2ec2 um_math.o
 .debug_info    0x001aa678     0xa935 um_oamset.o
 .debug_info    0x001b4fad     0xa486 um_mosaic.o
 .debug_info    0x001bf433     0x96cd um_coursecleardt.o
 .debug_info    0x001c8b00     0x8f20 cm_game_title.o
 .debug_info    0x001d1a20     0xad26 ua_act.o
 .debug_info    0x001dc746     0xbdee ua_common.o
 .debug_info    0x001e8534     0xb6e2 ua_commondt.o
 .debug_info    0x001f3c16     0x8ef7 ua_bg.o
 .debug_info    0x001fcb0d     0x8db3 ua_unit_change.o
 .debug_info    0x002058c0     0xa5e9 ua_color.o
 .debug_info    0x0020fea9     0x8fc9 ua_bg3_set.o
 .debug_info    0x00218e72     0xae32 ua_sort.o
 .debug_info    0x00223ca4     0xa650 ua_eggmeter.o
 .debug_info    0x0022e2f4     0x9b1a ba_act.o
 .debug_info    0x00237e0e     0x94b0 ba_bgYuKa.o
 .debug_info    0x002412be     0x9b55 ba_bucket.o
 .debug_info    0x0024ae13     0x958e ba_Coin.o
 .debug_info    0x002543a1     0x9758 ba_common.o
 .debug_info    0x0025daf9     0x931a ba_egg.o
 .debug_info    0x00266e13     0x96a8 ba_enFly.o
 .debug_info    0x002704bb     0x9723 ba_enKani.o
 .debug_info    0x00279bde     0x9ed9 ba_enmy.o
 .debug_info    0x00283ab7     0x8f9a ba_enNoko.o
 .debug_info    0x0028ca51     0x9668 ba_enToge.o
 .debug_info    0x002960b9     0x9532 ba_fire.o
 .debug_info    0x0029f5eb     0x8f1e ba_fishBone.o
 .debug_info    0x002a8509     0x8f5c ba_heart.o
 .debug_info    0x002b1465     0x9816 ba_ice.o
 .debug_info    0x002bac7b     0x958b ba_koura.o
 .debug_info    0x002c4206     0x9c3b ba_kuppa.o
 .debug_info    0x002cde41     0x8f4a ba_mutekiStar.o
 .debug_info    0x002d6d8b     0x923e ba_PipeWave.o
 .debug_info    0x002dffc9     0x8ebd ba_point.o
 .debug_info    0x002e8e86     0x92b4 ba_pow.o
 .debug_info    0x002f213a     0x8df1 ba_smoke.o
 .debug_info    0x002faf2b     0x90e6 ba_spark.o
 .debug_info    0x00304011     0x9072 ba_splash.o
 .debug_info    0x0030d083     0x8f44 ba_star.o
 .debug_info    0x00315fc7     0x9428 ba_icicle.o
 .debug_info    0x0031f3ef     0x8f6f ba_powsmk.o
 .debug_info    0x0032835e     0xa97c ua_fairy.o
 .debug_info    0x00332cda     0xa8d8 ua_walk.o
 .debug_info    0x0033d5b2     0xa4fd ua_tori.o
 .debug_info    0x00347aaf     0xa500 ua_huck0.o
 .debug_info    0x00351faf     0xa631 ua_shoot.o
 .debug_info    0x0035c5e0     0xa72c ua_force.o
 .debug_info    0x00366d0c     0xa705 ua_burn0.o
 .debug_info    0x00371411     0xa6a3 ua_bird.o
 .debug_info    0x0037bab4     0xa561 ua_ninja.o
 .debug_info    0x00386015     0xa586 ua_ninj1.o
 .debug_info    0x0039059b     0xa576 ua_flyng.o
 .debug_info    0x0039ab11     0xa93e ua_pigmo.o
 .debug_info    0x003a544f     0xa6ec ua_fish0.o
 .debug_info    0x003afb3b     0xa5e4 ua_musi0.o
 .debug_info    0x003ba11f     0xa56a ua_tubo.o
 .debug_info    0x003c4689     0xa805 ua_mask.o
 .debug_info    0x003cee8e     0xa679 ua_hebi0.o
 .debug_info    0x003d9507     0xa56d ua_hebi1.o
 .debug_info    0x003e3a74     0xa751 ua_sbten.o
 .debug_info    0x003ee1c5     0xa928 ua_boss0.o
 .debug_info    0x003f8aed     0xa809 ua_mikey.o
 .debug_info    0x004032f6     0xacc5 ua_ball1.o
 .debug_info    0x0040dfbb     0xa7c7 ua_snake.o
 .debug_info    0x00418782     0xa808 ua_fire1.o
 .debug_info    0x00422f8a     0xa87a ua_bkani.o
 .debug_info    0x0042d804     0xa556 ua_flwer.o
 .debug_info    0x00437d5a     0xa792 ua_canon.o
 .debug_info    0x004424ec     0xa829 ua_fnsui.o
 .debug_info    0x0044cd15     0xa556 ua_icemn.o
 .debug_info    0x0045726b     0xaacb ua_fireb.o
 .debug_info    0x00461d36     0xa895 ua_mamuu.o
 .debug_info    0x0046c5cb     0xa7b1 ua_bgkao.o
 .debug_info    0x00476d7c     0xa6a8 ua_whats.o
 .debug_info    0x00481424     0xa4e8 ua_wood.o
 .debug_info    0x0048b90c     0xa7a0 ua_exit.o
 .debug_info    0x004960ac     0xab04 ua_item.o
 .debug_info    0x004a0bb0     0xa6c0 ua_rocket.o
 .debug_info    0x004ab270     0xa5ab ua_heart.o
 .debug_info    0x004b581b     0xad79 ua_door.o
 .debug_info    0x004c0594     0xa6b5 ua_flag.o
 .debug_info    0x004cac49     0xa551 ua_lmp0.o
 .debug_info    0x004d519a     0xa880 ua_star.o
 .debug_info    0x004dfa1a     0xa5ba ua_spae.o
 .debug_info    0x004e9fd4     0xa9e9 ua_pwbk.o
 .debug_info    0x004f49bd     0xaf91 ua_bigboss.o
 .debug_info    0x004ff94e     0xa694 ua_gondola.o
 .debug_info    0x00509fe2     0xa752 ua_gonboss.o
 .debug_info    0x00514734     0xa80b ua_gondata.o
 .debug_info    0x0051ef3f     0xa64f ua_cherry.o
 .debug_info    0x0052958e     0xab94 ua_gohoubi.o
 .debug_info    0x00534122     0xa57b ua_toge.o
 .debug_info    0x0053e69d     0xaaba ua_egg.o
 .debug_info    0x00549157     0xa5d0 ua_mask1.o
 .debug_info    0x00553727     0xac5d ua_capsule.o
 .debug_info    0x0055e384     0xa618 ua_lift.o
 .debug_info    0x0056899c     0xa788 ua_bubble.o
 .debug_info    0x00573124     0xa849 ua_sboss.o
 .debug_info    0x0057d96d     0xa630 ua_itemball.o
 .debug_info    0x00587f9d     0xa542 ua_mosaic.o
 .debug_info    0x005924df     0xa9cf ua_coin.o
 .debug_info    0x0059ceae     0x343f ua_endat0a.o
 .debug_info    0x005a02ed     0x3972 ua_endat0b.o
 .debug_info    0x005a3c5f     0xb6ed ua_endt.o
 .debug_info    0x005af34c     0xa8f5 ua_effect.o
 .debug_info    0x005b9c41     0x2efb ua_effectdt.o
 .debug_info    0x005bcb3c     0xa988 ua_shock.o
 .debug_info    0x005c74c4     0xab09 ua_stareffect.o
 .debug_info    0x005d1fcd     0xa5c3 ua_bosseffect.o
 .debug_info    0x005dc590     0xadfa ua_cros.o
 .debug_info    0x005e738a     0xa297 up_commondt.o
 .debug_info    0x005f1621     0xac62 up_exst.o
 .debug_info    0x005fc283     0x9b84 um_yscr.o
 .debug_info    0x00605e07     0x9a57 um_tscr.o
 .debug_info    0x0060f85e      0xbb2 m_mini_malloc.o
 .debug_info    0x00610410     0x90d8 course_data.o
 .debug_info    0x006194e8     0x91da course_classic.o
 .debug_info    0x006226c2     0x2dc0 d_bros_BG_scl.o
 .debug_info    0x00625482     0x2dd0 d_Bros_obj_winner_scl.o
 .debug_info    0x00628252     0x271e d_classic_bg_sch_Huff.o
 .debug_info    0x0062a970     0x2dc6 d_classic_bg_scl.o
 .debug_info    0x0062d736     0x2720 d_classic_obj_sch_Huff.o
 .debug_info    0x0062fe56     0x2dc8 d_classic_obj_scl.o
 .debug_info    0x00632c1e     0x2dc3 d_classic_haikeiA_LZ.o
 .debug_info    0x006359e1     0x2dc3 d_classic_haikeiB_LZ.o
 .debug_info    0x006387a4     0x2dc3 d_classic_haikeiC_LZ.o
 .debug_info    0x0063b567     0x2dc3 d_classic_haikeiD_LZ.o
 .debug_info    0x0063e32a     0x2dd1 d_classic_BGanime_sch.o
 .debug_info    0x006410fb     0x2dc2 d_Bros_obj_scl.o
 .debug_info    0x00643ebd     0x324f d_playerA_sob.o
 .debug_info    0x0064710c     0x327b d_playerB_sob.o
 .debug_info    0x0064a387     0x2dcd d_title_bros_bg_sch.o
 .debug_info    0x0064d154     0x2dcc d_title_bros_bg_scl.o
 .debug_info    0x0064ff20     0x2dc7 d_title_kabe_ssc.o
 .debug_info    0x00652ce7     0x2dc7 d_title_waku_ssc.o
 .debug_info    0x00655aae     0x2dc9 d_title_maruc_ssc.o
 .debug_info    0x00658877     0x271e d_title_bros_obj_Huff.o
 .debug_info    0x0065af95     0x2dce d_title_bros_obj_scl.o
 .debug_info    0x0065dd63     0x2720 d_classic_bonus2_1_Huff.o
 .debug_info    0x00660483     0x2720 d_classic_bonus2_2_Huff.o
 .debug_info    0x00662ba3     0x2720 d_classic_bonus2_3_Huff.o
 .debug_info    0x006652c3     0x2720 d_classic_bonus2_4_Huff.o
 .debug_info    0x006679e3     0x2dc7 d_demo_maruc_ssc.o
 .debug_info    0x0066a7aa     0xa67f ud_course_data.o
 .debug_info    0x00674e29     0x3299 C:/agb/lib//libagbbackup.a(AgbEeprom.o)
 .debug_info    0x006780c2      0x9b0 C:\PROGRA~1\Cygnus\thumbelf-000512\H-i686-cygwin32\bin/../lib/gcc-lib/thumb-elf/2.9-arm-000512/../../../../thumb-elf/lib/libg.a(assert.o)
 .debug_info    0x00678a72      0x94a C:\PROGRA~1\Cygnus\thumbelf-000512\H-i686-cygwin32\bin/../lib/gcc-lib/thumb-elf/2.9-arm-000512/../../../../thumb-elf/lib/libg.a(fiprintf.o)
 .debug_info    0x006793bc      0x90d C:\PROGRA~1\Cygnus\thumbelf-000512\H-i686-cygwin32\bin/../lib/gcc-lib/thumb-elf/2.9-arm-000512/../../../../thumb-elf/lib/libg.a(impure.o)
 .debug_info    0x00679cc9      0x1ab C:\PROGRA~1\Cygnus\thumbelf-000512\H-i686-cygwin32\bin/../lib/gcc-lib/thumb-elf/2.9-arm-000512/../../../../thumb-elf/lib/libg.a(libcfunc.o)
 .debug_info    0x00679e74      0x24b C:\PROGRA~1\Cygnus\thumbelf-000512\H-i686-cygwin32\bin/../lib/gcc-lib/thumb-elf/2.9-arm-000512/../../../../thumb-elf/lib/libg.a(memcpy.o)
 .debug_info    0x0067a0bf      0x20d C:\PROGRA~1\Cygnus\thumbelf-000512\H-i686-cygwin32\bin/../lib/gcc-lib/thumb-elf/2.9-arm-000512/../../../../thumb-elf/lib/libg.a(memset.o)
 .debug_info    0x0067a2cc     0x1330 C:\PROGRA~1\Cygnus\thumbelf-000512\H-i686-cygwin32\bin/../lib/gcc-lib/thumb-elf/2.9-arm-000512/../../../../thumb-elf/lib/libg.a(vfiprintf.o)
 .debug_info    0x0067b5fc      0xb74 C:\PROGRA~1\Cygnus\thumbelf-000512\H-i686-cygwin32\bin/../lib/gcc-lib/thumb-elf/2.9-arm-000512/../../../../thumb-elf/lib/libg.a(wsetup.o)
 .debug_info    0x0067c170      0xb2b C:\PROGRA~1\Cygnus\thumbelf-000512\H-i686-cygwin32\bin/../lib/gcc-lib/thumb-elf/2.9-arm-000512/../../../../thumb-elf/lib/libg.a(fflush.o)
 .debug_info    0x0067cc9b      0xca7 C:\PROGRA~1\Cygnus\thumbelf-000512\H-i686-cygwin32\bin/../lib/gcc-lib/thumb-elf/2.9-arm-000512/../../../../thumb-elf/lib/libg.a(findfp.o)
 .debug_info    0x0067d942      0xe2d C:\PROGRA~1\Cygnus\thumbelf-000512\H-i686-cygwin32\bin/../lib/gcc-lib/thumb-elf/2.9-arm-000512/../../../../thumb-elf/lib/libg.a(freer.o)
 .debug_info    0x0067e76f      0xc18 C:\PROGRA~1\Cygnus\thumbelf-000512\H-i686-cygwin32\bin/../lib/gcc-lib/thumb-elf/2.9-arm-000512/../../../../thumb-elf/lib/libg.a(fvwrite.o)
 .debug_info    0x0067f387      0xbae C:\PROGRA~1\Cygnus\thumbelf-000512\H-i686-cygwin32\bin/../lib/gcc-lib/thumb-elf/2.9-arm-000512/../../../../thumb-elf/lib/libg.a(fwalk.o)
 .debug_info    0x0067ff35      0xc33 C:\PROGRA~1\Cygnus\thumbelf-000512\H-i686-cygwin32\bin/../lib/gcc-lib/thumb-elf/2.9-arm-000512/../../../../thumb-elf/lib/libg.a(locale.o)
 .debug_info    0x00680b68      0xd3f C:\PROGRA~1\Cygnus\thumbelf-000512\H-i686-cygwin32\bin/../lib/gcc-lib/thumb-elf/2.9-arm-000512/../../../../thumb-elf/lib/libg.a(makebuf.o)
 .debug_info    0x006818a7      0xf56 C:\PROGRA~1\Cygnus\thumbelf-000512\H-i686-cygwin32\bin/../lib/gcc-lib/thumb-elf/2.9-arm-000512/../../../../thumb-elf/lib/libg.a(mallocr.o)
 .debug_info    0x006827fd      0xb86 C:\PROGRA~1\Cygnus\thumbelf-000512\H-i686-cygwin32\bin/../lib/gcc-lib/thumb-elf/2.9-arm-000512/../../../../thumb-elf/lib/libg.a(mbtowc_r.o)
 .debug_info    0x00683383      0x209 C:\PROGRA~1\Cygnus\thumbelf-000512\H-i686-cygwin32\bin/../lib/gcc-lib/thumb-elf/2.9-arm-000512/../../../../thumb-elf/lib/libg.a(memchr.o)
 .debug_info    0x0068358c      0x257 C:\PROGRA~1\Cygnus\thumbelf-000512\H-i686-cygwin32\bin/../lib/gcc-lib/thumb-elf/2.9-arm-000512/../../../../thumb-elf/lib/libg.a(memmove.o)
 .debug_info    0x006837e3      0x9d1 C:\PROGRA~1\Cygnus\thumbelf-000512\H-i686-cygwin32\bin/../lib/gcc-lib/thumb-elf/2.9-arm-000512/../../../../thumb-elf/lib/libg.a(mlock.o)
 .debug_info    0x006841b4      0xaea C:\PROGRA~1\Cygnus\thumbelf-000512\H-i686-cygwin32\bin/../lib/gcc-lib/thumb-elf/2.9-arm-000512/../../../../thumb-elf/lib/libg.a(sbrkr.o)
 .debug_info    0x00684c9e      0xe8f C:\PROGRA~1\Cygnus\thumbelf-000512\H-i686-cygwin32\bin/../lib/gcc-lib/thumb-elf/2.9-arm-000512/../../../../thumb-elf/lib/libg.a(stdio.o)
 .debug_info    0x00685b2d      0x1a1 C:\PROGRA~1\Cygnus\thumbelf-000512\H-i686-cygwin32\bin/../lib/gcc-lib/thumb-elf/2.9-arm-000512/../../../../thumb-elf/lib/libg.a(strcmp.o)
 .debug_info    0x00685cce      0x1ad C:\PROGRA~1\Cygnus\thumbelf-000512\H-i686-cygwin32\bin/../lib/gcc-lib/thumb-elf/2.9-arm-000512/../../../../thumb-elf/lib/libg.a(strlen.o)
 .debug_info    0x00685e7b     0x1833 C:\PROGRA~1\Cygnus\thumbelf-000512\H-i686-cygwin32\bin/../lib/gcc-lib/thumb-elf/2.9-arm-000512/../../../../thumb-elf/lib/libg.a(syscalls.o)
 .debug_info    0x006876ae      0xb12 C:\PROGRA~1\Cygnus\thumbelf-000512\H-i686-cygwin32\bin/../lib/gcc-lib/thumb-elf/2.9-arm-000512/../../../../thumb-elf/lib/libg.a(writer.o)
 .debug_info    0x006881c0      0xadb C:\PROGRA~1\Cygnus\thumbelf-000512\H-i686-cygwin32\bin/../lib/gcc-lib/thumb-elf/2.9-arm-000512/../../../../thumb-elf/lib/libg.a(closer.o)
 .debug_info    0x00688c9b      0x91b C:\PROGRA~1\Cygnus\thumbelf-000512\H-i686-cygwin32\bin/../lib/gcc-lib/thumb-elf/2.9-arm-000512/../../../../thumb-elf/lib/libg.a(errno.o)
 .debug_info    0x006895b6      0xaf0 C:\PROGRA~1\Cygnus\thumbelf-000512\H-i686-cygwin32\bin/../lib/gcc-lib/thumb-elf/2.9-arm-000512/../../../../thumb-elf/lib/libg.a(fstatr.o)
 .debug_info    0x0068a0a6      0xb0b C:\PROGRA~1\Cygnus\thumbelf-000512\H-i686-cygwin32\bin/../lib/gcc-lib/thumb-elf/2.9-arm-000512/../../../../thumb-elf/lib/libg.a(lseekr.o)
 .debug_info    0x0068abb1      0xb09 C:\PROGRA~1\Cygnus\thumbelf-000512\H-i686-cygwin32\bin/../lib/gcc-lib/thumb-elf/2.9-arm-000512/../../../../thumb-elf/lib/libg.a(readr.o)
d6969 1
a6969 1
.debug_abbrev   0x00000000    0x16d5b
d6984 205
a7188 205
 .debug_abbrev  0x00001ab2      0x21a m_title.o
 .debug_abbrev  0x00001ccc      0x216 m_title_sub.o
 .debug_abbrev  0x00001ee2      0x250 m_vs.o
 .debug_abbrev  0x00002132      0x1d8 m_VsGame.o
 .debug_abbrev  0x0000230a      0x201 m_VsMain.o
 .debug_abbrev  0x0000250b      0x1bb ua_char_set.o
 .debug_abbrev  0x000026c6      0x23e ua_course.o
 .debug_abbrev  0x00002904      0x247 ua_ending.o
 .debug_abbrev  0x00002b4b      0x271 ua_game.o
 .debug_abbrev  0x00002dbc      0x20b ua_game_over.o
 .debug_abbrev  0x00002fc7      0x1e1 ua_pause.o
 .debug_abbrev  0x000031a8      0x220 ua_score.o
 .debug_abbrev  0x000033c8      0x234 ua_warp.o
 .debug_abbrev  0x000035fc      0x23e um_bonus.o
 .debug_abbrev  0x0000383a      0x200 um_courseclear.o
 .debug_abbrev  0x00003a3a      0x218 um_select.o
 .debug_abbrev  0x00003c52      0x236 um_select_sub.o
 .debug_abbrev  0x00003e88      0x23e um_yossy.o
 .debug_abbrev  0x000040c6      0x29f up_common.o
 .debug_abbrev  0x00004365      0x2af up_player.o
 .debug_abbrev  0x00004614      0x1c2 m_boot.o
 .debug_abbrev  0x000047d6      0x1bf m_sub.o
 .debug_abbrev  0x00004995      0x213 m_MultiSio.o
 .debug_abbrev  0x00004ba8      0x1d1 MultiBoot.o
 .debug_abbrev  0x00004d79      0x1b8 m_bgcheck.o
 .debug_abbrev  0x00004f31      0x17f m_scroll.o
 .debug_abbrev  0x000050b0      0x1d9 m_classic_sub.o
 .debug_abbrev  0x00005289      0x229 ua_save.o
 .debug_abbrev  0x000054b2      0x23e um_result.o
 .debug_abbrev  0x000056f0      0x13e um_math.o
 .debug_abbrev  0x0000582e      0x1f0 um_oamset.o
 .debug_abbrev  0x00005a1e      0x19d um_mosaic.o
 .debug_abbrev  0x00005bbb      0x164 um_coursecleardt.o
 .debug_abbrev  0x00005d1f      0x1e9 cm_game_title.o
 .debug_abbrev  0x00005f08      0x277 ua_act.o
 .debug_abbrev  0x0000617f      0x27e ua_common.o
 .debug_abbrev  0x000063fd      0x193 ua_commondt.o
 .debug_abbrev  0x00006590      0x1b6 ua_bg.o
 .debug_abbrev  0x00006746      0x190 ua_unit_change.o
 .debug_abbrev  0x000068d6      0x21c ua_color.o
 .debug_abbrev  0x00006af2      0x1d0 ua_bg3_set.o
 .debug_abbrev  0x00006cc2      0x21a ua_sort.o
 .debug_abbrev  0x00006edc      0x1e9 ua_eggmeter.o
 .debug_abbrev  0x000070c5      0x1b7 ba_act.o
 .debug_abbrev  0x0000727c      0x1f4 ba_bgYuKa.o
 .debug_abbrev  0x00007470      0x216 ba_bucket.o
 .debug_abbrev  0x00007686      0x216 ba_Coin.o
 .debug_abbrev  0x0000789c      0x272 ba_common.o
 .debug_abbrev  0x00007b0e      0x21a ba_egg.o
 .debug_abbrev  0x00007d28      0x23e ba_enFly.o
 .debug_abbrev  0x00007f66      0x227 ba_enKani.o
 .debug_abbrev  0x0000818d      0x21e ba_enmy.o
 .debug_abbrev  0x000083ab      0x17f ba_enNoko.o
 .debug_abbrev  0x0000852a      0x227 ba_enToge.o
 .debug_abbrev  0x00008751      0x240 ba_fire.o
 .debug_abbrev  0x00008991      0x1cd ba_fishBone.o
 .debug_abbrev  0x00008b5e      0x19f ba_heart.o
 .debug_abbrev  0x00008cfd      0x23e ba_ice.o
 .debug_abbrev  0x00008f3b      0x240 ba_koura.o
 .debug_abbrev  0x0000917b      0x227 ba_kuppa.o
 .debug_abbrev  0x000093a2      0x1b7 ba_mutekiStar.o
 .debug_abbrev  0x00009559      0x217 ba_PipeWave.o
 .debug_abbrev  0x00009770      0x1c5 ba_point.o
 .debug_abbrev  0x00009935      0x231 ba_pow.o
 .debug_abbrev  0x00009b66      0x1b7 ba_smoke.o
 .debug_abbrev  0x00009d1d      0x1cc ba_spark.o
 .debug_abbrev  0x00009ee9      0x1c5 ba_splash.o
 .debug_abbrev  0x0000a0ae      0x19f ba_star.o
 .debug_abbrev  0x0000a24d      0x221 ba_icicle.o
 .debug_abbrev  0x0000a46e      0x1c5 ba_powsmk.o
 .debug_abbrev  0x0000a633      0x223 ua_fairy.o
 .debug_abbrev  0x0000a856      0x1f6 ua_walk.o
 .debug_abbrev  0x0000aa4c      0x1bf ua_tori.o
 .debug_abbrev  0x0000ac0b      0x1bf ua_huck0.o
 .debug_abbrev  0x0000adca      0x1d4 ua_shoot.o
 .debug_abbrev  0x0000af9e      0x1bf ua_force.o
 .debug_abbrev  0x0000b15d      0x1bf ua_burn0.o
 .debug_abbrev  0x0000b31c      0x1bf ua_bird.o
 .debug_abbrev  0x0000b4db      0x1d6 ua_ninja.o
 .debug_abbrev  0x0000b6b1      0x1bf ua_ninj1.o
 .debug_abbrev  0x0000b870      0x1bf ua_flyng.o
 .debug_abbrev  0x0000ba2f      0x1fa ua_pigmo.o
 .debug_abbrev  0x0000bc29      0x1bf ua_fish0.o
 .debug_abbrev  0x0000bde8      0x1e5 ua_musi0.o
 .debug_abbrev  0x0000bfcd      0x1ae ua_tubo.o
 .debug_abbrev  0x0000c17b      0x1d4 ua_mask.o
 .debug_abbrev  0x0000c34f      0x1bf ua_hebi0.o
 .debug_abbrev  0x0000c50e      0x1bf ua_hebi1.o
 .debug_abbrev  0x0000c6cd      0x1bf ua_sbten.o
 .debug_abbrev  0x0000c88c      0x211 ua_boss0.o
 .debug_abbrev  0x0000ca9d      0x1eb ua_mikey.o
 .debug_abbrev  0x0000cc88      0x1ec ua_ball1.o
 .debug_abbrev  0x0000ce74      0x1d4 ua_snake.o
 .debug_abbrev  0x0000d048      0x1bf ua_fire1.o
 .debug_abbrev  0x0000d207      0x1e1 ua_bkani.o
 .debug_abbrev  0x0000d3e8      0x1bf ua_flwer.o
 .debug_abbrev  0x0000d5a7      0x1d4 ua_canon.o
 .debug_abbrev  0x0000d77b      0x1d4 ua_fnsui.o
 .debug_abbrev  0x0000d94f      0x1bf ua_icemn.o
 .debug_abbrev  0x0000db0e      0x1fa ua_fireb.o
 .debug_abbrev  0x0000dd08      0x1d4 ua_mamuu.o
 .debug_abbrev  0x0000dedc      0x1d4 ua_bgkao.o
 .debug_abbrev  0x0000e0b0      0x1ed ua_whats.o
 .debug_abbrev  0x0000e29d      0x1ae ua_wood.o
 .debug_abbrev  0x0000e44b      0x1e7 ua_exit.o
 .debug_abbrev  0x0000e632      0x1fa ua_item.o
 .debug_abbrev  0x0000e82c      0x1bf ua_rocket.o
 .debug_abbrev  0x0000e9eb      0x1bf ua_heart.o
 .debug_abbrev  0x0000ebaa      0x216 ua_door.o
 .debug_abbrev  0x0000edc0      0x1bf ua_flag.o
 .debug_abbrev  0x0000ef7f      0x1bf ua_lmp0.o
 .debug_abbrev  0x0000f13e      0x1bf ua_star.o
 .debug_abbrev  0x0000f2fd      0x1d6 ua_spae.o
 .debug_abbrev  0x0000f4d3      0x211 ua_pwbk.o
 .debug_abbrev  0x0000f6e4      0x237 ua_bigboss.o
 .debug_abbrev  0x0000f91b      0x1f0 ua_gondola.o
 .debug_abbrev  0x0000fb0b      0x1d7 ua_gonboss.o
 .debug_abbrev  0x0000fce2      0x182 ua_gondata.o
 .debug_abbrev  0x0000fe64      0x1ec ua_cherry.o
 .debug_abbrev  0x00010050      0x20f ua_gohoubi.o
 .debug_abbrev  0x0001025f      0x1b5 ua_toge.o
 .debug_abbrev  0x00010414      0x232 ua_egg.o
 .debug_abbrev  0x00010646      0x1d7 ua_mask1.o
 .debug_abbrev  0x0001081d      0x227 ua_capsule.o
 .debug_abbrev  0x00010a44      0x1d7 ua_lift.o
 .debug_abbrev  0x00010c1b      0x1ec ua_bubble.o
 .debug_abbrev  0x00010e07      0x1fa ua_sboss.o
 .debug_abbrev  0x00011001      0x1d7 ua_itemball.o
 .debug_abbrev  0x000111d8      0x1ae ua_mosaic.o
 .debug_abbrev  0x00011386      0x1d4 ua_coin.o
 .debug_abbrev  0x0001155a      0x10b ua_endat0a.o
 .debug_abbrev  0x00011665      0x121 ua_endat0b.o
 .debug_abbrev  0x00011786      0x193 ua_endt.o
 .debug_abbrev  0x00011919      0x244 ua_effect.o
 .debug_abbrev  0x00011b5d       0xfa ua_effectdt.o
 .debug_abbrev  0x00011c57      0x200 ua_shock.o
 .debug_abbrev  0x00011e57      0x21c ua_stareffect.o
 .debug_abbrev  0x00012073      0x1ae ua_bosseffect.o
 .debug_abbrev  0x00012221      0x237 ua_cros.o
 .debug_abbrev  0x00012458      0x17c up_commondt.o
 .debug_abbrev  0x000125d4      0x21c up_exst.o
 .debug_abbrev  0x000127f0      0x237 um_yscr.o
 .debug_abbrev  0x00012a27      0x202 um_tscr.o
 .debug_abbrev  0x00012c29      0x158 m_mini_malloc.o
 .debug_abbrev  0x00012d81      0x17c course_data.o
 .debug_abbrev  0x00012efd      0x17c course_classic.o
 .debug_abbrev  0x00013079      0x101 d_bros_BG_scl.o
 .debug_abbrev  0x0001317a      0x101 d_Bros_obj_winner_scl.o
 .debug_abbrev  0x0001327b       0xca d_classic_bg_sch_Huff.o
 .debug_abbrev  0x00013345      0x101 d_classic_bg_scl.o
 .debug_abbrev  0x00013446       0xca d_classic_obj_sch_Huff.o
 .debug_abbrev  0x00013510      0x101 d_classic_obj_scl.o
 .debug_abbrev  0x00013611       0xfa d_classic_haikeiA_LZ.o
 .debug_abbrev  0x0001370b       0xfa d_classic_haikeiB_LZ.o
 .debug_abbrev  0x00013805       0xfa d_classic_haikeiC_LZ.o
 .debug_abbrev  0x000138ff       0xfa d_classic_haikeiD_LZ.o
 .debug_abbrev  0x000139f9      0x101 d_classic_BGanime_sch.o
 .debug_abbrev  0x00013afa      0x101 d_Bros_obj_scl.o
 .debug_abbrev  0x00013bfb      0x10b d_playerA_sob.o
 .debug_abbrev  0x00013d06      0x10b d_playerB_sob.o
 .debug_abbrev  0x00013e11      0x101 d_title_bros_bg_sch.o
 .debug_abbrev  0x00013f12      0x101 d_title_bros_bg_scl.o
 .debug_abbrev  0x00014013      0x101 d_title_kabe_ssc.o
 .debug_abbrev  0x00014114      0x101 d_title_waku_ssc.o
 .debug_abbrev  0x00014215      0x101 d_title_maruc_ssc.o
 .debug_abbrev  0x00014316       0xca d_title_bros_obj_Huff.o
 .debug_abbrev  0x000143e0      0x101 d_title_bros_obj_scl.o
 .debug_abbrev  0x000144e1       0xca d_classic_bonus2_1_Huff.o
 .debug_abbrev  0x000145ab       0xca d_classic_bonus2_2_Huff.o
 .debug_abbrev  0x00014675       0xca d_classic_bonus2_3_Huff.o
 .debug_abbrev  0x0001473f       0xca d_classic_bonus2_4_Huff.o
 .debug_abbrev  0x00014809      0x101 d_demo_maruc_ssc.o
 .debug_abbrev  0x0001490a      0x197 ud_course_data.o
 .debug_abbrev  0x00014aa1      0x1c8 C:/agb/lib//libagbbackup.a(AgbEeprom.o)
 .debug_abbrev  0x00014c69       0xff C:\PROGRA~1\Cygnus\thumbelf-000512\H-i686-cygwin32\bin/../lib/gcc-lib/thumb-elf/2.9-arm-000512/../../../../thumb-elf/lib/libg.a(assert.o)
 .debug_abbrev  0x00014d68      0x111 C:\PROGRA~1\Cygnus\thumbelf-000512\H-i686-cygwin32\bin/../lib/gcc-lib/thumb-elf/2.9-arm-000512/../../../../thumb-elf/lib/libg.a(fiprintf.o)
 .debug_abbrev  0x00014e79       0xeb C:\PROGRA~1\Cygnus\thumbelf-000512\H-i686-cygwin32\bin/../lib/gcc-lib/thumb-elf/2.9-arm-000512/../../../../thumb-elf/lib/libg.a(impure.o)
 .debug_abbrev  0x00014f64       0xce C:\PROGRA~1\Cygnus\thumbelf-000512\H-i686-cygwin32\bin/../lib/gcc-lib/thumb-elf/2.9-arm-000512/../../../../thumb-elf/lib/libg.a(libcfunc.o)
 .debug_abbrev  0x00015032       0x8b C:\PROGRA~1\Cygnus\thumbelf-000512\H-i686-cygwin32\bin/../lib/gcc-lib/thumb-elf/2.9-arm-000512/../../../../thumb-elf/lib/libg.a(memcpy.o)
 .debug_abbrev  0x000150bd       0x7f C:\PROGRA~1\Cygnus\thumbelf-000512\H-i686-cygwin32\bin/../lib/gcc-lib/thumb-elf/2.9-arm-000512/../../../../thumb-elf/lib/libg.a(memset.o)
 .debug_abbrev  0x0001513c      0x1b3 C:\PROGRA~1\Cygnus\thumbelf-000512\H-i686-cygwin32\bin/../lib/gcc-lib/thumb-elf/2.9-arm-000512/../../../../thumb-elf/lib/libg.a(vfiprintf.o)
 .debug_abbrev  0x000152ef      0x117 C:\PROGRA~1\Cygnus\thumbelf-000512\H-i686-cygwin32\bin/../lib/gcc-lib/thumb-elf/2.9-arm-000512/../../../../thumb-elf/lib/libg.a(wsetup.o)
 .debug_abbrev  0x00015406      0x126 C:\PROGRA~1\Cygnus\thumbelf-000512\H-i686-cygwin32\bin/../lib/gcc-lib/thumb-elf/2.9-arm-000512/../../../../thumb-elf/lib/libg.a(fflush.o)
 .debug_abbrev  0x0001552c      0x170 C:\PROGRA~1\Cygnus\thumbelf-000512\H-i686-cygwin32\bin/../lib/gcc-lib/thumb-elf/2.9-arm-000512/../../../../thumb-elf/lib/libg.a(findfp.o)
 .debug_abbrev  0x0001569c      0x162 C:\PROGRA~1\Cygnus\thumbelf-000512\H-i686-cygwin32\bin/../lib/gcc-lib/thumb-elf/2.9-arm-000512/../../../../thumb-elf/lib/libg.a(freer.o)
 .debug_abbrev  0x000157fe      0x127 C:\PROGRA~1\Cygnus\thumbelf-000512\H-i686-cygwin32\bin/../lib/gcc-lib/thumb-elf/2.9-arm-000512/../../../../thumb-elf/lib/libg.a(fvwrite.o)
 .debug_abbrev  0x00015925      0x123 C:\PROGRA~1\Cygnus\thumbelf-000512\H-i686-cygwin32\bin/../lib/gcc-lib/thumb-elf/2.9-arm-000512/../../../../thumb-elf/lib/libg.a(fwalk.o)
 .debug_abbrev  0x00015a48      0x141 C:\PROGRA~1\Cygnus\thumbelf-000512\H-i686-cygwin32\bin/../lib/gcc-lib/thumb-elf/2.9-arm-000512/../../../../thumb-elf/lib/libg.a(locale.o)
 .debug_abbrev  0x00015b89      0x113 C:\PROGRA~1\Cygnus\thumbelf-000512\H-i686-cygwin32\bin/../lib/gcc-lib/thumb-elf/2.9-arm-000512/../../../../thumb-elf/lib/libg.a(makebuf.o)
 .debug_abbrev  0x00015c9c      0x16d C:\PROGRA~1\Cygnus\thumbelf-000512\H-i686-cygwin32\bin/../lib/gcc-lib/thumb-elf/2.9-arm-000512/../../../../thumb-elf/lib/libg.a(mallocr.o)
 .debug_abbrev  0x00015e09      0x10c C:\PROGRA~1\Cygnus\thumbelf-000512\H-i686-cygwin32\bin/../lib/gcc-lib/thumb-elf/2.9-arm-000512/../../../../thumb-elf/lib/libg.a(mbtowc_r.o)
 .debug_abbrev  0x00015f15       0x7e C:\PROGRA~1\Cygnus\thumbelf-000512\H-i686-cygwin32\bin/../lib/gcc-lib/thumb-elf/2.9-arm-000512/../../../../thumb-elf/lib/libg.a(memchr.o)
 .debug_abbrev  0x00015f93       0x8b C:\PROGRA~1\Cygnus\thumbelf-000512\H-i686-cygwin32\bin/../lib/gcc-lib/thumb-elf/2.9-arm-000512/../../../../thumb-elf/lib/libg.a(memmove.o)
 .debug_abbrev  0x0001601e       0xec C:\PROGRA~1\Cygnus\thumbelf-000512\H-i686-cygwin32\bin/../lib/gcc-lib/thumb-elf/2.9-arm-000512/../../../../thumb-elf/lib/libg.a(mlock.o)
 .debug_abbrev  0x0001610a      0x126 C:\PROGRA~1\Cygnus\thumbelf-000512\H-i686-cygwin32\bin/../lib/gcc-lib/thumb-elf/2.9-arm-000512/../../../../thumb-elf/lib/libg.a(sbrkr.o)
 .debug_abbrev  0x00016230      0x122 C:\PROGRA~1\Cygnus\thumbelf-000512\H-i686-cygwin32\bin/../lib/gcc-lib/thumb-elf/2.9-arm-000512/../../../../thumb-elf/lib/libg.a(stdio.o)
 .debug_abbrev  0x00016352       0x72 C:\PROGRA~1\Cygnus\thumbelf-000512\H-i686-cygwin32\bin/../lib/gcc-lib/thumb-elf/2.9-arm-000512/../../../../thumb-elf/lib/libg.a(strcmp.o)
 .debug_abbrev  0x000163c4       0x72 C:\PROGRA~1\Cygnus\thumbelf-000512\H-i686-cygwin32\bin/../lib/gcc-lib/thumb-elf/2.9-arm-000512/../../../../thumb-elf/lib/libg.a(strlen.o)
 .debug_abbrev  0x00016436      0x269 C:\PROGRA~1\Cygnus\thumbelf-000512\H-i686-cygwin32\bin/../lib/gcc-lib/thumb-elf/2.9-arm-000512/../../../../thumb-elf/lib/libg.a(syscalls.o)
 .debug_abbrev  0x0001669f      0x12b C:\PROGRA~1\Cygnus\thumbelf-000512\H-i686-cygwin32\bin/../lib/gcc-lib/thumb-elf/2.9-arm-000512/../../../../thumb-elf/lib/libg.a(writer.o)
 .debug_abbrev  0x000167ca      0x126 C:\PROGRA~1\Cygnus\thumbelf-000512\H-i686-cygwin32\bin/../lib/gcc-lib/thumb-elf/2.9-arm-000512/../../../../thumb-elf/lib/libg.a(closer.o)
 .debug_abbrev  0x000168f0       0xf9 C:\PROGRA~1\Cygnus\thumbelf-000512\H-i686-cygwin32\bin/../lib/gcc-lib/thumb-elf/2.9-arm-000512/../../../../thumb-elf/lib/libg.a(errno.o)
 .debug_abbrev  0x000169e9      0x126 C:\PROGRA~1\Cygnus\thumbelf-000512\H-i686-cygwin32\bin/../lib/gcc-lib/thumb-elf/2.9-arm-000512/../../../../thumb-elf/lib/libg.a(fstatr.o)
 .debug_abbrev  0x00016b0f      0x126 C:\PROGRA~1\Cygnus\thumbelf-000512\H-i686-cygwin32\bin/../lib/gcc-lib/thumb-elf/2.9-arm-000512/../../../../thumb-elf/lib/libg.a(lseekr.o)
 .debug_abbrev  0x00016c35      0x126 C:\PROGRA~1\Cygnus\thumbelf-000512\H-i686-cygwin32\bin/../lib/gcc-lib/thumb-elf/2.9-arm-000512/../../../../thumb-elf/lib/libg.a(readr.o)
d7190 1
a7190 1
.debug_line     0x00000000    0x6a314
d7193 179
a7371 179
 .debug_line    0x00000278     0x59e8 ba_player.o
 .debug_line    0x00005c60      0x44e ba_reach.o
 .debug_line    0x000060ae      0x876 cm_game.o
 .debug_line    0x00006924      0x756 m_battle_rom_play.o
 .debug_line    0x0000707a     0x1c00 m_classic_play.o
 .debug_line    0x00008c7a      0x7d7 m_erase.o
 .debug_line    0x00009451      0x4c7 m_game.o
 .debug_line    0x00009918     0x342a m_game_sub.o
 .debug_line    0x0000cd42      0xeb6 m_game_title.o
 .debug_line    0x0000dbf8      0xb86 m_main.o
 .debug_line    0x0000e77e     0x2d28 m_opening.o
 .debug_line    0x000114a6      0x52d m_score.o
 .debug_line    0x000119d3     0x14d6 m_title.o
 .debug_line    0x00012ea9     0x25d3 m_title_sub.o
 .debug_line    0x0001547c     0x1e96 m_vs.o
 .debug_line    0x00017312      0x815 m_VsGame.o
 .debug_line    0x00017b27      0x3b5 m_VsMain.o
 .debug_line    0x00017edc      0x556 ua_char_set.o
 .debug_line    0x00018432     0x15a6 ua_course.o
 .debug_line    0x000199d8     0x28e9 ua_ending.o
 .debug_line    0x0001c2c1     0x1fa5 ua_game.o
 .debug_line    0x0001e266      0x8cc ua_game_over.o
 .debug_line    0x0001eb32      0x8df ua_pause.o
 .debug_line    0x0001f411      0xff0 ua_score.o
 .debug_line    0x00020401      0x698 ua_warp.o
 .debug_line    0x00020a99     0x12ed um_bonus.o
 .debug_line    0x00021d86      0x61e um_courseclear.o
 .debug_line    0x000223a4      0xdde um_select.o
 .debug_line    0x00023182     0x10f9 um_select_sub.o
 .debug_line    0x0002427b     0x1cf7 um_yossy.o
 .debug_line    0x00025f72     0x2428 up_common.o
 .debug_line    0x0002839a     0x2634 up_player.o
 .debug_line    0x0002a9ce      0x36d m_boot.o
 .debug_line    0x0002ad3b      0x3e0 m_sub.o
 .debug_line    0x0002b11b      0x73d m_MultiSio.o
 .debug_line    0x0002b858      0x853 MultiBoot.o
 .debug_line    0x0002c0ab      0x31a m_bgcheck.o
 .debug_line    0x0002c3c5      0x209 m_scroll.o
 .debug_line    0x0002c5ce      0x615 m_classic_sub.o
 .debug_line    0x0002cbe3     0x13c7 ua_save.o
 .debug_line    0x0002dfaa     0x1e6f um_result.o
 .debug_line    0x0002fe19      0x13b um_math.o
 .debug_line    0x0002ff54      0x4b7 um_oamset.o
 .debug_line    0x0003040b      0x298 um_mosaic.o
 .debug_line    0x000306a3      0x40e cm_game_title.o
 .debug_line    0x00030ab1      0xcae ua_act.o
 .debug_line    0x0003175f     0x256a ua_common.o
 .debug_line    0x00033cc9      0x459 ua_bg.o
 .debug_line    0x00034122      0x21f ua_unit_change.o
 .debug_line    0x00034341      0x76f ua_color.o
 .debug_line    0x00034ab0      0x361 ua_bg3_set.o
 .debug_line    0x00034e11     0x1119 ua_sort.o
 .debug_line    0x00035f2a      0x47a ua_eggmeter.o
 .debug_line    0x000363a4      0x3fa ba_act.o
 .debug_line    0x0003679e      0x841 ba_bgYuKa.o
 .debug_line    0x00036fdf      0xe91 ba_bucket.o
 .debug_line    0x00037e70      0xc5e ba_Coin.o
 .debug_line    0x00038ace      0xe5e ba_common.o
 .debug_line    0x0003992c      0x6e5 ba_egg.o
 .debug_line    0x0003a011      0xe40 ba_enFly.o
 .debug_line    0x0003ae51      0xf42 ba_enKani.o
 .debug_line    0x0003bd93     0x11f4 ba_enmy.o
 .debug_line    0x0003cf87      0x1fa ba_enNoko.o
 .debug_line    0x0003d181      0xef2 ba_enToge.o
 .debug_line    0x0003e073      0xc35 ba_fire.o
 .debug_line    0x0003eca8      0x35d ba_fishBone.o
 .debug_line    0x0003f005      0x4a3 ba_heart.o
 .debug_line    0x0003f4a8      0xf23 ba_ice.o
 .debug_line    0x000403cb      0x971 ba_koura.o
 .debug_line    0x00040d3c      0xcce ba_kuppa.o
 .debug_line    0x00041a0a      0x371 ba_mutekiStar.o
 .debug_line    0x00041d7b      0x63d ba_PipeWave.o
 .debug_line    0x000423b8      0x379 ba_point.o
 .debug_line    0x00042731      0x975 ba_pow.o
 .debug_line    0x000430a6      0x271 ba_smoke.o
 .debug_line    0x00043317      0x581 ba_spark.o
 .debug_line    0x00043898      0x2ea ba_splash.o
 .debug_line    0x00043b82      0x451 ba_star.o
 .debug_line    0x00043fd3      0x6c6 ba_icicle.o
 .debug_line    0x00044699      0x34a ba_powsmk.o
 .debug_line    0x000449e3      0x8ff ua_fairy.o
 .debug_line    0x000452e2      0x99e ua_walk.o
 .debug_line    0x00045c80      0x39d ua_tori.o
 .debug_line    0x0004601d      0x2ee ua_huck0.o
 .debug_line    0x0004630b      0x5fe ua_shoot.o
 .debug_line    0x00046909      0x749 ua_force.o
 .debug_line    0x00047052      0x6e7 ua_burn0.o
 .debug_line    0x00047739      0x5e6 ua_bird.o
 .debug_line    0x00047d1f      0x3b6 ua_ninja.o
 .debug_line    0x000480d5      0x43e ua_ninj1.o
 .debug_line    0x00048513      0x396 ua_flyng.o
 .debug_line    0x000488a9      0xa71 ua_pigmo.o
 .debug_line    0x0004931a      0x567 ua_fish0.o
 .debug_line    0x00049881      0x486 ua_musi0.o
 .debug_line    0x00049d07      0x37d ua_tubo.o
 .debug_line    0x0004a084      0x67e ua_mask.o
 .debug_line    0x0004a702      0x559 ua_hebi0.o
 .debug_line    0x0004ac5b      0x43e ua_hebi1.o
 .debug_line    0x0004b099      0x679 ua_sbten.o
 .debug_line    0x0004b712      0xa2d ua_boss0.o
 .debug_line    0x0004c13f      0x6d9 ua_mikey.o
 .debug_line    0x0004c818      0xef2 ua_ball1.o
 .debug_line    0x0004d70a      0x671 ua_snake.o
 .debug_line    0x0004dd7b      0x619 ua_fire1.o
 .debug_line    0x0004e394      0x6fa ua_bkani.o
 .debug_line    0x0004ea8e      0x3b6 ua_flwer.o
 .debug_line    0x0004ee44      0x789 ua_canon.o
 .debug_line    0x0004f5cd      0x6f1 ua_fnsui.o
 .debug_line    0x0004fcbe      0x3ee ua_icemn.o
 .debug_line    0x000500ac      0x91b ua_fireb.o
 .debug_line    0x000509c7      0x789 ua_mamuu.o
 .debug_line    0x00051150      0x6f1 ua_bgkao.o
 .debug_line    0x00051841      0x50e ua_whats.o
 .debug_line    0x00051d4f      0x2ee ua_wood.o
 .debug_line    0x0005203d      0x788 ua_exit.o
 .debug_line    0x000527c5      0xd62 ua_item.o
 .debug_line    0x00053527      0x5aa ua_rocket.o
 .debug_line    0x00053ad1      0x4f2 ua_heart.o
 .debug_line    0x00053fc3      0xe6e ua_door.o
 .debug_line    0x00054e31      0x44d ua_flag.o
 .debug_line    0x0005527e      0x4ef ua_lmp0.o
 .debug_line    0x0005576d      0x4e2 ua_star.o
 .debug_line    0x00055c4f      0x6fd ua_spae.o
 .debug_line    0x0005634c      0xcec ua_pwbk.o
 .debug_line    0x00057038     0x119a ua_bigboss.o
 .debug_line    0x000581d2      0x45c ua_gondola.o
 .debug_line    0x0005862e      0x626 ua_gonboss.o
 .debug_line    0x00058c54      0x3d5 ua_cherry.o
 .debug_line    0x00059029     0x119b ua_gohoubi.o
 .debug_line    0x0005a1c4      0x3ca ua_toge.o
 .debug_line    0x0005a58e      0xbb1 ua_egg.o
 .debug_line    0x0005b13f      0x2ca ua_mask1.o
 .debug_line    0x0005b409      0x944 ua_capsule.o
 .debug_line    0x0005bd4d      0x445 ua_lift.o
 .debug_line    0x0005c192      0x71e ua_bubble.o
 .debug_line    0x0005c8b0      0xa47 ua_sboss.o
 .debug_line    0x0005d2f7      0x3f6 ua_itemball.o
 .debug_line    0x0005d6ed      0x2d8 ua_mosaic.o
 .debug_line    0x0005d9c5      0x6ab ua_coin.o
 .debug_line    0x0005e070      0x79e ua_effect.o
 .debug_line    0x0005e80e      0x893 ua_shock.o
 .debug_line    0x0005f0a1      0x865 ua_stareffect.o
 .debug_line    0x0005f906      0x3b7 ua_bosseffect.o
 .debug_line    0x0005fcbd      0xcd6 ua_cros.o
 .debug_line    0x00060993      0x836 up_exst.o
 .debug_line    0x000611c9      0x902 um_yscr.o
 .debug_line    0x00061acb      0x488 um_tscr.o
 .debug_line    0x00061f53      0x635 m_mini_malloc.o
 .debug_line    0x00062588      0x4fa C:/agb/lib//libagbbackup.a(AgbEeprom.o)
 .debug_line    0x00062a82      0x33c C:\PROGRA~1\Cygnus\thumbelf-000512\H-i686-cygwin32\bin/../lib/gcc-lib/thumb-elf/2.9-arm-000512/../../../../thumb-elf/lib/libg.a(assert.o)
 .debug_line    0x00062dbe      0x2e9 C:\PROGRA~1\Cygnus\thumbelf-000512\H-i686-cygwin32\bin/../lib/gcc-lib/thumb-elf/2.9-arm-000512/../../../../thumb-elf/lib/libg.a(fiprintf.o)
 .debug_line    0x000630a7       0xe3 C:\PROGRA~1\Cygnus\thumbelf-000512\H-i686-cygwin32\bin/../lib/gcc-lib/thumb-elf/2.9-arm-000512/../../../../thumb-elf/lib/libg.a(libcfunc.o)
 .debug_line    0x0006318a      0x1e5 C:\PROGRA~1\Cygnus\thumbelf-000512\H-i686-cygwin32\bin/../lib/gcc-lib/thumb-elf/2.9-arm-000512/../../../../thumb-elf/lib/libg.a(memcpy.o)
 .debug_line    0x0006336f      0x20d C:\PROGRA~1\Cygnus\thumbelf-000512\H-i686-cygwin32\bin/../lib/gcc-lib/thumb-elf/2.9-arm-000512/../../../../thumb-elf/lib/libg.a(memset.o)
 .debug_line    0x0006357c      0xb33 C:\PROGRA~1\Cygnus\thumbelf-000512\H-i686-cygwin32\bin/../lib/gcc-lib/thumb-elf/2.9-arm-000512/../../../../thumb-elf/lib/libg.a(vfiprintf.o)
 .debug_line    0x000640af      0x482 C:\PROGRA~1\Cygnus\thumbelf-000512\H-i686-cygwin32\bin/../lib/gcc-lib/thumb-elf/2.9-arm-000512/../../../../thumb-elf/lib/libg.a(wsetup.o)
 .debug_line    0x00064531      0x41e C:\PROGRA~1\Cygnus\thumbelf-000512\H-i686-cygwin32\bin/../lib/gcc-lib/thumb-elf/2.9-arm-000512/../../../../thumb-elf/lib/libg.a(fflush.o)
 .debug_line    0x0006494f      0x612 C:\PROGRA~1\Cygnus\thumbelf-000512\H-i686-cygwin32\bin/../lib/gcc-lib/thumb-elf/2.9-arm-000512/../../../../thumb-elf/lib/libg.a(findfp.o)
 .debug_line    0x00064f61      0x596 C:\PROGRA~1\Cygnus\thumbelf-000512\H-i686-cygwin32\bin/../lib/gcc-lib/thumb-elf/2.9-arm-000512/../../../../thumb-elf/lib/libg.a(freer.o)
 .debug_line    0x000654f7      0x61a C:\PROGRA~1\Cygnus\thumbelf-000512\H-i686-cygwin32\bin/../lib/gcc-lib/thumb-elf/2.9-arm-000512/../../../../thumb-elf/lib/libg.a(fvwrite.o)
 .debug_line    0x00065b11      0x431 C:\PROGRA~1\Cygnus\thumbelf-000512\H-i686-cygwin32\bin/../lib/gcc-lib/thumb-elf/2.9-arm-000512/../../../../thumb-elf/lib/libg.a(fwalk.o)
 .debug_line    0x00065f42      0x34a C:\PROGRA~1\Cygnus\thumbelf-000512\H-i686-cygwin32\bin/../lib/gcc-lib/thumb-elf/2.9-arm-000512/../../../../thumb-elf/lib/libg.a(locale.o)
 .debug_line    0x0006628c      0x511 C:\PROGRA~1\Cygnus\thumbelf-000512\H-i686-cygwin32\bin/../lib/gcc-lib/thumb-elf/2.9-arm-000512/../../../../thumb-elf/lib/libg.a(makebuf.o)
 .debug_line    0x0006679d      0x84c C:\PROGRA~1\Cygnus\thumbelf-000512\H-i686-cygwin32\bin/../lib/gcc-lib/thumb-elf/2.9-arm-000512/../../../../thumb-elf/lib/libg.a(mallocr.o)
 .debug_line    0x00066fe9      0x310 C:\PROGRA~1\Cygnus\thumbelf-000512\H-i686-cygwin32\bin/../lib/gcc-lib/thumb-elf/2.9-arm-000512/../../../../thumb-elf/lib/libg.a(mbtowc_r.o)
 .debug_line    0x000672f9      0x22d C:\PROGRA~1\Cygnus\thumbelf-000512\H-i686-cygwin32\bin/../lib/gcc-lib/thumb-elf/2.9-arm-000512/../../../../thumb-elf/lib/libg.a(memchr.o)
 .debug_line    0x00067526      0x226 C:\PROGRA~1\Cygnus\thumbelf-000512\H-i686-cygwin32\bin/../lib/gcc-lib/thumb-elf/2.9-arm-000512/../../../../thumb-elf/lib/libg.a(memmove.o)
 .debug_line    0x0006774c      0x279 C:\PROGRA~1\Cygnus\thumbelf-000512\H-i686-cygwin32\bin/../lib/gcc-lib/thumb-elf/2.9-arm-000512/../../../../thumb-elf/lib/libg.a(mlock.o)
 .debug_line    0x000679c5      0x2f3 C:\PROGRA~1\Cygnus\thumbelf-000512\H-i686-cygwin32\bin/../lib/gcc-lib/thumb-elf/2.9-arm-000512/../../../../thumb-elf/lib/libg.a(sbrkr.o)
 .debug_line    0x00067cb8      0x51a C:\PROGRA~1\Cygnus\thumbelf-000512\H-i686-cygwin32\bin/../lib/gcc-lib/thumb-elf/2.9-arm-000512/../../../../thumb-elf/lib/libg.a(stdio.o)
 .debug_line    0x000681d2      0x1bd C:\PROGRA~1\Cygnus\thumbelf-000512\H-i686-cygwin32\bin/../lib/gcc-lib/thumb-elf/2.9-arm-000512/../../../../thumb-elf/lib/libg.a(strcmp.o)
 .debug_line    0x0006838f      0x19d C:\PROGRA~1\Cygnus\thumbelf-000512\H-i686-cygwin32\bin/../lib/gcc-lib/thumb-elf/2.9-arm-000512/../../../../thumb-elf/lib/libg.a(strlen.o)
 .debug_line    0x0006852c      0xcb1 C:\PROGRA~1\Cygnus\thumbelf-000512\H-i686-cygwin32\bin/../lib/gcc-lib/thumb-elf/2.9-arm-000512/../../../../thumb-elf/lib/libg.a(syscalls.o)
 .debug_line    0x000691dd      0x2f4 C:\PROGRA~1\Cygnus\thumbelf-000512\H-i686-cygwin32\bin/../lib/gcc-lib/thumb-elf/2.9-arm-000512/../../../../thumb-elf/lib/libg.a(writer.o)
 .debug_line    0x000694d1      0x2f4 C:\PROGRA~1\Cygnus\thumbelf-000512\H-i686-cygwin32\bin/../lib/gcc-lib/thumb-elf/2.9-arm-000512/../../../../thumb-elf/lib/libg.a(closer.o)
 .debug_line    0x000697c5      0x274 C:\PROGRA~1\Cygnus\thumbelf-000512\H-i686-cygwin32\bin/../lib/gcc-lib/thumb-elf/2.9-arm-000512/../../../../thumb-elf/lib/libg.a(errno.o)
 .debug_line    0x00069a39      0x2f4 C:\PROGRA~1\Cygnus\thumbelf-000512\H-i686-cygwin32\bin/../lib/gcc-lib/thumb-elf/2.9-arm-000512/../../../../thumb-elf/lib/libg.a(fstatr.o)
 .debug_line    0x00069d2d      0x2f4 C:\PROGRA~1\Cygnus\thumbelf-000512\H-i686-cygwin32\bin/../lib/gcc-lib/thumb-elf/2.9-arm-000512/../../../../thumb-elf/lib/libg.a(lseekr.o)
 .debug_line    0x0006a021      0x2f3 C:\PROGRA~1\Cygnus\thumbelf-000512\H-i686-cygwin32\bin/../lib/gcc-lib/thumb-elf/2.9-arm-000512/../../../../thumb-elf/lib/libg.a(readr.o)
@


1.1.1.1
log
@start
@
text
@@
