head	1.2;
access;
symbols
	start:1.1.1.1 yoyo:1.1.1;
locks; strict;
comment	@# @;


1.2
date	2004.02.23.07.17.56;	author panda;	state Exp;
branches;
next	1.1;

1.1
date	2004.02.02.07.28.22;	author panda;	state Exp;
branches
	1.1.1.1;
next	;

1.1.1.1
date	2004.02.02.07.28.22;	author panda;	state Exp;
branches;
next	;


desc
@@


1.2
log
@*** empty log message ***
@
text
@Archive member included       because of file (symbol)

C:/agb/lib//libagbsyscall.a(AgbSysCpuFastSet.o)
                              cm_game.o (CpuFastSet)
C:/agb/lib//libagbsyscall.a(AgbSysCpuSet.o)
                              cm_game.o (CpuSet)
C:/agb/lib//libagbsyscall.a(AgbSysRegisterRamReset.o)
                              cm_game.o (RegisterRamReset)
C:/agb/lib//libagbsyscall.a(AgbSysSoftResetRom.o)
                              cm_game.o (SoftResetRom)
C:\PROGRA~1\Cygnus\thumbelf-000512\H-i686-cygwin32\bin/../lib/gcc-lib/thumb-elf/2.9-arm-000512/libgcc.a(_call_via_rX.o)
                              ba_player.o (_call_via_r1)
C:\PROGRA~1\Cygnus\thumbelf-000512\H-i686-cygwin32\bin/../lib/gcc-lib/thumb-elf/2.9-arm-000512/libgcc.a(_divsi3.o)
                              Sound/bros_senyou/m4aLib.o (__divsi3)
C:\PROGRA~1\Cygnus\thumbelf-000512\H-i686-cygwin32\bin/../lib/gcc-lib/thumb-elf/2.9-arm-000512/libgcc.a(_dvmd_tls.o)
                              C:\PROGRA~1\Cygnus\thumbelf-000512\H-i686-cygwin32\bin/../lib/gcc-lib/thumb-elf/2.9-arm-000512/libgcc.a(_divsi3.o) (__div0)
C:\PROGRA~1\Cygnus\thumbelf-000512\H-i686-cygwin32\bin/../lib/gcc-lib/thumb-elf/2.9-arm-000512/libgcc.a(_udivsi3.o)
                              ba_player.o (__udivsi3)
C:\PROGRA~1\Cygnus\thumbelf-000512\H-i686-cygwin32\bin/../lib/gcc-lib/thumb-elf/2.9-arm-000512/libgcc.a(_umodsi3.o)
                              ba_player.o (__umodsi3)
C:\PROGRA~1\Cygnus\thumbelf-000512\H-i686-cygwin32\bin/../lib/gcc-lib/thumb-elf/2.9-arm-000512/../../../../thumb-elf/lib/libg.a(assert.o)
                              m_mini_malloc.o (__assert)
C:\PROGRA~1\Cygnus\thumbelf-000512\H-i686-cygwin32\bin/../lib/gcc-lib/thumb-elf/2.9-arm-000512/../../../../thumb-elf/lib/libg.a(fiprintf.o)
                              C:\PROGRA~1\Cygnus\thumbelf-000512\H-i686-cygwin32\bin/../lib/gcc-lib/thumb-elf/2.9-arm-000512/../../../../thumb-elf/lib/libg.a(assert.o) (fiprintf)
C:\PROGRA~1\Cygnus\thumbelf-000512\H-i686-cygwin32\bin/../lib/gcc-lib/thumb-elf/2.9-arm-000512/../../../../thumb-elf/lib/libg.a(impure.o)
                              C:\PROGRA~1\Cygnus\thumbelf-000512\H-i686-cygwin32\bin/../lib/gcc-lib/thumb-elf/2.9-arm-000512/../../../../thumb-elf/lib/libg.a(assert.o) (_impure_ptr)
C:\PROGRA~1\Cygnus\thumbelf-000512\H-i686-cygwin32\bin/../lib/gcc-lib/thumb-elf/2.9-arm-000512/../../../../thumb-elf/lib/libg.a(libcfunc.o)
                              C:\PROGRA~1\Cygnus\thumbelf-000512\H-i686-cygwin32\bin/../lib/gcc-lib/thumb-elf/2.9-arm-000512/../../../../thumb-elf/lib/libg.a(assert.o) (abort)
C:\PROGRA~1\Cygnus\thumbelf-000512\H-i686-cygwin32\bin/../lib/gcc-lib/thumb-elf/2.9-arm-000512/../../../../thumb-elf/lib/libg.a(memcpy.o)
                              ba_player.o (memcpy)
C:\PROGRA~1\Cygnus\thumbelf-000512\H-i686-cygwin32\bin/../lib/gcc-lib/thumb-elf/2.9-arm-000512/../../../../thumb-elf/lib/libg.a(vfiprintf.o)
                              C:\PROGRA~1\Cygnus\thumbelf-000512\H-i686-cygwin32\bin/../lib/gcc-lib/thumb-elf/2.9-arm-000512/../../../../thumb-elf/lib/libg.a(fiprintf.o) (vfiprintf)
C:\PROGRA~1\Cygnus\thumbelf-000512\H-i686-cygwin32\bin/../lib/gcc-lib/thumb-elf/2.9-arm-000512/../../../../thumb-elf/lib/libg.a(wsetup.o)
                              C:\PROGRA~1\Cygnus\thumbelf-000512\H-i686-cygwin32\bin/../lib/gcc-lib/thumb-elf/2.9-arm-000512/../../../../thumb-elf/lib/libg.a(vfiprintf.o) (__swsetup)
C:\PROGRA~1\Cygnus\thumbelf-000512\H-i686-cygwin32\bin/../lib/gcc-lib/thumb-elf/2.9-arm-000512/../../../../thumb-elf/lib/libg.a(fflush.o)
                              C:\PROGRA~1\Cygnus\thumbelf-000512\H-i686-cygwin32\bin/../lib/gcc-lib/thumb-elf/2.9-arm-000512/../../../../thumb-elf/lib/libg.a(vfiprintf.o) (fflush)
C:\PROGRA~1\Cygnus\thumbelf-000512\H-i686-cygwin32\bin/../lib/gcc-lib/thumb-elf/2.9-arm-000512/../../../../thumb-elf/lib/libg.a(findfp.o)
                              C:\PROGRA~1\Cygnus\thumbelf-000512\H-i686-cygwin32\bin/../lib/gcc-lib/thumb-elf/2.9-arm-000512/../../../../thumb-elf/lib/libg.a(vfiprintf.o) (__sinit)
C:\PROGRA~1\Cygnus\thumbelf-000512\H-i686-cygwin32\bin/../lib/gcc-lib/thumb-elf/2.9-arm-000512/../../../../thumb-elf/lib/libg.a(freer.o)
                              C:\PROGRA~1\Cygnus\thumbelf-000512\H-i686-cygwin32\bin/../lib/gcc-lib/thumb-elf/2.9-arm-000512/../../../../thumb-elf/lib/libg.a(wsetup.o) (_free_r)
C:\PROGRA~1\Cygnus\thumbelf-000512\H-i686-cygwin32\bin/../lib/gcc-lib/thumb-elf/2.9-arm-000512/../../../../thumb-elf/lib/libg.a(fvwrite.o)
                              C:\PROGRA~1\Cygnus\thumbelf-000512\H-i686-cygwin32\bin/../lib/gcc-lib/thumb-elf/2.9-arm-000512/../../../../thumb-elf/lib/libg.a(vfiprintf.o) (__sfvwrite)
C:\PROGRA~1\Cygnus\thumbelf-000512\H-i686-cygwin32\bin/../lib/gcc-lib/thumb-elf/2.9-arm-000512/../../../../thumb-elf/lib/libg.a(fwalk.o)
                              C:\PROGRA~1\Cygnus\thumbelf-000512\H-i686-cygwin32\bin/../lib/gcc-lib/thumb-elf/2.9-arm-000512/../../../../thumb-elf/lib/libg.a(fflush.o) (_fwalk)
C:\PROGRA~1\Cygnus\thumbelf-000512\H-i686-cygwin32\bin/../lib/gcc-lib/thumb-elf/2.9-arm-000512/../../../../thumb-elf/lib/libg.a(locale.o)
                              C:\PROGRA~1\Cygnus\thumbelf-000512\H-i686-cygwin32\bin/../lib/gcc-lib/thumb-elf/2.9-arm-000512/../../../../thumb-elf/lib/libg.a(vfiprintf.o) (__mb_cur_max)
C:\PROGRA~1\Cygnus\thumbelf-000512\H-i686-cygwin32\bin/../lib/gcc-lib/thumb-elf/2.9-arm-000512/../../../../thumb-elf/lib/libg.a(makebuf.o)
                              C:\PROGRA~1\Cygnus\thumbelf-000512\H-i686-cygwin32\bin/../lib/gcc-lib/thumb-elf/2.9-arm-000512/../../../../thumb-elf/lib/libg.a(wsetup.o) (__smakebuf)
C:\PROGRA~1\Cygnus\thumbelf-000512\H-i686-cygwin32\bin/../lib/gcc-lib/thumb-elf/2.9-arm-000512/../../../../thumb-elf/lib/libg.a(mallocr.o)
                              C:\PROGRA~1\Cygnus\thumbelf-000512\H-i686-cygwin32\bin/../lib/gcc-lib/thumb-elf/2.9-arm-000512/../../../../thumb-elf/lib/libg.a(freer.o) (__malloc_av_)
C:\PROGRA~1\Cygnus\thumbelf-000512\H-i686-cygwin32\bin/../lib/gcc-lib/thumb-elf/2.9-arm-000512/../../../../thumb-elf/lib/libg.a(mbtowc_r.o)
                              C:\PROGRA~1\Cygnus\thumbelf-000512\H-i686-cygwin32\bin/../lib/gcc-lib/thumb-elf/2.9-arm-000512/../../../../thumb-elf/lib/libg.a(vfiprintf.o) (_mbtowc_r)
C:\PROGRA~1\Cygnus\thumbelf-000512\H-i686-cygwin32\bin/../lib/gcc-lib/thumb-elf/2.9-arm-000512/../../../../thumb-elf/lib/libg.a(memchr.o)
                              C:\PROGRA~1\Cygnus\thumbelf-000512\H-i686-cygwin32\bin/../lib/gcc-lib/thumb-elf/2.9-arm-000512/../../../../thumb-elf/lib/libg.a(vfiprintf.o) (memchr)
C:\PROGRA~1\Cygnus\thumbelf-000512\H-i686-cygwin32\bin/../lib/gcc-lib/thumb-elf/2.9-arm-000512/../../../../thumb-elf/lib/libg.a(memmove.o)
                              C:\PROGRA~1\Cygnus\thumbelf-000512\H-i686-cygwin32\bin/../lib/gcc-lib/thumb-elf/2.9-arm-000512/../../../../thumb-elf/lib/libg.a(fvwrite.o) (memmove)
C:\PROGRA~1\Cygnus\thumbelf-000512\H-i686-cygwin32\bin/../lib/gcc-lib/thumb-elf/2.9-arm-000512/../../../../thumb-elf/lib/libg.a(memset.o)
                              C:\PROGRA~1\Cygnus\thumbelf-000512\H-i686-cygwin32\bin/../lib/gcc-lib/thumb-elf/2.9-arm-000512/../../../../thumb-elf/lib/libg.a(findfp.o) (memset)
C:\PROGRA~1\Cygnus\thumbelf-000512\H-i686-cygwin32\bin/../lib/gcc-lib/thumb-elf/2.9-arm-000512/../../../../thumb-elf/lib/libg.a(mlock.o)
                              C:\PROGRA~1\Cygnus\thumbelf-000512\H-i686-cygwin32\bin/../lib/gcc-lib/thumb-elf/2.9-arm-000512/../../../../thumb-elf/lib/libg.a(freer.o) (__malloc_lock)
C:\PROGRA~1\Cygnus\thumbelf-000512\H-i686-cygwin32\bin/../lib/gcc-lib/thumb-elf/2.9-arm-000512/../../../../thumb-elf/lib/libg.a(sbrkr.o)
                              C:\PROGRA~1\Cygnus\thumbelf-000512\H-i686-cygwin32\bin/../lib/gcc-lib/thumb-elf/2.9-arm-000512/../../../../thumb-elf/lib/libg.a(freer.o) (_sbrk_r)
C:\PROGRA~1\Cygnus\thumbelf-000512\H-i686-cygwin32\bin/../lib/gcc-lib/thumb-elf/2.9-arm-000512/../../../../thumb-elf/lib/libg.a(stdio.o)
                              C:\PROGRA~1\Cygnus\thumbelf-000512\H-i686-cygwin32\bin/../lib/gcc-lib/thumb-elf/2.9-arm-000512/../../../../thumb-elf/lib/libg.a(findfp.o) (__sread)
C:\PROGRA~1\Cygnus\thumbelf-000512\H-i686-cygwin32\bin/../lib/gcc-lib/thumb-elf/2.9-arm-000512/../../../../thumb-elf/lib/libg.a(strcmp.o)
                              C:\PROGRA~1\Cygnus\thumbelf-000512\H-i686-cygwin32\bin/../lib/gcc-lib/thumb-elf/2.9-arm-000512/../../../../thumb-elf/lib/libg.a(locale.o) (strcmp)
C:\PROGRA~1\Cygnus\thumbelf-000512\H-i686-cygwin32\bin/../lib/gcc-lib/thumb-elf/2.9-arm-000512/../../../../thumb-elf/lib/libg.a(strlen.o)
                              C:\PROGRA~1\Cygnus\thumbelf-000512\H-i686-cygwin32\bin/../lib/gcc-lib/thumb-elf/2.9-arm-000512/../../../../thumb-elf/lib/libg.a(vfiprintf.o) (strlen)
C:\PROGRA~1\Cygnus\thumbelf-000512\H-i686-cygwin32\bin/../lib/gcc-lib/thumb-elf/2.9-arm-000512/../../../../thumb-elf/lib/libg.a(syscalls.o)
                              C:\PROGRA~1\Cygnus\thumbelf-000512\H-i686-cygwin32\bin/../lib/gcc-lib/thumb-elf/2.9-arm-000512/../../../../thumb-elf/lib/libg.a(sbrkr.o) (_sbrk)
C:\PROGRA~1\Cygnus\thumbelf-000512\H-i686-cygwin32\bin/../lib/gcc-lib/thumb-elf/2.9-arm-000512/../../../../thumb-elf/lib/libg.a(writer.o)
                              C:\PROGRA~1\Cygnus\thumbelf-000512\H-i686-cygwin32\bin/../lib/gcc-lib/thumb-elf/2.9-arm-000512/../../../../thumb-elf/lib/libg.a(stdio.o) (_write_r)
C:\PROGRA~1\Cygnus\thumbelf-000512\H-i686-cygwin32\bin/../lib/gcc-lib/thumb-elf/2.9-arm-000512/../../../../thumb-elf/lib/libg.a(closer.o)
                              C:\PROGRA~1\Cygnus\thumbelf-000512\H-i686-cygwin32\bin/../lib/gcc-lib/thumb-elf/2.9-arm-000512/../../../../thumb-elf/lib/libg.a(stdio.o) (_close_r)
C:\PROGRA~1\Cygnus\thumbelf-000512\H-i686-cygwin32\bin/../lib/gcc-lib/thumb-elf/2.9-arm-000512/../../../../thumb-elf/lib/libg.a(errno.o)
                              C:\PROGRA~1\Cygnus\thumbelf-000512\H-i686-cygwin32\bin/../lib/gcc-lib/thumb-elf/2.9-arm-000512/../../../../thumb-elf/lib/libg.a(syscalls.o) (__errno)
C:\PROGRA~1\Cygnus\thumbelf-000512\H-i686-cygwin32\bin/../lib/gcc-lib/thumb-elf/2.9-arm-000512/../../../../thumb-elf/lib/libg.a(fstatr.o)
                              C:\PROGRA~1\Cygnus\thumbelf-000512\H-i686-cygwin32\bin/../lib/gcc-lib/thumb-elf/2.9-arm-000512/../../../../thumb-elf/lib/libg.a(makebuf.o) (_fstat_r)
C:\PROGRA~1\Cygnus\thumbelf-000512\H-i686-cygwin32\bin/../lib/gcc-lib/thumb-elf/2.9-arm-000512/../../../../thumb-elf/lib/libg.a(lseekr.o)
                              C:\PROGRA~1\Cygnus\thumbelf-000512\H-i686-cygwin32\bin/../lib/gcc-lib/thumb-elf/2.9-arm-000512/../../../../thumb-elf/lib/libg.a(stdio.o) (_lseek_r)
C:\PROGRA~1\Cygnus\thumbelf-000512\H-i686-cygwin32\bin/../lib/gcc-lib/thumb-elf/2.9-arm-000512/../../../../thumb-elf/lib/libg.a(readr.o)
                              C:\PROGRA~1\Cygnus\thumbelf-000512\H-i686-cygwin32\bin/../lib/gcc-lib/thumb-elf/2.9-arm-000512/../../../../thumb-elf/lib/libg.a(stdio.o) (_read_r)

Allocating common symbols
Common symbol       size              file

UsrSendBuf          0x4               cm_main.o
m4a_sound           0xfb0             Sound/bros_senyou/m4aLib.o
errno               0x4               C:\PROGRA~1\Cygnus\thumbelf-000512\H-i686-cygwin32\bin/../lib/gcc-lib/thumb-elf/2.9-arm-000512/../../../../thumb-elf/lib/libg.a(sbrkr.o)
m4a_mplay013        0x40              Sound/bros_senyou/SoundDat.o
game                0x4194            cm_main.o
m4a_mplay005        0x40              Sound/bros_senyou/SoundDat.o
BgControl           0x10              cm_main.o
m4a_mplay030        0x40              Sound/bros_senyou/SoundDat.o
IntrTableBuf        0x38              cm_main.o
m4a_mplay009        0x40              Sound/bros_senyou/SoundDat.o
m4a_mplay006        0x40              Sound/bros_senyou/SoundDat.o
m4a_mplay000        0x40              Sound/bros_senyou/SoundDat.o
ExtMPlyJmpTbl       0x90              Sound/bros_senyou/m4aLib.o
Bgcalcbf            0x500             cm_main.o
SioModeFlg          0x4               cm_main.o
SioFlags            0x4               cm_main.o
m4a_mplay014        0x40              Sound/bros_senyou/SoundDat.o
m4a_cgbchn          0x100             Sound/bros_senyou/m4aLib.o
ConnectFlg          0x4               cm_main.o
m4a_mplay031        0x40              Sound/bros_senyou/SoundDat.o
m4a_mplay007        0x40              Sound/bros_senyou/SoundDat.o
m4a_mplay001        0x40              Sound/bros_senyou/SoundDat.o
m4a_mplay002        0x40              Sound/bros_senyou/SoundDat.o
m4a_mplay010        0x40              Sound/bros_senyou/SoundDat.o
play_mode           0x4               cm_main.o
UsrRecvBuf          0x8               cm_main.o
Ms                  0xd8              m_MultiSio.o
m4a_mplay015        0x40              Sound/bros_senyou/SoundDat.o
m4a_mplay012        0x40              Sound/bros_senyou/SoundDat.o
OamBak              0x400             cm_main.o
m4a_mplay004        0x40              Sound/bros_senyou/SoundDat.o
m4a_memacc_area     0x10              Sound/bros_senyou/SoundDat.o
m4a_mplay008        0x40              Sound/bros_senyou/SoundDat.o
vs_mode             0x4               cm_main.o
m4a_mplay003        0x40              Sound/bros_senyou/SoundDat.o
ConnectAGB          0x4               cm_main.o
m4a_mplay011        0x40              Sound/bros_senyou/SoundDat.o

Memory Configuration

Name             Origin             Length             Attributes
*default*        0x00000000         0xffffffff

Linker script and memory map

LOAD crt0_child.o
LOAD ba_effect.o
LOAD ba_player.o
LOAD ba_reach.o
LOAD cm_game.o
LOAD cm_main.o
LOAD m_game_sub.o
LOAD m_battle_mult_play.o
LOAD cm_game_title.o
LOAD m_sub.o
LOAD m_scroll.o
LOAD m_bgcheck.o
LOAD m_MultiSio.o
LOAD ba_act.o
LOAD ba_bgYuKa.o
LOAD ba_bucket.o
LOAD ba_Coin.o
LOAD ba_common.o
LOAD ba_egg.o
LOAD ba_enFly.o
LOAD ba_enKani.o
LOAD ba_enmy.o
LOAD ba_enNoko.o
LOAD ba_enToge.o
LOAD ba_fire.o
LOAD ba_fishBone.o
LOAD ba_heart.o
LOAD ba_ice.o
LOAD ba_koura.o
LOAD ba_kuppa.o
LOAD ba_mutekiStar.o
LOAD ba_PipeWave.o
LOAD ba_point.o
LOAD ba_pow.o
LOAD ba_smoke.o
LOAD ba_spark.o
LOAD ba_splash.o
LOAD ba_star.o
LOAD ba_icicle.o
LOAD ba_powsmk.o
LOAD m_mini_malloc.o
LOAD d_bros_BG_scl.o
LOAD d_Bros_obj_scl.o
LOAD d_Bros_obj_winner_scl.o
LOAD d_playerA_sob.o
LOAD d_playerB_sob.o
LOAD course_data.o
LOAD Sound/bros_senyou/m4aLib.o
LOAD Sound/bros_senyou/SoundDat.o
LOAD Sound/bros_senyou/sn_g_kon.o
LOAD Sound/bros_senyou/sn_g_pisnare.o
LOAD Sound/bros_senyou/sn_g_lowcg.o
LOAD Sound/bros_senyou/sn_g_bsdrum.o
LOAD Sound/bros_senyou/sn_KEKKA0.o
LOAD Sound/bros_senyou/sn_STAGE1.o
LOAD Sound/bros_senyou/sn_STAGE2.o
LOAD Sound/bros_senyou/sn_CLEAR.o
LOAD Sound/bros_senyou/sn_KEKKA1.o
LOAD Sound/bros_senyou/sn_KEKKA2.o
LOAD Sound/bros_senyou/sn_KEKKA.o
LOAD Sound/bros_senyou/sn_KEKKA3.o
LOAD Sound/bros_senyou/sn_BATTLE_DEAD.o
LOAD Sound/bros_senyou/sn_HEART.o
LOAD Sound/bros_senyou/sn_COIN5.o
LOAD Sound/bros_senyou/sn_JUMP.o
LOAD Sound/bros_senyou/sn_SLIP.o
LOAD Sound/bros_senyou/sn_WALK_C.o
LOAD Sound/bros_senyou/sn_WALK_E.o
LOAD Sound/bros_senyou/sn_WALK_G.o
LOAD Sound/bros_senyou/sn_MR_DEAD.o
LOAD Sound/bros_senyou/sn_MR_DOWN.o
LOAD Sound/bros_senyou/sn_MR_NEXT.o
LOAD Sound/bros_senyou/sn_POW.o
LOAD Sound/bros_senyou/sn_PAUSE1UP.o
LOAD Sound/bros_senyou/sn_KAME.o
LOAD Sound/bros_senyou/sn_KANI.o
LOAD Sound/bros_senyou/sn_HAE.o
LOAD Sound/bros_senyou/sn_COIN_OUT.o
LOAD Sound/bros_senyou/sn_TEKI_ATTACK.o
LOAD Sound/bros_senyou/sn_TEKI_DEAD.o
LOAD Sound/bros_senyou/sn_DOBON.o
LOAD Sound/bros_senyou/sn_COIN_GET.o
LOAD Sound/bros_senyou/sn_FREEZER.o
LOAD Sound/bros_senyou/sn_FREEZ_DEAD.o
LOAD Sound/bros_senyou/sn_FIRE.o
LOAD Sound/bros_senyou/sn_boss_bros.o
LOAD Sound/bros_senyou/sn_star_bros.o
LOAD Sound/bros_senyou/sn_KUPPA.o
LOAD Sound/bros_senyou/sn_KUPPA_DOSIN.o
LOAD Sound/bros_senyou/sn_win1.o
LOAD Sound/bros_senyou/sn_lose1.o
LOAD Sound/bros_senyou/sn_win2.o
LOAD Sound/bros_senyou/sn_lose2.o
LOAD Sound/bros_senyou/sn_KEKKA4.o
LOAD Sound/bros_senyou/sn_battle2.o
LOAD Sound/bros_senyou/sn_battlekekka.o
LOAD Sound/bros_senyou/sn_zelda_fan.o
LOAD Sound/bros_senyou/sn_KUPPAFIRE.o
LOAD Sound/bros_senyou/sn_BAKETU.o
LOAD Sound/bros_senyou/sn_MOTI.o
LOAD Sound/bros_senyou/sn_NAGE.o
LOAD Sound/bros_senyou/sn_TAME.o
LOAD Sound/bros_senyou/sn_DAMAGE.o
LOAD Sound/bros_senyou/sn_TIBI.o
LOAD Sound/bros_senyou/sn_NORI.o
LOAD Sound/bros_senyou/sn_BUTUKARI.o
LOAD Sound/bros_senyou/sn_HEART_GET.o
LOAD Sound/bros_senyou/sn_DEKA.o
LOAD Sound/bros_senyou/sn_KAO.o
LOAD Sound/bros_senyou/sn_PUSH.o
LOAD Sound/bros_senyou/sn_KUPPA_DAMAGE.o
LOAD Sound/bros_senyou/sn_KUPPA_DEAD.o
LOAD Sound/bros_senyou/sn_SHIFT.o
LOAD Sound/bros_senyou/sn_SAVE.o
LOAD Sound/bros_senyou/sn_intro_battle.o
LOAD Sound/bros_senyou/sn_KAMEKERI1.o
LOAD Sound/bros_senyou/sn_KAMEKERI2.o
LOAD Sound/bros_senyou/sn_KAMEKERI3.o
LOAD Sound/bros_senyou/sn_KAMEKERI4.o
LOAD Sound/bros_senyou/sn_PINPON.o
LOAD Sound/bros_senyou/sn_BUU.o
LOAD Sound/bros_senyou/sn_battlekekka_intro.o
LOAD Sound/bros_senyou/sn_FIREDEAD.o
LOAD Sound/bros_senyou/sn_TURARA_DEAD.o
LOAD C:/agb/lib//libagbsyscall.a
LOAD C:/agb/lib//libisagbprn.a
LOAD C:\PROGRA~1\Cygnus\thumbelf-000512\H-i686-cygwin32\bin/../lib/gcc-lib/thumb-elf/2.9-arm-000512/libgcc.a
LOAD C:\PROGRA~1\Cygnus\thumbelf-000512\H-i686-cygwin32\bin/../lib/gcc-lib/thumb-elf/2.9-arm-000512/../../../../thumb-elf/lib/libg.a
LOAD C:\PROGRA~1\Cygnus\thumbelf-000512\H-i686-cygwin32\bin/../lib/gcc-lib/thumb-elf/2.9-arm-000512/../../../../thumb-elf/lib/libc.a
LOAD C:\PROGRA~1\Cygnus\thumbelf-000512\H-i686-cygwin32\bin/../lib/gcc-lib/thumb-elf/2.9-arm-000512/libgcc.a
Address of section .text set to 0x2005800
Address of section .bss set to 0x3000000
                0x00008000                .=0x8000

.interp
 *(.interp)

.hash
 *(.hash)

.dynsym
 *(.dynsym)

.dynstr
 *(.dynstr)

.gnu.version
 *(.gnu.version)

.gnu.version_d
 *(.gnu.version_d)

.gnu.version_r
 *(.gnu.version_r)

.rel.text
 *(.rel.text)
 *(.rel.text.*)
 *(.rel.gnu.linkonce.t*)

.rela.text
 *(.rela.text)
 *(.rela.text.*)
 *(.rela.gnu.linkonce.t*)

.rel.data
 *(.rel.data)
 *(.rel.data.*)
 *(.rel.gnu.linkonce.d*)

.rela.data
 *(.rela.data)
 *(.rela.data.*)
 *(.rela.gnu.linkonce.d*)

.rel.rodata
 *(.rel.rodata)
 *(.rel.rodata.*)
 *(.rel.gnu.linkonce.r*)

.rela.rodata
 *(.rela.rodata)
 *(.rela.rodata.*)
 *(.rela.gnu.linkonce.r*)

.rel.got
 *(.rel.got)

.rela.got
 *(.rela.got)

.rel.ctors
 *(.rel.ctors)

.rela.ctors
 *(.rela.ctors)

.rel.dtors
 *(.rel.dtors)

.rela.dtors
 *(.rela.dtors)

.rel.init
 *(.rel.init)

.rela.init
 *(.rela.init)

.rel.fini
 *(.rel.fini)

.rela.fini
 *(.rela.fini)

.rel.bss
 *(.rel.bss)

.rela.bss
 *(.rela.bss)

.rel.plt
 *(.rel.plt)

.rela.plt
 *(.rela.plt)

.init
 *(.init)

.plt
 *(.plt)

.text           0x02005800    0x2f368
 *(.text)
 .text          0x02005800       0xf0 crt0_child.o
                0x02005800                _start
                0x02005800                start_vector
                0x0200583c                intr_main
 .text          0x020058f0      0x118 ba_effect.o
                0x020058f0                effectAct_init
                0x02005974                effectAct_main
 .text          0x02005a08     0xa220 ba_player.o
                0x0200c144                DaIOamSet
                0x02005e30                SizeChange
                0x020062fc                PLEnemyHitCheck
                0x0200ef44                player_OamSet
                0x020066fc                PlayerDownCheck
                0x02008a38                player_coinGet
                0x02005ad0                MakePlayer
                0x0200f768                player_main
                0x0200eb7c                BattleLoseDisp
                0x02005a08                MoToColorReset
                0x0200eca4                PlayerCountDisp
                0x02005dac                PerfectDeletePlayer
                0x02005ef4                ShrinkInit
                0x0200cc28                WhiteOutInit
 .text          0x0200fc28      0x430 ba_reach.o
                0x0200fcc4                reach_main
                0x0200fc28                MakeReach
 .text          0x02010058      0xf84 cm_game.o
                0x02010058                multi_error
                0x02010250                SioError
                0x020103b0                cmGm_Main
 .text          0x02010fdc      0x820 cm_main.o
                0x02011028                VBlankIntr
                0x020117a8                ObjVanishAll
                0x020110f4                KeyRead
                0x02010fdc                ChildMain
 .text          0x020117fc     0x790c m_game_sub.o
                0x02013848                TotalDisp
                0x02018470                BattleGame_play_TotalScore_Win
                0x02016a14                GrayColorSet
                0x02013ad0                WinnerCoinFlashReset
                0x02013974                WinnerColorSet
                0x02014b20                TudukeruOAM
                0x02012b9c                VramInit
                0x02015480                ScoreWinCountOamset
                0x02017644                BattleGame_play_score
                0x02017020                BattleGame_play_Vscroll
                0x02017520                BattleGame_play_winMoji
                0x02014d9c                WinCountUP
                0x02014e3c                WinCountFlashSet
                0x02016b18                game_OAMSET
                0x02014948                PushStartOAM
                0x02013ffc                WinLoseFace
                0x020174ac                BattleGame_play_winFace
                0x0201873c                BrosBGCoinAnime
                0x02014c74                HajimekaraOAM
                0x020188a0                BrosBGWaterFace
                0x020189a8                PlacardOamSet
                0x02016ea0                BattleGame_play_winPLNumbarDisp
                0x02018c2c                HajimekaraRamReset
                0x02018b80                PLNumPlacard
                0x02019014                PlayerLoseFaceOamSet
                0x02017594                BattleGame_play_winWait
                0x02016d0c                BattleGame_play_main
                0x02011880                BrosPause
                0x020179c8                FillCharacter
                0x02016bf4                BattleGame_roundDisp
                0x02015354                PlayerNumberSet
                0x02011fa0                GetCoinBGWrite
                0x020182f0                BattleGame_play_TotalScore
                0x02017a1c                BattleGame_play_RoundOut
                0x02013554                RoundDispSUB
                0x020176f8                BattleGame_play_Hscroll
                0x02017fd4                BattleGame_play_WinCountUP
                0x02016d70                BattleGame_play_winInit
                0x02017868                BattleGame_play_TotalScoreWait
                0x0201577c                TotalScoreOAM
                0x02013ba8                WinnerCoinFlash
                0x020171d4                BattleGame_play_winPLNumbarOut
                0x0201427c                game_play_VscrollSUB
                0x02014380                WinnerPlayerNo
                0x02014610                ScoreBoxDraw
                0x02017e44                BattleGame_play_TotalIn
                0x02018e18                StripeCharSet
                0x020128b8                CoinWrite
                0x02018554                BattleGame_play_WinLose
                0x02013d60                WinOAMSET
                0x020147d4                game_play_scoreInitSUB
                0x02018138                BattleGame_play_TotalWait
 .text          0x02019108      0xdc4 m_battle_mult_play.o
                0x02019e88                multi_play
 .text          0x02019ecc      0x5a8 cm_game_title.o
                0x0201a444                multi_title
 .text          0x0201a474      0x52c m_sub.o
                0x0201a594                fade_out
                0x0201a4d4                fade_in
                0x0201a94c                save_pull
                0x0201a474                lcdc_off
                0x0201a7b8                m_scrollInit
                0x0201a848                m_WhiteOUT
                0x0201a8f8                save_push
                0x0201a644                RDMSUB
                0x0201a4ac                lcdc_off1
 .text          0x0201a9a0       0x9c m_scroll.o
                0x0201a9a0                scroll_set
                0x0201aa30                m_angpra
 .text          0x0201aa3c      0x234 m_bgcheck.o
                0x0201aba8                bgbuf_change2
                0x0201ab40                bgbuf_change
                0x0201aa7c                bgbuf_check2
                0x0201aa3c                bgbuf_free
 .text          0x0201ac70      0xb40 m_MultiSio.o
                0x0201b0c8                MultiSioIntr
                0x0201b454                ConnectCheck
                0x0201ac70                MultiSioInit
                0x0201b3bc                ConnectSioInit
                0x0201add0                MultiSioMain
                0x0201b4d4                ConnectSioIntr
                0x0201af7c                MultiSioRecvDataCheck
                0x0201aee8                MultiSioSendDataSet
 .text          0x0201b7b0      0x2a0 ba_act.o
                0x0201b93c                acter_main
                0x0201b850                acterInit
                0x0201b7b0                acter_init
 .text          0x0201ba50      0xd48 ba_bgYuKa.o
                0x0201c13c                bgYuKa_main
                0x0201ba50                MakeBGYuKa
 .text          0x0201c798     0x15ac ba_bucket.o
                0x0201c798                bucket_PowJump
                0x0201da30                bucket_main
                0x0201c7dc                bucket_init
 .text          0x0201dd44     0x11f4 ba_Coin.o
                0x0201df40                Coin_PowJump
                0x0201ec34                Coin_main
                0x0201edcc                MakeDemoCoin
                0x0201ecb8                MakeCoin
 .text          0x0201ef38     0x1b98 ba_common.o
                0x0201ffcc                EraseEffect
                0x0201f26c                Oam2x4LoopSet
                0x02020010                PerfectDeleteAllEffect
                0x0201fd40                EraseEnemy
                0x020200f0                FootRevision
                0x0201ef84                OamOtherSet
                0x02020598                AddScore
                0x0201f6e8                Oam3x2LoopSet
                0x0201ff30                MakeEffect
                0x020203d4                PlayerHitCHK
                0x0201fc1c                MakeEnemy
                0x0201f75c                SobDataOamSet
                0x02020a68                BGYuKaCHK
                0x0201ef38                DispXCalc
                0x020207d8                BGYuKaSearch
                0x02020094                EnmySearch
                0x0201f9e0                SizeCHGRollOamSet
                0x0201fe28                PerfectDeleteAllEnemy
                0x020201fc                BGBF_SCR_CHG
                0x0201fdbc                AllEraseEnemy
                0x020203a4                BrosEnemyMove
                0x0201f140                Oam2x2LoopSet
 .text          0x02020ad0      0x81c ba_egg.o
                0x02020ad0                MakeEgg
                0x020212c4                egg_main
 .text          0x020212ec     0x1530 ba_enFly.o
                0x02021a40                Fly_LastSet
                0x02021698                Fly_BGJump
                0x02021710                Fly_PowJump
                0x02022790                Fly_main
 .text          0x0202281c     0x17c0 ba_enKani.o
                0x020230d4                Kani_LastSet
                0x02022c6c                Kani_BGJump
                0x02023f50                Kani_main
                0x02022ce4                Kani_PowJump
 .text          0x02023fdc     0x19f4 ba_enmy.o
                0x0202409c                Enemy_Ready
                0x02025070                StageEnemy_SetInit
                0x020241d0                EnAddPoint
                0x02024e40                EnAnime_NoChange
                0x020243e8                EnEn_hitchk
                0x02024180                EnXmove
                0x020254a0                FireBall_Set
                0x02024e50                Enemy_OutCheck
                0x02024648                Enemy_PowJump
                0x02023fdc                EnReturnWait
                0x02024cbc                EnemyAnime_Kick
                0x020240dc                StageOnCheck
                0x02024244                Create_Point
                0x02024fec                DakanInCheck
                0x02025178                StageEnemy_SetMain
                0x02024720                Enemy_PLTurn
                0x02024d5c                EnDead_OamSet
                0x02024bd4                Enemy_Kick
                0x0202580c                Make_Freezer
                0x0202483c                Enemy_PLKick
                0x0202437c                Create_Splash
                0x02025388                FireBall_TimerSet
                0x02025950                Kuppa_OopsInit
                0x02025708                Icicle_TimerSet
                0x02024028                EnPosSet
 .text          0x020259d0       0x10 ba_enNoko.o
                0x020259d0                NoKoKame_main
 .text          0x020259e0     0x16d8 ba_enToge.o
                0x02026214                Togezo_LastSet
                0x02027000                Togezo_main
                0x02025e3c                Togezo_PowJump
                0x02025dbc                Togezo_BGJump
 .text          0x020270b8     0x1478 ba_fire.o
                0x020271d0                Fire_BGJump
                0x02028314                Fireball_main
                0x02027180                Fire_BreakOut
                0x0202838c                Create_Fireball
 .text          0x02028530      0x290 ba_fishBone.o
                0x02028530                MakeFishBone
                0x02028798                fishBone_main
 .text          0x020287c0      0x3f0 ba_heart.o
                0x020288fc                heart_main
                0x020287c0                MakeHeart
 .text          0x02028bb0     0x1a88 ba_ice.o
                0x0202a5b8                Ice_main
                0x02028cc0                Ice_JumpBreak
                0x02028d0c                Ice_PowBreak
 .text          0x0202a638      0xbd8 ba_koura.o
                0x0202a638                KouraInit
                0x0202b188                koura_main
                0x0202a770                MakeKoura
                0x0202a804                Koura_PowJump
 .text          0x0202b210     0x1544 ba_kuppa.o
                0x0202b344                Kuppa_BGJump
                0x0202b3d0                Kuppa_PowJump
                0x0202c1ac                Kuppa_main
                0x0202c6f4                KppFire_main
 .text          0x0202c754      0x350 ba_mutekiStar.o
                0x0202c830                mutekiStar_main
                0x0202c754                MakeMutekiStar
 .text          0x0202caa4      0x868 ba_PipeWave.o
                0x0202cf64                UnderPipeMake
                0x0202cd8c                MakePipeWave
                0x0202d2b8                PipeWave_main
 .text          0x0202d30c      0x3a4 ba_point.o
                0x0202d688                Point_main
 .text          0x0202d6b0     0x100c ba_pow.o
                0x0202d784                MakePow
                0x0202dcb4                MakeObjPow
                0x0202d6b0                ShrinkSet
                0x0202e694                pow_main
 .text          0x0202e6bc      0x198 ba_smoke.o
                0x0202e6bc                smoke_main
 .text          0x0202e854      0x7fc ba_spark.o
                0x0202f028                spark_main
                0x0202e854                MakeSpark
 .text          0x0202f050      0x300 ba_splash.o
                0x0202f328                Splash_main
 .text          0x0202f350      0x374 ba_star.o
                0x0202f350                MakeStar
                0x0202f490                star_main
 .text          0x0202f6c4      0x930 ba_icicle.o
                0x0202ff94                Icicle_main
 .text          0x0202fff4      0x3b8 ba_powsmk.o
                0x02030384                Powsmk_main
 .text          0x020303ac      0x428 m_mini_malloc.o
                0x020303ac                cMml_Init
                0x02030708                cMml_GarbageCollection
                0x02030654                cMml_Free
                0x02030468                cMml_Malloc
 .text          0x020307d4     0x2098 Sound/bros_senyou/m4aLib.o
                0x02031a9c                SoundVSyncOff_rev01
                0x0203190c                SampFreqSet_rev01
                0x020307d4                umul3232H32
                0x020316f4                MPlayExtender
                0x02031a48                SoundClear_rev01
                0x02032800                ply_xsust
                0x02031830                Clear64byte_rev
                0x020327ec                ply_xdeca
                0x02031818                MusicPlayerJumpTableCopy
                0x020327c4                ply_xtype
                0x020323a4                MPlayVolumeControl
                0x02031b9c                MPlayStart_rev01
                0x02030c0c                SoundMainBTM
                0x02032854                ply_xswee
                0x02031ae8                SoundVSyncOn_rev01
                0x0203169c                m4aMPlayFadeOut
                0x02031b24                MPlayOpen_rev01
                0x020310dc                TrackStop_rev01
                0x02031670                m4aMPlayAllContinue
                0x020327d8                ply_xatta
                0x02031dd8                MidiKey2CgbFr
                0x02032828                ply_xiecv
                0x02031604                m4aSongNumContinue
                0x0203257c                MPlayLFOSpeedSet
                0x0203142c                DummyFunc
                0x0203144c                MPlayFadeOut
                0x02031338                ply_endtie_rev01
                0x02031664                m4aMPlayContinue
                0x0203237c                MPlayTempoControl
                0x02031c90                FadeOutBody_rev01
                0x02031e80                CgbOscOff
                0x02032768                ply_xxx
                0x020313c8                MidiKey2fr
                0x020314f8                m4aSoundMain
                0x0203277c                ply_xwave
                0x02031d10                TrkVolPitSet_rev01
                0x02031504                m4aSongNumStart
                0x020313a0                ply_lfos_rev01
                0x02031430                MPlayContinue
                0x020313b4                ply_mod_rev01
                0x0203240c                MPlayPitchControl
                0x020324e8                MP_clear_modM
                0x02030e70                MPlayMain_rev01
                0x02031120                ply_note_rev01
                0x02031844                SoundInit_rev01
                0x02031530                m4aSongNumStartOrChange
                0x02032508                MPlayModDepthSet
                0x0203157c                m4aSongNumStartOrContinue
                0x02031f38                CgbSound
                0x02031c50                MPlayStop_rev01
                0x02032868                DummyFunc_rev
                0x02032748                ply_xcmd
                0x020319b0                SoundMode_rev01
                0x02032480                MPlayPanpotControl
                0x0203181c                ClearChain_rev
                0x02030e38                SoundVSync_rev01
                0x0203146c                m4aSoundInit
                0x02032834                ply_xiecl
                0x02032840                ply_xleng
                0x020316ac                m4aMPlayImmInit
                0x020325f0                ply_memacc
                0x020307e4                SoundMain
                0x02030868                SoundMainRAM
                0x02031638                m4aMPlayAllStop
                0x02031ed0                CgbModVol
                0x02030c0c                Clear64byte
                0x020315d0                m4aSongNumStop
                0x02030c74                MPlyJmpTblCopy
                0x02032814                ply_xrele
 .text          0x0203286c        0x4 C:/agb/lib//libagbsyscall.a(AgbSysCpuFastSet.o)
                0x0203286c                CpuFastSet
 .text          0x02032870        0x4 C:/agb/lib//libagbsyscall.a(AgbSysCpuSet.o)
                0x02032870                CpuSet
 .text          0x02032874        0x4 C:/agb/lib//libagbsyscall.a(AgbSysRegisterRamReset.o)
                0x02032874                RegisterRamReset
 .text          0x02032878       0x1c C:/agb/lib//libagbsyscall.a(AgbSysSoftResetRom.o)
                0x02032878                SoftResetRom
 .text          0x02032894       0x3c C:\PROGRA~1\Cygnus\thumbelf-000512\H-i686-cygwin32\bin/../lib/gcc-lib/thumb-elf/2.9-arm-000512/libgcc.a(_call_via_rX.o)
                0x0203289c                _call_via_r2
                0x020328ac                _call_via_r6
                0x020328a8                _call_via_r5
                0x020328a0                _call_via_r3
                0x020328c0                _call_via_fp
                0x020328b4                _call_via_r8
                0x020328b0                _call_via_r7
                0x02032894                _call_via_r0
                0x020328bc                _call_via_sl
                0x020328c8                _call_via_sp
                0x020328b8                _call_via_r9
                0x020328a4                _call_via_r4
                0x02032898                _call_via_r1
                0x020328c4                _call_via_ip
                0x020328cc                _call_via_lr
 .text          0x020328d0       0x94 C:\PROGRA~1\Cygnus\thumbelf-000512\H-i686-cygwin32\bin/../lib/gcc-lib/thumb-elf/2.9-arm-000512/libgcc.a(_divsi3.o)
                0x020328d0                __divsi3
 .text          0x02032964        0x4 C:\PROGRA~1\Cygnus\thumbelf-000512\H-i686-cygwin32\bin/../lib/gcc-lib/thumb-elf/2.9-arm-000512/libgcc.a(_dvmd_tls.o)
                0x02032964                __div0
 .text          0x02032968       0x78 C:\PROGRA~1\Cygnus\thumbelf-000512\H-i686-cygwin32\bin/../lib/gcc-lib/thumb-elf/2.9-arm-000512/libgcc.a(_udivsi3.o)
                0x02032968                __udivsi3
 .text          0x020329e0       0xc0 C:\PROGRA~1\Cygnus\thumbelf-000512\H-i686-cygwin32\bin/../lib/gcc-lib/thumb-elf/2.9-arm-000512/libgcc.a(_umodsi3.o)
                0x020329e0                __umodsi3
 .text          0x02032aa0       0x24 C:\PROGRA~1\Cygnus\thumbelf-000512\H-i686-cygwin32\bin/../lib/gcc-lib/thumb-elf/2.9-arm-000512/../../../../thumb-elf/lib/libg.a(assert.o)
                0x02032aa0                __assert
 .text          0x02032ac4       0x14 C:\PROGRA~1\Cygnus\thumbelf-000512\H-i686-cygwin32\bin/../lib/gcc-lib/thumb-elf/2.9-arm-000512/../../../../thumb-elf/lib/libg.a(fiprintf.o)
                0x02032ac4                fiprintf
 .text          0x02032ad8       0x28 C:\PROGRA~1\Cygnus\thumbelf-000512\H-i686-cygwin32\bin/../lib/gcc-lib/thumb-elf/2.9-arm-000512/../../../../thumb-elf/lib/libg.a(libcfunc.o)
                0x02032af8                isatty
                0x02032ad8                abort
                0x02032afc                alarm
 .text          0x02032b00       0x60 C:\PROGRA~1\Cygnus\thumbelf-000512\H-i686-cygwin32\bin/../lib/gcc-lib/thumb-elf/2.9-arm-000512/../../../../thumb-elf/lib/libg.a(memcpy.o)
                0x02032b00                memcpy
 .text          0x02032b60      0x9a4 C:\PROGRA~1\Cygnus\thumbelf-000512\H-i686-cygwin32\bin/../lib/gcc-lib/thumb-elf/2.9-arm-000512/../../../../thumb-elf/lib/libg.a(vfiprintf.o)
                0x02032bf4                vfiprintf
                0x02032c08                _vfiprintf_r
 .text          0x02033504       0xac C:\PROGRA~1\Cygnus\thumbelf-000512\H-i686-cygwin32\bin/../lib/gcc-lib/thumb-elf/2.9-arm-000512/../../../../thumb-elf/lib/libg.a(wsetup.o)
                0x02033504                __swsetup
 .text          0x020335b0       0x94 C:\PROGRA~1\Cygnus\thumbelf-000512\H-i686-cygwin32\bin/../lib/gcc-lib/thumb-elf/2.9-arm-000512/../../../../thumb-elf/lib/libg.a(fflush.o)
                0x020335b0                fflush
 .text          0x02033644      0x15c C:\PROGRA~1\Cygnus\thumbelf-000512\H-i686-cygwin32\bin/../lib/gcc-lib/thumb-elf/2.9-arm-000512/../../../../thumb-elf/lib/libg.a(findfp.o)
                0x02033740                __sinit
                0x0203367c                __sfmoreglue
                0x02033730                _cleanup
                0x02033720                _cleanup_r
                0x020336ac                __sfp
 .text          0x020337a0      0x280 C:\PROGRA~1\Cygnus\thumbelf-000512\H-i686-cygwin32\bin/../lib/gcc-lib/thumb-elf/2.9-arm-000512/../../../../thumb-elf/lib/libg.a(freer.o)
                0x020337a0                _free_r
                0x02033960                _malloc_trim_r
 .text          0x02033a20      0x22c C:\PROGRA~1\Cygnus\thumbelf-000512\H-i686-cygwin32\bin/../lib/gcc-lib/thumb-elf/2.9-arm-000512/../../../../thumb-elf/lib/libg.a(fvwrite.o)
                0x02033a20                __sfvwrite
 .text          0x02033c4c       0x40 C:\PROGRA~1\Cygnus\thumbelf-000512\H-i686-cygwin32\bin/../lib/gcc-lib/thumb-elf/2.9-arm-000512/../../../../thumb-elf/lib/libg.a(fwalk.o)
                0x02033c4c                _fwalk
 .text          0x02033c8c       0x6c C:\PROGRA~1\Cygnus\thumbelf-000512\H-i686-cygwin32\bin/../lib/gcc-lib/thumb-elf/2.9-arm-000512/../../../../thumb-elf/lib/libg.a(locale.o)
                0x02033c8c                _setlocale_r
                0x02033cc8                _localeconv_r
                0x02033cd0                setlocale
                0x02033ce8                localeconv
 .text          0x02033cf8       0xdc C:\PROGRA~1\Cygnus\thumbelf-000512\H-i686-cygwin32\bin/../lib/gcc-lib/thumb-elf/2.9-arm-000512/../../../../thumb-elf/lib/libg.a(makebuf.o)
                0x02033cf8                __smakebuf
 .text          0x02033dd4      0x51c C:\PROGRA~1\Cygnus\thumbelf-000512\H-i686-cygwin32\bin/../lib/gcc-lib/thumb-elf/2.9-arm-000512/../../../../thumb-elf/lib/libg.a(mallocr.o)
                0x02033f30                _malloc_r
 .text          0x020342f0       0x2c C:\PROGRA~1\Cygnus\thumbelf-000512\H-i686-cygwin32\bin/../lib/gcc-lib/thumb-elf/2.9-arm-000512/../../../../thumb-elf/lib/libg.a(mbtowc_r.o)
                0x020342f0                _mbtowc_r
 .text          0x0203431c       0x80 C:\PROGRA~1\Cygnus\thumbelf-000512\H-i686-cygwin32\bin/../lib/gcc-lib/thumb-elf/2.9-arm-000512/../../../../thumb-elf/lib/libg.a(memchr.o)
                0x0203431c                memchr
 .text          0x0203439c       0x88 C:\PROGRA~1\Cygnus\thumbelf-000512\H-i686-cygwin32\bin/../lib/gcc-lib/thumb-elf/2.9-arm-000512/../../../../thumb-elf/lib/libg.a(memmove.o)
                0x0203439c                memmove
 .text          0x02034424       0x54 C:\PROGRA~1\Cygnus\thumbelf-000512\H-i686-cygwin32\bin/../lib/gcc-lib/thumb-elf/2.9-arm-000512/../../../../thumb-elf/lib/libg.a(memset.o)
                0x02034424                memset
 .text          0x02034478        0x8 C:\PROGRA~1\Cygnus\thumbelf-000512\H-i686-cygwin32\bin/../lib/gcc-lib/thumb-elf/2.9-arm-000512/../../../../thumb-elf/lib/libg.a(mlock.o)
                0x0203447c                __malloc_unlock
                0x02034478                __malloc_lock
 .text          0x02034480       0x2c C:\PROGRA~1\Cygnus\thumbelf-000512\H-i686-cygwin32\bin/../lib/gcc-lib/thumb-elf/2.9-arm-000512/../../../../thumb-elf/lib/libg.a(sbrkr.o)
                0x02034480                _sbrk_r
 .text          0x020344ac       0xc4 C:\PROGRA~1\Cygnus\thumbelf-000512\H-i686-cygwin32\bin/../lib/gcc-lib/thumb-elf/2.9-arm-000512/../../../../thumb-elf/lib/libg.a(stdio.o)
                0x02034520                __sseek
                0x020344ac                __sread
                0x02034560                __sclose
                0x020344e0                __swrite
 .text          0x02034570       0x5c C:\PROGRA~1\Cygnus\thumbelf-000512\H-i686-cygwin32\bin/../lib/gcc-lib/thumb-elf/2.9-arm-000512/../../../../thumb-elf/lib/libg.a(strcmp.o)
                0x02034570                strcmp
 .text          0x020345cc       0x44 C:\PROGRA~1\Cygnus\thumbelf-000512\H-i686-cygwin32\bin/../lib/gcc-lib/thumb-elf/2.9-arm-000512/../../../../thumb-elf/lib/libg.a(strlen.o)
                0x020345cc                strlen
 .text          0x02034610      0x464 C:\PROGRA~1\Cygnus\thumbelf-000512\H-i686-cygwin32\bin/../lib/gcc-lib/thumb-elf/2.9-arm-000512/../../../../thumb-elf/lib/libg.a(syscalls.o)
                0x020349cc                _getpid
                0x0203467c                initialise_monitor_handles
                0x02034a0c                _fstat
                0x02034938                _open
                0x020349d0                _sbrk
                0x02034a20                _raise
                0x02034a50                _times
                0x0203481c                _lseek
                0x02034828                _swiwrite
                0x02034798                _swilseek
                0x0203494c                _swiclose
                0x02034898                _swiopen
                0x02034a18                _unlink
                0x0203484c                _write
                0x020349ac                _kill
                0x02034a24                _gettimeofday
                0x02034750                _read
                0x0203498c                _exit
                0x0203472c                _swiread
                0x02034980                _close
 .text          0x02034a74       0x30 C:\PROGRA~1\Cygnus\thumbelf-000512\H-i686-cygwin32\bin/../lib/gcc-lib/thumb-elf/2.9-arm-000512/../../../../thumb-elf/lib/libg.a(writer.o)
                0x02034a74                _write_r
 .text          0x02034aa4       0x2c C:\PROGRA~1\Cygnus\thumbelf-000512\H-i686-cygwin32\bin/../lib/gcc-lib/thumb-elf/2.9-arm-000512/../../../../thumb-elf/lib/libg.a(closer.o)
                0x02034aa4                _close_r
 .text          0x02034ad0        0xc C:\PROGRA~1\Cygnus\thumbelf-000512\H-i686-cygwin32\bin/../lib/gcc-lib/thumb-elf/2.9-arm-000512/../../../../thumb-elf/lib/libg.a(errno.o)
                0x02034ad0                __errno
 .text          0x02034adc       0x2c C:\PROGRA~1\Cygnus\thumbelf-000512\H-i686-cygwin32\bin/../lib/gcc-lib/thumb-elf/2.9-arm-000512/../../../../thumb-elf/lib/libg.a(fstatr.o)
                0x02034adc                _fstat_r
 .text          0x02034b08       0x30 C:\PROGRA~1\Cygnus\thumbelf-000512\H-i686-cygwin32\bin/../lib/gcc-lib/thumb-elf/2.9-arm-000512/../../../../thumb-elf/lib/libg.a(lseekr.o)
                0x02034b08                _lseek_r
 .text          0x02034b38       0x30 C:\PROGRA~1\Cygnus\thumbelf-000512\H-i686-cygwin32\bin/../lib/gcc-lib/thumb-elf/2.9-arm-000512/../../../../thumb-elf/lib/libg.a(readr.o)
                0x02034b38                _read_r
 *(.text.*)
 *(.stub)
 *(.gnu.warning)
 *(.gnu.linkonce.t*)
 *(.glue_7t)
 *(.glue_7)
                0x02034b68                _etext=.
                0x02034b68                PROVIDE (etext, .)

.fini
 *(.fini)

.rodata         0x02034b68     0x6a30
 *(.rodata)
 .rodata        0x02034b68       0x14 ba_effect.o
 .rodata        0x02034b7c      0x3e4 ba_player.o
                0x02034c1c                WalkSoundDT
                0x02034c6c                WinBitDT
                0x02034bf0                BattleDeathXposDT
                0x02034c0c                DownAnimeDT
                0x02034c12                WalkAnimeDT
                0x02034b7c                playerInitDT
                0x02034d02                POffsetDT
                0x02034c06                BigJumpAnimeDT
                0x02034c80                PLInitScchDT
                0x02034c88                CoinReachFlashDT
                0x02034c18                HandsUpWalkAnimeDT
                0x02034cf8                KamekeriSoundDT
                0x02034c15                VFlipWalkAnimeDT
                0x02034cee                KickScoreDT
                0x02034c70                PLXPosDT
                0x02034cde                MuTeKiFlashDT
                0x02034d0c                ReachPlacardData
                0x02034be0                DeathXposDT
                0x02034c00                HandUpDT
                0x02034c2c                FireDamageColDT
                0x02034cd8                DaI_data
                0x02034c4c                IceDamageColDT
 .rodata        0x02034f60       0x28 ba_reach.o
                0x02034f68                Reach_Ypos_dt
                0x02034f60                ReachPLNumDT
 .rodata        0x02034f88      0x11c cm_game.o
                0x02034f88                d_error_schDT0
                0x02034fe8                d_error_schDT1
                0x02035048                ErrChr
 .rodata        0x020350a4       0x74 cm_main.o
                0x020350a4                IntrTable
 .rodata        0x02035118      0x73c m_game_sub.o
                0x02035834                YData
                0x020356cc                HajimekaraDT
                0x020351a8                EnKeIUnitDT2
                0x02035430                WinLosechrDT
                0x02035120                MoveYuKaCHRDT2
                0x02035508                WaKuUpDT
                0x02035228                EnKeIUnitDT3
                0x02035530                WaKuOffSetDT
                0x020356b8                TudukeruDT
                0x0203546e                LoseTimeTBL
                0x02035704                OamSetPosTable
                0x020353a8                EnKeIPanelDT3
                0x02035428                BrosRedColorDT
                0x02035472                PauseDT
                0x0203547c                continueDT
                0x0203544c                KaChiDT
                0x0203574e                KattaDT
                0x02035450                MaKeDT
                0x020354d6                BtlWinCountObjPos
                0x0203545a                PlayerNoDT
                0x02035488                continuePosDT
                0x020354ac                PauseWakuObjChrDT
                0x02035128                EnKeIUnitDT1
                0x02035674                chrDT
                0x020355ac                RoundMoJiDT
                0x0203546a                WinTimeTBL
                0x02035328                EnKeIPanelDT1
                0x020354a0                restartDT
                0x02035118                MoveYuKaCHRDT1
                0x020353e8                EnKeIPanelDT4
                0x0203551c                WaKuDownDT
                0x020355f4                CoinFlashDT
                0x020355cc                TotalMoJiDT
                0x02035368                EnKeIPanelDT2
                0x0203569c                PushStartDT
                0x020356d8                HajimekaraPosDT
                0x020352a8                EnKeIUnitDT4
                0x02035808                BrosCoinDT
                0x02035462                PlayerNoLargeDT
                0x02035494                endDT
                0x02035454                HikiwakeDT
                0x02035744                FlashPlttData
                0x02035756                MaketaDT
 .rodata        0x02035854       0x30 m_battle_mult_play.o
 .rodata        0x02035884       0x40 cm_game_title.o
 .rodata        0x020358c4       0x24 m_sub.o
 .rodata        0x020358e8        0x4 m_scroll.o
 .rodata        0x020358ec       0x14 m_bgcheck.o
 .rodata        0x02035900       0x4c m_MultiSio.o
 .rodata        0x0203594c       0x68 ba_act.o
                0x02035964                RotateParam
 .rodata        0x020359b4       0xa8 ba_bgYuKa.o
                0x020359bc                bgYuKaDT
 .rodata        0x02035a5c       0x9c ba_bucket.o
                0x02035a5c                BuketAnimeMoveDT
                0x02035a74                BringItemDataTBL
 .rodata        0x02035af8      0x104 ba_Coin.o
                0x02035b50                CoinAnimeTime
                0x02035b64                CoinOamData
 .rodata        0x02035bfc       0xbc ba_common.o
                0x02035c7c                BrosScoreDT
 .rodata        0x02035cb8       0x38 ba_egg.o
                0x02035cb8                EggCoinDT
 .rodata        0x02035cf0       0xc0 ba_enFly.o
                0x02035cfc                fxspd
                0x02035d18                flyyspd
                0x02035d34                fcolor
                0x02035d58                fly_timer
                0x02035cf0                fly_grav
                0x02035d88                anitimef
                0x02035d70                fanimeDT
                0x02035d78                fanitime
 .rodata        0x02035db0       0xdc ba_enKani.o
                0x02035e08                animeDTk
                0x02035e10                HflipDTk
                0x02035e74                kkHflipDT
                0x02035e44                kanitime
                0x02035dd4                kcolor
                0x02035e14                walkChark
                0x02035e50                kanimetime
                0x02035e38                kanimeDT
                0x02035e6c                kkanimeDT
                0x02035db0                kxspd
 .rodata        0x02035e8c      0x134 ba_enmy.o
                0x02035f7c                Icicle_Ypos
                0x02035ebc                FreezerSetTableC
                0x02035f14                RedFireSetTable
                0x02035f0a                GreenFireBallSetTimer
                0x02035f74                Icicle_Xpos
                0x02035f8c                Icicle_SetTable
                0x02035f00                RedFireBallSetTimer
                0x02035f44                BattleFireSetTable
                0x02035f2c                GreenFireSetTable
                0x02035ed4                FreezeFloorTableC
 .rodata        0x02035fc0       0xa8 ba_enToge.o
                0x02035fe4                tcolor
                0x0203602c                atimet
                0x02035fc0                txspd
                0x0203601e                tanitime
                0x02036050                animeDt
                0x02036018                tanimeDT
 .rodata        0x02036068       0xd8 ba_fire.o
                0x020360f4                FireBallChrNo
                0x02036084                gfbxspd
                0x02036068                FireBallAnimeTime
                0x0203610c                FireBallFlip
                0x02036074                xps
                0x0203608c                rfbxspd
                0x0203609c                rfbyspd
 .rodata        0x02036140       0x10 ba_fishBone.o
 .rodata        0x02036150        0xc ba_heart.o
 .rodata        0x0203615c       0x7c ba_ice.o
                0x020361a0                aniTime
 .rodata        0x020361d8       0x48 ba_koura.o
                0x020361e4                KouraAnimeDT
                0x020361f0                KouraSpeedDT
                0x020361ec                KouraFlipDT
                0x02036204                KouraAnimeTime
 .rodata        0x02036220       0x6c ba_kuppa.o
                0x02036220                kpxspd
                0x02036250                animeTIME
 .rodata        0x0203628c       0x30 ba_mutekiStar.o
                0x0203628c                MutekiStarTMDT
                0x02036292                MutekiStarChrDT
 .rodata        0x020362bc       0x18 ba_PipeWave.o
 .rodata        0x020362d4       0x10 ba_point.o
 .rodata        0x020362e4       0x3c ba_pow.o
 .rodata        0x02036320       0x14 ba_smoke.o
                0x02036320                SmokeAnimeDT
 .rodata        0x02036334       0xa8 ba_spark.o
                0x02036334                speedDT
 .rodata        0x020363dc       0x28 ba_splash.o
 .rodata        0x02036404        0xc ba_star.o
 .rodata        0x02036410       0x54 ba_icicle.o
                0x0203642c                IcicleAnime
 .rodata        0x02036464       0x18 ba_powsmk.o
 .rodata        0x0203647c       0x7c m_mini_malloc.o
 .rodata        0x020364f8      0x200 d_bros_BG_scl.o
                0x020364f8                d_bros_BG_sclDT
 .rodata        0x020366f8      0x200 d_Bros_obj_scl.o
                0x020366f8                d_Bros_obj_sclDT
 .rodata        0x020368f8      0x200 d_Bros_obj_winner_scl.o
                0x020368f8                d_Bros_obj_winner_sclDT
 .rodata        0x02036af8      0x7d8 course_data.o
                0x02036c86                BrosCouseData1
                0x02036af8                CHR_DATA
                0x020370b6                BrosCouseData3
                0x02036e9e                BrosCouseData2
 .rodata        0x020372d0      0x2d8 Sound/bros_senyou/m4aLib.o
                0x02037414                FreqTable
                0x020374e0                CgbFrTable
                0x020372d0                MPlyJmpTbl
                0x02037534                Cgb3vol
                0x02037360                ScaleTable
                0x02037578                xcmd_tbl
                0x02037544                clock_tbl_rev01
                0x0203745c                CgbScTable
                0x020374f8                NoiseTable
                0x02037444                pcmVBtbl_rev
 .rodata        0x020375a8      0xa40 Sound/bros_senyou/SoundDat.o
                0x020375a8                voicegroup000
                0x02037ba8                voicegroup001
                0x02037c2c                mplay_table
                0x02037dac                song_table
 .rodata        0x02037fe8      0x70c Sound/bros_senyou/sn_g_kon.o
                0x02037fe8                sn_g_kon
 .rodata        0x020386f4      0x7c8 Sound/bros_senyou/sn_g_pisnare.o
                0x020386f4                sn_g_pisnare
 .rodata        0x02038ebc      0x700 Sound/bros_senyou/sn_g_lowcg.o
                0x02038ebc                sn_g_lowcg
 .rodata        0x020395bc      0x2f8 Sound/bros_senyou/sn_g_bsdrum.o
                0x020395bc                sn_g_bsdrum
 .rodata        0x020398b4       0x1c Sound/bros_senyou/sn_KEKKA0.o
                0x020398c4                sn_KEKKA0
 .rodata        0x020398d0       0x74 Sound/bros_senyou/sn_STAGE1.o
                0x02039934                sn_STAGE1
 .rodata        0x02039944       0x4c Sound/bros_senyou/sn_STAGE2.o
                0x02039980                sn_STAGE2
 .rodata        0x02039990       0xf0 Sound/bros_senyou/sn_CLEAR.o
                0x02039a74                sn_CLEAR
 .rodata        0x02039a80       0x1c Sound/bros_senyou/sn_KEKKA1.o
                0x02039a90                sn_KEKKA1
 .rodata        0x02039a9c       0x1c Sound/bros_senyou/sn_KEKKA2.o
                0x02039aac                sn_KEKKA2
 .rodata        0x02039ab8       0x1c Sound/bros_senyou/sn_KEKKA.o
                0x02039ac8                sn_KEKKA
 .rodata        0x02039ad4       0x1c Sound/bros_senyou/sn_KEKKA3.o
                0x02039ae4                sn_KEKKA3
 .rodata        0x02039af0       0xec Sound/bros_senyou/sn_BATTLE_DEAD.o
                0x02039bd0                sn_BATTLE_DEAD
 .rodata        0x02039bdc       0x2c Sound/bros_senyou/sn_HEART.o
                0x02039bfc                sn_HEART
 .rodata        0x02039c08       0xb0 Sound/bros_senyou/sn_COIN5.o
                0x02039cac                sn_COIN5
 .rodata        0x02039cb8       0x40 Sound/bros_senyou/sn_JUMP.o
                0x02039cec                sn_JUMP
 .rodata        0x02039cf8       0x20 Sound/bros_senyou/sn_SLIP.o
                0x02039d0c                sn_SLIP
 .rodata        0x02039d18       0x1c Sound/bros_senyou/sn_WALK_C.o
                0x02039d28                sn_WALK_C
 .rodata        0x02039d34       0x1c Sound/bros_senyou/sn_WALK_E.o
                0x02039d44                sn_WALK_E
 .rodata        0x02039d50       0x1c Sound/bros_senyou/sn_WALK_G.o
                0x02039d60                sn_WALK_G
 .rodata        0x02039d6c       0x34 Sound/bros_senyou/sn_MR_DEAD.o
                0x02039d94                sn_MR_DEAD
 .rodata        0x02039da0       0x3c Sound/bros_senyou/sn_MR_DOWN.o
                0x02039dd0                sn_MR_DOWN
 .rodata        0x02039ddc       0x64 Sound/bros_senyou/sn_MR_NEXT.o
                0x02039e34                sn_MR_NEXT
 .rodata        0x02039e40       0x40 Sound/bros_senyou/sn_POW.o
                0x02039e74                sn_POW
 .rodata        0x02039e80       0x2c Sound/bros_senyou/sn_PAUSE1UP.o
                0x02039ea0                sn_PAUSE1UP
 .rodata        0x02039eac       0x1c Sound/bros_senyou/sn_KAME.o
                0x02039ebc                sn_KAME
 .rodata        0x02039ec8       0x3c Sound/bros_senyou/sn_KANI.o
                0x02039ef8                sn_KANI
 .rodata        0x02039f04       0x6c Sound/bros_senyou/sn_HAE.o
                0x02039f64                sn_HAE
 .rodata        0x02039f70       0x50 Sound/bros_senyou/sn_COIN_OUT.o
                0x02039fb4                sn_COIN_OUT
 .rodata        0x02039fc0       0x40 Sound/bros_senyou/sn_TEKI_ATTACK.o
                0x02039ff4                sn_TEKI_ATTACK
 .rodata        0x0203a000       0x5c Sound/bros_senyou/sn_TEKI_DEAD.o
                0x0203a050                sn_TEKI_DEAD
 .rodata        0x0203a05c       0x20 Sound/bros_senyou/sn_DOBON.o
                0x0203a070                sn_DOBON
 .rodata        0x0203a07c       0x48 Sound/bros_senyou/sn_COIN_GET.o
                0x0203a0b8                sn_COIN_GET
 .rodata        0x0203a0c4       0x54 Sound/bros_senyou/sn_FREEZER.o
                0x0203a10c                sn_FREEZER
 .rodata        0x0203a118       0x70 Sound/bros_senyou/sn_FREEZ_DEAD.o
                0x0203a17c                sn_FREEZ_DEAD
 .rodata        0x0203a188       0x38 Sound/bros_senyou/sn_FIRE.o
                0x0203a1b4                sn_FIRE
 .rodata        0x0203a1c0      0x114 Sound/bros_senyou/sn_boss_bros.o
                0x0203a2c0                sn_boss_bros
 .rodata        0x0203a2d4       0xec Sound/bros_senyou/sn_star_bros.o
                0x0203a3a8                sn_star_bros
 .rodata        0x0203a3c0      0x13c Sound/bros_senyou/sn_KUPPA.o
                0x0203a4e8                sn_KUPPA
 .rodata        0x0203a4fc       0x68 Sound/bros_senyou/sn_KUPPA_DOSIN.o
                0x0203a558                sn_KUPPA_DOSIN
 .rodata        0x0203a564       0xa4 Sound/bros_senyou/sn_win1.o
                0x0203a5ec                sn_win1
 .rodata        0x0203a608       0xdc Sound/bros_senyou/sn_lose1.o
                0x0203a6cc                sn_lose1
 .rodata        0x0203a6e4       0xd4 Sound/bros_senyou/sn_win2.o
                0x0203a7a0                sn_win2
 .rodata        0x0203a7b8       0xa8 Sound/bros_senyou/sn_lose2.o
                0x0203a848                sn_lose2
 .rodata        0x0203a860       0x1c Sound/bros_senyou/sn_KEKKA4.o
                0x0203a870                sn_KEKKA4
 .rodata        0x0203a87c      0x290 Sound/bros_senyou/sn_battle2.o
                0x0203aaf0                sn_battle2
 .rodata        0x0203ab0c      0x15c Sound/bros_senyou/sn_battlekekka.o
                0x0203ac4c                sn_battlekekka
 .rodata        0x0203ac68       0x80 Sound/bros_senyou/sn_zelda_fan.o
                0x0203acd0                sn_zelda_fan
 .rodata        0x0203ace8       0x28 Sound/bros_senyou/sn_KUPPAFIRE.o
                0x0203ad04                sn_KUPPAFIRE
 .rodata        0x0203ad10       0x1c Sound/bros_senyou/sn_BAKETU.o
                0x0203ad20                sn_BAKETU
 .rodata        0x0203ad2c       0x3c Sound/bros_senyou/sn_MOTI.o
                0x0203ad5c                sn_MOTI
 .rodata        0x0203ad68       0x24 Sound/bros_senyou/sn_NAGE.o
                0x0203ad80                sn_NAGE
 .rodata        0x0203ad8c       0x28 Sound/bros_senyou/sn_TAME.o
                0x0203ada8                sn_TAME
 .rodata        0x0203adb4       0x60 Sound/bros_senyou/sn_DAMAGE.o
                0x0203ae08                sn_DAMAGE
 .rodata        0x0203ae14       0x78 Sound/bros_senyou/sn_TIBI.o
                0x0203ae80                sn_TIBI
 .rodata        0x0203ae8c       0x38 Sound/bros_senyou/sn_NORI.o
                0x0203aeb8                sn_NORI
 .rodata        0x0203aec4       0x30 Sound/bros_senyou/sn_BUTUKARI.o
                0x0203aee8                sn_BUTUKARI
 .rodata        0x0203aef4       0x20 Sound/bros_senyou/sn_HEART_GET.o
                0x0203af08                sn_HEART_GET
 .rodata        0x0203af14       0x50 Sound/bros_senyou/sn_DEKA.o
                0x0203af58                sn_DEKA
 .rodata        0x0203af64       0xb8 Sound/bros_senyou/sn_KAO.o
                0x0203b010                sn_KAO
 .rodata        0x0203b01c       0x2c Sound/bros_senyou/sn_PUSH.o
                0x0203b03c                sn_PUSH
 .rodata        0x0203b048       0x80 Sound/bros_senyou/sn_KUPPA_DAMAGE.o
                0x0203b0bc                sn_KUPPA_DAMAGE
 .rodata        0x0203b0c8       0xf4 Sound/bros_senyou/sn_KUPPA_DEAD.o
                0x0203b1b0                sn_KUPPA_DEAD
 .rodata        0x0203b1bc       0x2c Sound/bros_senyou/sn_SHIFT.o
                0x0203b1dc                sn_SHIFT
 .rodata        0x0203b1e8       0x5c Sound/bros_senyou/sn_SAVE.o
                0x0203b230                sn_SAVE
 .rodata        0x0203b244       0xd0 Sound/bros_senyou/sn_intro_battle.o
                0x0203b2fc                sn_intro_battle
 .rodata        0x0203b314       0x1c Sound/bros_senyou/sn_KAMEKERI1.o
                0x0203b324                sn_KAMEKERI1
 .rodata        0x0203b330       0x1c Sound/bros_senyou/sn_KAMEKERI2.o
                0x0203b340                sn_KAMEKERI2
 .rodata        0x0203b34c       0x1c Sound/bros_senyou/sn_KAMEKERI3.o
                0x0203b35c                sn_KAMEKERI3
 .rodata        0x0203b368       0x1c Sound/bros_senyou/sn_KAMEKERI4.o
                0x0203b378                sn_KAMEKERI4
 .rodata        0x0203b384       0x2c Sound/bros_senyou/sn_PINPON.o
                0x0203b3a4                sn_PINPON
 .rodata        0x0203b3b0       0x24 Sound/bros_senyou/sn_BUU.o
                0x0203b3c8                sn_BUU
 .rodata        0x0203b3d4       0x84 Sound/bros_senyou/sn_battlekekka_intro.o
                0x0203b444                sn_battlekekka_intro
 .rodata        0x0203b458       0x1c Sound/bros_senyou/sn_FIREDEAD.o
                0x0203b468                sn_FIREDEAD
 .rodata        0x0203b474       0x24 Sound/bros_senyou/sn_TURARA_DEAD.o
                0x0203b48c                sn_TURARA_DEAD
 .rodata        0x0203b498       0x2c C:\PROGRA~1\Cygnus\thumbelf-000512\H-i686-cygwin32\bin/../lib/gcc-lib/thumb-elf/2.9-arm-000512/../../../../thumb-elf/lib/libg.a(assert.o)
 .rodata        0x0203b4c4        0x4 C:\PROGRA~1\Cygnus\thumbelf-000512\H-i686-cygwin32\bin/../lib/gcc-lib/thumb-elf/2.9-arm-000512/../../../../thumb-elf/lib/libg.a(impure.o)
 .rodata        0x0203b4c8       0x6c C:\PROGRA~1\Cygnus\thumbelf-000512\H-i686-cygwin32\bin/../lib/gcc-lib/thumb-elf/2.9-arm-000512/../../../../thumb-elf/lib/libg.a(vfiprintf.o)
 .rodata        0x0203b534       0x3c C:\PROGRA~1\Cygnus\thumbelf-000512\H-i686-cygwin32\bin/../lib/gcc-lib/thumb-elf/2.9-arm-000512/../../../../thumb-elf/lib/libg.a(locale.o)
 .rodata        0x0203b570       0x28 C:\PROGRA~1\Cygnus\thumbelf-000512\H-i686-cygwin32\bin/../lib/gcc-lib/thumb-elf/2.9-arm-000512/../../../../thumb-elf/lib/libg.a(syscalls.o)
 *(.rodata.*)
 *(.gnu.linkonce.r*)

.rodata1
 *(.rodata1)
                0x0203b698                .=(ALIGN(0x100)+(.&0xff))

.data           0x0203b698     0x2650
 *(.data)
 .data          0x0203b698       0x40 ba_effect.o
                0x0203b6bc                effectAct_menu
                0x0203b698                effectActInitDT
 .data          0x0203b6d8      0x36c ba_player.o
                0x0203b9cc                ScoreCoinBGAddress
 .data          0x0203ba44        0xc cm_game.o
                0x0203ba44                cm_game_menu
 .data          0x0203ba50        0x8 cm_main.o
 .data          0x0203ba58       0x58 m_battle_mult_play.o
                0x0203ba58                cgame_play_menu
 .data          0x0203bab0       0x10 cm_game_title.o
                0x0203bab0                multi_title_menu
 .data          0x0203bac0       0x88 ba_act.o
                0x0203bac0                acterInitDT
                0x0203bafc                acter_menu
 .data          0x0203bb48      0x130 ba_bucket.o
                0x0203bb70                d_bucket_sob_01
                0x0203bb48                d_bucket_sob_00
                0x0203bbb8                d_bucket_sob_02
                0x0203bbe0                d_bucket_sob_03
                0x0203bc08                d_bucket_sob_04
 .data          0x0203bc78       0x38 ba_Coin.o
                0x0203bc78                Coin_menu
                0x0203bc94                Coin_anime
 .data          0x0203bcb0        0xc ba_egg.o
 .data          0x0203bcbc       0x68 ba_enFly.o
                0x0203bcbc                Fly_menu
                0x0203bcf0                Fly_anime
 .data          0x0203bd24       0x68 ba_enKani.o
                0x0203bd24                Kani_menu
                0x0203bd58                Kani_anime
 .data          0x0203bd8c       0x10 ba_enmy.o
 .data          0x0203bd9c       0x68 ba_enToge.o
                0x0203bd9c                Togezo_menu
                0x0203bdd0                Togezo_anime
 .data          0x0203be04       0x30 ba_fire.o
                0x0203be04                Fire_menu
                0x0203be1c                Fire_anime
 .data          0x0203be34        0x8 ba_fishBone.o
 .data          0x0203be3c      0x12c ba_ice.o
                0x0203bef4                IceOamTable
                0x0203be74                IceOamData_4
                0x0203be94                IceOamData_6
                0x0203be3c                IceOamData_0
                0x0203be84                IceOamData_5
                0x0203be54                IceOamData_2
                0x0203becc                IceOamData_8
                0x0203be44                IceOamData_1
                0x0203be64                IceOamData_3
                0x0203bea4                IceOamData_7
                0x0203bf40                Ice_anime
                0x0203bf18                Ice_menu
 .data          0x0203bf68       0x18 ba_koura.o
 .data          0x0203bf80      0x9d8 ba_kuppa.o
                0x0203c76c                KppFireOam_10
                0x0203c4ec                KppFireOam_8
                0x0203c5ec                KppFireOam_C
                0x0203c098                KppOamData_4
                0x0203c6e4                KppFireOam_F
                0x0203c864                KppFireOam_13
                0x0203c2bc                KppFireOam_2
                0x0203bf88                KppOamData_1
                0x0203c25c                Kuppa_anime
                0x0203c43c                KppFireOam_6
                0x0203c1e0                KppOamData_8
                0x0203c950                KppFire_menu
                0x0203c274                KppFireOam_0
                0x0203c8dc                KppFireTable
                0x0203c5ac                KppFireOam_B
                0x0203c6a4                KppFireOam_E
                0x0203c534                KppFireOam_9
                0x0203bff0                KppOamData_3
                0x0203c7bc                KppFireOam_11
                0x0203c374                KppFireOam_4
                0x0203c2ec                KppFireOam_3
                0x0203c218                KppOamTable
                0x0203c8ac                KppFireOam_14
                0x0203c1a8                KppOamData_7
                0x0203c100                KppOamData_6
                0x0203bf80                KppOamData_0
                0x0203c48c                KppFireOam_7
                0x0203c27c                KppFireOam_1
                0x0203c150                KppOamData_A
                0x0203c61c                KppFireOam_D
                0x0203c040                KppOamData_9
                0x0203c57c                KppFireOam_A
                0x0203c81c                KppFireOam_12
                0x0203bfb8                KppOamData_2
                0x0203c3b4                KppFireOam_5
                0x0203c244                Kuppa_menu
                0x0203c0c8                KppOamData_5
 .data          0x0203c958       0xec ba_PipeWave.o
 .data          0x0203ca44       0x28 ba_point.o
                0x0203ca64                Point_menu
 .data          0x0203ca6c       0x1c ba_pow.o
 .data          0x0203ca88        0x8 ba_spark.o
 .data          0x0203ca90       0xd0 ba_splash.o
                0x0203cb58                Splash_menu
 .data          0x0203cb60       0xf4 ba_icicle.o
                0x0203cba0                IcicleData_4
                0x0203cbb0                IcicleData_5
                0x0203cc3c                Icicle_menu
                0x0203cbf0                IcicleData_8
                0x0203cb90                IcicleData_3
                0x0203cb68                IcicleData_1
                0x0203cbe0                IcicleData_7
                0x0203cb60                IcicleData_0
                0x0203cbc8                IcicleData_6
                0x0203cb80                IcicleData_2
                0x0203cc18                IcicleTable
 .data          0x0203cc54       0xa4 ba_powsmk.o
                0x0203ccf0                Powsmk_menu
 .data          0x0203ccf8      0x2f0 d_playerA_sob.o
                0x0203cdc8                d_playerA_sob_0B
                0x0203cef0                d_playerA_sob_16
                0x0203cd10                d_playerA_sob_01
                0x0203ce50                d_playerA_sob_11
                0x0203cd70                d_playerA_sob_05
                0x0203cdb0                d_playerA_sob_0A
                0x0203cdf0                d_playerA_sob_0D
                0x0203cf38                d_playerA_sob_18
                0x0203cf90                d_playerA_sob_1B
                0x0203ce80                d_playerA_sob_13
                0x0203ccf8                d_playerA_sob_00
                0x0203cd88                d_playerA_sob_08
                0x0203cf60                d_playerA_sob_19
                0x0203cfc0                d_playerA_sob_1D
                0x0203ce68                d_playerA_sob_12
                0x0203ce38                d_playerA_sob_10
                0x0203cd28                d_playerA_sob_02
                0x0203cf78                d_playerA_sob_1A
                0x0203cec0                d_playerA_sob_15
                0x0203ce20                d_playerA_sob_0F
                0x0203cdd8                d_playerA_sob_0C
                0x0203ce98                d_playerA_sob_14
                0x0203cd58                d_playerA_sob_04
                0x0203cda0                d_playerA_sob_09
                0x0203cfa8                d_playerA_sob_1C
                0x0203cf10                d_playerA_sob_17
                0x0203ce08                d_playerA_sob_0E
                0x0203cd40                d_playerA_sob_03
 .data          0x0203cfe8      0x2d8 d_playerB_sob.o
                0x0203d128                d_playerB_sob_0F
                0x0203d0e0                d_playerB_sob_0C
                0x0203d018                d_playerB_sob_02
                0x0203d158                d_playerB_sob_11
                0x0203d0d0                d_playerB_sob_0B
                0x0203d298                d_playerB_sob_1C
                0x0203d280                d_playerB_sob_1B
                0x0203d1e0                d_playerB_sob_15
                0x0203d078                d_playerB_sob_06
                0x0203cfe8                d_playerB_sob_00
                0x0203d110                d_playerB_sob_0E
                0x0203d000                d_playerB_sob_01
                0x0203d090                d_playerB_sob_08
                0x0203d0a8                d_playerB_sob_09
                0x0203d1b0                d_playerB_sob_14
                0x0203d2a8                d_playerB_sob_1D
                0x0203d1f8                d_playerB_sob_16
                0x0203d220                d_playerB_sob_17
                0x0203d030                d_playerB_sob_03
                0x0203d0f8                d_playerB_sob_0D
                0x0203d170                d_playerB_sob_12
                0x0203d0b8                d_playerB_sob_0A
                0x0203d140                d_playerB_sob_10
                0x0203d268                d_playerB_sob_1A
                0x0203d188                d_playerB_sob_13
                0x0203d238                d_playerB_sob_18
                0x0203d250                d_playerB_sob_19
                0x0203d048                d_playerB_sob_04
                0x0203d060                d_playerB_sob_05
 .data          0x0203d2c0      0x2e0 course_data.o
                0x0203d4e4                MapData5
                0x0203d480                MapData0
                0x0203d4f8                MapData6
                0x0203d460                EnDtBtl_0B
                0x0203d300                EnDtBtl_00
                0x0203d380                EnDtBtl_04
                0x0203d534                MapData9
                0x0203d4d0                MapData4
                0x0203d2f0                BGCoinData
                0x0203d55c                MapDataB
                0x0203d440                EnDtBtl_0A
                0x0203d400                EnDtBtl_08
                0x0203d548                MapDataA
                0x0203d4bc                MapData3
                0x0203d2c0                BrosCourseTable
                0x0203d360                EnDtBtl_03
                0x0203d3e0                EnDtBtl_07
                0x0203d3a0                EnDtBtl_05
                0x0203d520                MapData8
                0x0203d570                MapDataTBL
                0x0203d494                MapData1
                0x0203d50c                MapData7
                0x0203d4a8                MapData2
                0x0203d420                EnDtBtl_09
                0x0203d320                EnDtBtl_01
                0x0203d340                EnDtBtl_02
                0x0203d3c0                EnDtBtl_06
 .data          0x0203d5a0      0x2f0 C:\PROGRA~1\Cygnus\thumbelf-000512\H-i686-cygwin32\bin/../lib/gcc-lib/thumb-elf/2.9-arm-000512/../../../../thumb-elf/lib/libg.a(impure.o)
                0x0203d88c                _impure_ptr
 .data          0x0203d890       0x14 C:\PROGRA~1\Cygnus\thumbelf-000512\H-i686-cygwin32\bin/../lib/gcc-lib/thumb-elf/2.9-arm-000512/../../../../thumb-elf/lib/libg.a(locale.o)
                0x0203d890                __mb_cur_max
 .data          0x0203d8a4      0x444 C:\PROGRA~1\Cygnus\thumbelf-000512\H-i686-cygwin32\bin/../lib/gcc-lib/thumb-elf/2.9-arm-000512/../../../../thumb-elf/lib/libg.a(mallocr.o)
                0x0203dcb0                __malloc_top_pad
                0x0203dcb8                __malloc_max_sbrked_mem
                0x0203dcb4                __malloc_sbrk_base
                0x0203dcc0                __malloc_current_mallinfo
                0x0203d8a4                __malloc_av_
                0x0203dcbc                __malloc_max_total_mem
                0x0203dcac                __malloc_trim_threshold
 *(.data.*)
 *(.gnu.linkonce.d*)

.data1
 *(.data1)

.ctors
 EXCLUDE_FILE ( *crtend.o )*(.ctors)
 *(SORT(.ctors.*))
 *crtend(.ctors)

.dtors
 EXCLUDE_FILE ( *crtend.o )*(.dtors)
 *(SORT(.dtors.*))
 *crtend.o(.dtors)

.got
 *(.got.plt)
 *(.got)

.dynamic
 *(.dynamic)

.sdata
 *(.sdata)
 *(.sdata.*)
                0x0203dce8                _edata=.
                0x0203dce8                PROVIDE (edata, .)
                0x0203dce8                __bss_start=.
                0x0203dce8                __bss_start__=.

.sbss
 *(.sbss)
 *(.scommon)

.bss            0x03000000     0x7184
 *(.dynbss)
 *(.bss)
 .bss           0x03000000      0xaf0 Sound/bros_senyou/SoundDat.o
 .bss           0x03000af0       0xb0 C:\PROGRA~1\Cygnus\thumbelf-000512\H-i686-cygwin32\bin/../lib/gcc-lib/thumb-elf/2.9-arm-000512/../../../../thumb-elf/lib/libg.a(syscalls.o)
 *(.bss.*)
 .bss.code      0x03000ba0      0x400 Sound/bros_senyou/m4aLib.o
                0x03000ba0                SoundMainBuf
 *(COMMON)
 COMMON         0x03000fa0     0x4b28 cm_main.o
                                  0x0 (size before relaxing)
                0x03000fa0                UsrSendBuf
                0x03000fb0                game
                0x03005150                BgControl
                0x03005160                IntrTableBuf
                0x030051a0                Bgcalcbf
                0x030056a0                SioModeFlg
                0x030056a4                SioFlags
                0x030056a8                ConnectFlg
                0x030056ac                play_mode
                0x030056b0                UsrRecvBuf
                0x030056c0                OamBak
                0x03005ac0                vs_mode
                0x03005ac4                ConnectAGB
 *fill*         0x03005ac8        0x8
 COMMON         0x03005ad0       0xd8 m_MultiSio.o
                                  0x0 (size before relaxing)
                0x03005ad0                Ms
 *fill*         0x03005ba8        0x8
 COMMON         0x03005bb0     0x1140 Sound/bros_senyou/m4aLib.o
                                  0x0 (size before relaxing)
                0x03005bb0                m4a_sound
                0x03006b60                ExtMPlyJmpTbl
                0x03006bf0                m4a_cgbchn
 COMMON         0x03006cf0      0x490 Sound/bros_senyou/SoundDat.o
                                  0x0 (size before relaxing)
                0x03006cf0                m4a_mplay013
                0x03006d30                m4a_mplay005
                0x03006d70                m4a_mplay030
                0x03006db0                m4a_mplay009
                0x03006df0                m4a_mplay006
                0x03006e30                m4a_mplay000
                0x03006e70                m4a_mplay014
                0x03006eb0                m4a_mplay031
                0x03006ef0                m4a_mplay007
                0x03006f30                m4a_mplay001
                0x03006f70                m4a_mplay002
                0x03006fb0                m4a_mplay010
                0x03006ff0                m4a_mplay015
                0x03007030                m4a_mplay012
                0x03007070                m4a_mplay004
                0x030070b0                m4a_memacc_area
                0x030070c0                m4a_mplay008
                0x03007100                m4a_mplay003
                0x03007140                m4a_mplay011
 COMMON         0x03007180        0x4 C:\PROGRA~1\Cygnus\thumbelf-000512\H-i686-cygwin32\bin/../lib/gcc-lib/thumb-elf/2.9-arm-000512/../../../../thumb-elf/lib/libg.a(sbrkr.o)
                                  0x0 (size before relaxing)
                0x03007180                errno
                0x03007184                .=ALIGN(0x4)
                0x03007184                .=ALIGN(0x4)
                0x03007184                _end=.
                0x03007184                _bss_end__=.
                0x03007184                __bss_end__=.
                0x03007184                PROVIDE (end, .)

.stab
 *(.stab)

.stabstr
 *(.stabstr)

.stab.excl
 *(.stab.excl)

.stab.exclstr
 *(.stab.exclstr)

.stab.index
 *(.stab.index)

.stab.indexstr
 *(.stab.indexstr)

.comment
 *(.comment)

.debug
 *(.debug)

.line
 *(.line)

.debug_srcinfo
 *(.debug_srcinfo)

.debug_sfnames
 *(.debug_sfnames)

.debug_aranges  0x00000000      0x8c0
 *(.debug_aranges)
 .debug_aranges
                0x00000000       0x20 ba_effect.o
 .debug_aranges
                0x00000020       0x20 ba_player.o
 .debug_aranges
                0x00000040       0x20 ba_reach.o
 .debug_aranges
                0x00000060       0x20 cm_game.o
 .debug_aranges
                0x00000080       0x20 cm_main.o
 .debug_aranges
                0x000000a0       0x20 m_game_sub.o
 .debug_aranges
                0x000000c0       0x20 m_battle_mult_play.o
 .debug_aranges
                0x000000e0       0x20 cm_game_title.o
 .debug_aranges
                0x00000100       0x20 m_sub.o
 .debug_aranges
                0x00000120       0x20 m_scroll.o
 .debug_aranges
                0x00000140       0x20 m_bgcheck.o
 .debug_aranges
                0x00000160       0x20 m_MultiSio.o
 .debug_aranges
                0x00000180       0x20 ba_act.o
 .debug_aranges
                0x000001a0       0x20 ba_bgYuKa.o
 .debug_aranges
                0x000001c0       0x20 ba_bucket.o
 .debug_aranges
                0x000001e0       0x20 ba_Coin.o
 .debug_aranges
                0x00000200       0x20 ba_common.o
 .debug_aranges
                0x00000220       0x20 ba_egg.o
 .debug_aranges
                0x00000240       0x20 ba_enFly.o
 .debug_aranges
                0x00000260       0x20 ba_enKani.o
 .debug_aranges
                0x00000280       0x20 ba_enmy.o
 .debug_aranges
                0x000002a0       0x20 ba_enNoko.o
 .debug_aranges
                0x000002c0       0x20 ba_enToge.o
 .debug_aranges
                0x000002e0       0x20 ba_fire.o
 .debug_aranges
                0x00000300       0x20 ba_fishBone.o
 .debug_aranges
                0x00000320       0x20 ba_heart.o
 .debug_aranges
                0x00000340       0x20 ba_ice.o
 .debug_aranges
                0x00000360       0x20 ba_koura.o
 .debug_aranges
                0x00000380       0x20 ba_kuppa.o
 .debug_aranges
                0x000003a0       0x20 ba_mutekiStar.o
 .debug_aranges
                0x000003c0       0x20 ba_PipeWave.o
 .debug_aranges
                0x000003e0       0x20 ba_point.o
 .debug_aranges
                0x00000400       0x20 ba_pow.o
 .debug_aranges
                0x00000420       0x20 ba_smoke.o
 .debug_aranges
                0x00000440       0x20 ba_spark.o
 .debug_aranges
                0x00000460       0x20 ba_splash.o
 .debug_aranges
                0x00000480       0x20 ba_star.o
 .debug_aranges
                0x000004a0       0x20 ba_icicle.o
 .debug_aranges
                0x000004c0       0x20 ba_powsmk.o
 .debug_aranges
                0x000004e0       0x20 m_mini_malloc.o
 .debug_aranges
                0x00000500       0x20 C:\PROGRA~1\Cygnus\thumbelf-000512\H-i686-cygwin32\bin/../lib/gcc-lib/thumb-elf/2.9-arm-000512/../../../../thumb-elf/lib/libg.a(assert.o)
 .debug_aranges
                0x00000520       0x20 C:\PROGRA~1\Cygnus\thumbelf-000512\H-i686-cygwin32\bin/../lib/gcc-lib/thumb-elf/2.9-arm-000512/../../../../thumb-elf/lib/libg.a(fiprintf.o)
 .debug_aranges
                0x00000540       0x20 C:\PROGRA~1\Cygnus\thumbelf-000512\H-i686-cygwin32\bin/../lib/gcc-lib/thumb-elf/2.9-arm-000512/../../../../thumb-elf/lib/libg.a(libcfunc.o)
 .debug_aranges
                0x00000560       0x20 C:\PROGRA~1\Cygnus\thumbelf-000512\H-i686-cygwin32\bin/../lib/gcc-lib/thumb-elf/2.9-arm-000512/../../../../thumb-elf/lib/libg.a(memcpy.o)
 .debug_aranges
                0x00000580       0x20 C:\PROGRA~1\Cygnus\thumbelf-000512\H-i686-cygwin32\bin/../lib/gcc-lib/thumb-elf/2.9-arm-000512/../../../../thumb-elf/lib/libg.a(vfiprintf.o)
 .debug_aranges
                0x000005a0       0x20 C:\PROGRA~1\Cygnus\thumbelf-000512\H-i686-cygwin32\bin/../lib/gcc-lib/thumb-elf/2.9-arm-000512/../../../../thumb-elf/lib/libg.a(wsetup.o)
 .debug_aranges
                0x000005c0       0x20 C:\PROGRA~1\Cygnus\thumbelf-000512\H-i686-cygwin32\bin/../lib/gcc-lib/thumb-elf/2.9-arm-000512/../../../../thumb-elf/lib/libg.a(fflush.o)
 .debug_aranges
                0x000005e0       0x20 C:\PROGRA~1\Cygnus\thumbelf-000512\H-i686-cygwin32\bin/../lib/gcc-lib/thumb-elf/2.9-arm-000512/../../../../thumb-elf/lib/libg.a(findfp.o)
 .debug_aranges
                0x00000600       0x20 C:\PROGRA~1\Cygnus\thumbelf-000512\H-i686-cygwin32\bin/../lib/gcc-lib/thumb-elf/2.9-arm-000512/../../../../thumb-elf/lib/libg.a(freer.o)
 .debug_aranges
                0x00000620       0x20 C:\PROGRA~1\Cygnus\thumbelf-000512\H-i686-cygwin32\bin/../lib/gcc-lib/thumb-elf/2.9-arm-000512/../../../../thumb-elf/lib/libg.a(fvwrite.o)
 .debug_aranges
                0x00000640       0x20 C:\PROGRA~1\Cygnus\thumbelf-000512\H-i686-cygwin32\bin/../lib/gcc-lib/thumb-elf/2.9-arm-000512/../../../../thumb-elf/lib/libg.a(fwalk.o)
 .debug_aranges
                0x00000660       0x20 C:\PROGRA~1\Cygnus\thumbelf-000512\H-i686-cygwin32\bin/../lib/gcc-lib/thumb-elf/2.9-arm-000512/../../../../thumb-elf/lib/libg.a(locale.o)
 .debug_aranges
                0x00000680       0x20 C:\PROGRA~1\Cygnus\thumbelf-000512\H-i686-cygwin32\bin/../lib/gcc-lib/thumb-elf/2.9-arm-000512/../../../../thumb-elf/lib/libg.a(makebuf.o)
 .debug_aranges
                0x000006a0       0x20 C:\PROGRA~1\Cygnus\thumbelf-000512\H-i686-cygwin32\bin/../lib/gcc-lib/thumb-elf/2.9-arm-000512/../../../../thumb-elf/lib/libg.a(mallocr.o)
 .debug_aranges
                0x000006c0       0x20 C:\PROGRA~1\Cygnus\thumbelf-000512\H-i686-cygwin32\bin/../lib/gcc-lib/thumb-elf/2.9-arm-000512/../../../../thumb-elf/lib/libg.a(mbtowc_r.o)
 .debug_aranges
                0x000006e0       0x20 C:\PROGRA~1\Cygnus\thumbelf-000512\H-i686-cygwin32\bin/../lib/gcc-lib/thumb-elf/2.9-arm-000512/../../../../thumb-elf/lib/libg.a(memchr.o)
 .debug_aranges
                0x00000700       0x20 C:\PROGRA~1\Cygnus\thumbelf-000512\H-i686-cygwin32\bin/../lib/gcc-lib/thumb-elf/2.9-arm-000512/../../../../thumb-elf/lib/libg.a(memmove.o)
 .debug_aranges
                0x00000720       0x20 C:\PROGRA~1\Cygnus\thumbelf-000512\H-i686-cygwin32\bin/../lib/gcc-lib/thumb-elf/2.9-arm-000512/../../../../thumb-elf/lib/libg.a(memset.o)
 .debug_aranges
                0x00000740       0x20 C:\PROGRA~1\Cygnus\thumbelf-000512\H-i686-cygwin32\bin/../lib/gcc-lib/thumb-elf/2.9-arm-000512/../../../../thumb-elf/lib/libg.a(mlock.o)
 .debug_aranges
                0x00000760       0x20 C:\PROGRA~1\Cygnus\thumbelf-000512\H-i686-cygwin32\bin/../lib/gcc-lib/thumb-elf/2.9-arm-000512/../../../../thumb-elf/lib/libg.a(sbrkr.o)
 .debug_aranges
                0x00000780       0x20 C:\PROGRA~1\Cygnus\thumbelf-000512\H-i686-cygwin32\bin/../lib/gcc-lib/thumb-elf/2.9-arm-000512/../../../../thumb-elf/lib/libg.a(stdio.o)
 .debug_aranges
                0x000007a0       0x20 C:\PROGRA~1\Cygnus\thumbelf-000512\H-i686-cygwin32\bin/../lib/gcc-lib/thumb-elf/2.9-arm-000512/../../../../thumb-elf/lib/libg.a(strcmp.o)
 .debug_aranges
                0x000007c0       0x20 C:\PROGRA~1\Cygnus\thumbelf-000512\H-i686-cygwin32\bin/../lib/gcc-lib/thumb-elf/2.9-arm-000512/../../../../thumb-elf/lib/libg.a(strlen.o)
 .debug_aranges
                0x000007e0       0x20 C:\PROGRA~1\Cygnus\thumbelf-000512\H-i686-cygwin32\bin/../lib/gcc-lib/thumb-elf/2.9-arm-000512/../../../../thumb-elf/lib/libg.a(syscalls.o)
 .debug_aranges
                0x00000800       0x20 C:\PROGRA~1\Cygnus\thumbelf-000512\H-i686-cygwin32\bin/../lib/gcc-lib/thumb-elf/2.9-arm-000512/../../../../thumb-elf/lib/libg.a(writer.o)
 .debug_aranges
                0x00000820       0x20 C:\PROGRA~1\Cygnus\thumbelf-000512\H-i686-cygwin32\bin/../lib/gcc-lib/thumb-elf/2.9-arm-000512/../../../../thumb-elf/lib/libg.a(closer.o)
 .debug_aranges
                0x00000840       0x20 C:\PROGRA~1\Cygnus\thumbelf-000512\H-i686-cygwin32\bin/../lib/gcc-lib/thumb-elf/2.9-arm-000512/../../../../thumb-elf/lib/libg.a(errno.o)
 .debug_aranges
                0x00000860       0x20 C:\PROGRA~1\Cygnus\thumbelf-000512\H-i686-cygwin32\bin/../lib/gcc-lib/thumb-elf/2.9-arm-000512/../../../../thumb-elf/lib/libg.a(fstatr.o)
 .debug_aranges
                0x00000880       0x20 C:\PROGRA~1\Cygnus\thumbelf-000512\H-i686-cygwin32\bin/../lib/gcc-lib/thumb-elf/2.9-arm-000512/../../../../thumb-elf/lib/libg.a(lseekr.o)
 .debug_aranges
                0x000008a0       0x20 C:\PROGRA~1\Cygnus\thumbelf-000512\H-i686-cygwin32\bin/../lib/gcc-lib/thumb-elf/2.9-arm-000512/../../../../thumb-elf/lib/libg.a(readr.o)

.debug_pubnames
                0x00000000     0x2e38
 *(.debug_pubnames)
 .debug_pubnames
                0x00000000       0x5f ba_effect.o
 .debug_pubnames
                0x0000005f      0x2a4 ba_player.o
 .debug_pubnames
                0x00000303       0x52 ba_reach.o
 .debug_pubnames
                0x00000355       0x7f cm_game.o
 .debug_pubnames
                0x000003d4      0x10c cm_main.o
 .debug_pubnames
                0x000004e0      0x75b m_game_sub.o
 .debug_pubnames
                0x00000c3b       0x35 m_battle_mult_play.o
 .debug_pubnames
                0x00000c70       0x37 cm_game_title.o
 .debug_pubnames
                0x00000ca7       0x8d m_sub.o
 .debug_pubnames
                0x00000d34       0x2e m_scroll.o
 .debug_pubnames
                0x00000d62       0x55 m_bgcheck.o
 .debug_pubnames
                0x00000db7       0xb5 m_MultiSio.o
 .debug_pubnames
                0x00000e6c       0x6d ba_act.o
 .debug_pubnames
                0x00000ed9       0x3e ba_bgYuKa.o
 .debug_pubnames
                0x00000f17       0xd3 ba_bucket.o
 .debug_pubnames
                0x00000fea       0x8e ba_Coin.o
 .debug_pubnames
                0x00001078      0x1a1 ba_common.o
 .debug_pubnames
                0x00001219       0x39 ba_egg.o
 .debug_pubnames
                0x00001252       0xcc ba_enFly.o
 .debug_pubnames
                0x0000131e       0xf1 ba_enKani.o
 .debug_pubnames
                0x0000140f      0x2a0 ba_enmy.o
 .debug_pubnames
                0x000016af       0x24 ba_enNoko.o
 .debug_pubnames
                0x000016d3       0xc1 ba_enToge.o
 .debug_pubnames
                0x00001794       0xdc ba_fire.o
 .debug_pubnames
                0x00001870       0x35 ba_fishBone.o
 .debug_pubnames
                0x000018a5       0x2f ba_heart.o
 .debug_pubnames
                0x000018d4      0x112 ba_ice.o
 .debug_pubnames
                0x000019e6       0x94 ba_koura.o
 .debug_pubnames
                0x00001a7a      0x2e4 ba_kuppa.o
 .debug_pubnames
                0x00001d5e       0x60 ba_mutekiStar.o
 .debug_pubnames
                0x00001dbe       0x47 ba_PipeWave.o
 .debug_pubnames
                0x00001e05       0x30 ba_point.o
 .debug_pubnames
                0x00001e35       0x48 ba_pow.o
 .debug_pubnames
                0x00001e7d       0x32 ba_smoke.o
 .debug_pubnames
                0x00001eaf       0x3b ba_spark.o
 .debug_pubnames
                0x00001eea       0x32 ba_splash.o
 .debug_pubnames
                0x00001f1c       0x2d ba_star.o
 .debug_pubnames
                0x00001f49       0xeb ba_icicle.o
 .debug_pubnames
                0x00002034       0x32 ba_powsmk.o
 .debug_pubnames
                0x00002066       0x59 m_mini_malloc.o
 .debug_pubnames
                0x000020bf       0x26 d_bros_BG_scl.o
 .debug_pubnames
                0x000020e5       0x27 d_Bros_obj_scl.o
 .debug_pubnames
                0x0000210c       0x2e d_Bros_obj_winner_scl.o
 .debug_pubnames
                0x0000213a      0x25e d_playerA_sob.o
 .debug_pubnames
                0x00002398      0x273 d_playerB_sob.o
 .debug_pubnames
                0x0000260b      0x1da course_data.o
 .debug_pubnames
                0x000027e5       0x1f C:\PROGRA~1\Cygnus\thumbelf-000512\H-i686-cygwin32\bin/../lib/gcc-lib/thumb-elf/2.9-arm-000512/../../../../thumb-elf/lib/libg.a(assert.o)
 .debug_pubnames
                0x00002804       0x1f C:\PROGRA~1\Cygnus\thumbelf-000512\H-i686-cygwin32\bin/../lib/gcc-lib/thumb-elf/2.9-arm-000512/../../../../thumb-elf/lib/libg.a(fiprintf.o)
 .debug_pubnames
                0x00002823       0x22 C:\PROGRA~1\Cygnus\thumbelf-000512\H-i686-cygwin32\bin/../lib/gcc-lib/thumb-elf/2.9-arm-000512/../../../../thumb-elf/lib/libg.a(impure.o)
 .debug_pubnames
                0x00002845       0x31 C:\PROGRA~1\Cygnus\thumbelf-000512\H-i686-cygwin32\bin/../lib/gcc-lib/thumb-elf/2.9-arm-000512/../../../../thumb-elf/lib/libg.a(libcfunc.o)
 .debug_pubnames
                0x00002876       0x1d C:\PROGRA~1\Cygnus\thumbelf-000512\H-i686-cygwin32\bin/../lib/gcc-lib/thumb-elf/2.9-arm-000512/../../../../thumb-elf/lib/libg.a(memcpy.o)
 .debug_pubnames
                0x00002893       0x31 C:\PROGRA~1\Cygnus\thumbelf-000512\H-i686-cygwin32\bin/../lib/gcc-lib/thumb-elf/2.9-arm-000512/../../../../thumb-elf/lib/libg.a(vfiprintf.o)
 .debug_pubnames
                0x000028c4       0x20 C:\PROGRA~1\Cygnus\thumbelf-000512\H-i686-cygwin32\bin/../lib/gcc-lib/thumb-elf/2.9-arm-000512/../../../../thumb-elf/lib/libg.a(wsetup.o)
 .debug_pubnames
                0x000028e4       0x1d C:\PROGRA~1\Cygnus\thumbelf-000512\H-i686-cygwin32\bin/../lib/gcc-lib/thumb-elf/2.9-arm-000512/../../../../thumb-elf/lib/libg.a(fflush.o)
 .debug_pubnames
                0x00002901       0x55 C:\PROGRA~1\Cygnus\thumbelf-000512\H-i686-cygwin32\bin/../lib/gcc-lib/thumb-elf/2.9-arm-000512/../../../../thumb-elf/lib/libg.a(findfp.o)
 .debug_pubnames
                0x00002956       0x31 C:\PROGRA~1\Cygnus\thumbelf-000512\H-i686-cygwin32\bin/../lib/gcc-lib/thumb-elf/2.9-arm-000512/../../../../thumb-elf/lib/libg.a(freer.o)
 .debug_pubnames
                0x00002987       0x21 C:\PROGRA~1\Cygnus\thumbelf-000512\H-i686-cygwin32\bin/../lib/gcc-lib/thumb-elf/2.9-arm-000512/../../../../thumb-elf/lib/libg.a(fvwrite.o)
 .debug_pubnames
                0x000029a8       0x1d C:\PROGRA~1\Cygnus\thumbelf-000512\H-i686-cygwin32\bin/../lib/gcc-lib/thumb-elf/2.9-arm-000512/../../../../thumb-elf/lib/libg.a(fwalk.o)
 .debug_pubnames
                0x000029c5       0x63 C:\PROGRA~1\Cygnus\thumbelf-000512\H-i686-cygwin32\bin/../lib/gcc-lib/thumb-elf/2.9-arm-000512/../../../../thumb-elf/lib/libg.a(locale.o)
 .debug_pubnames
                0x00002a28       0x21 C:\PROGRA~1\Cygnus\thumbelf-000512\H-i686-cygwin32\bin/../lib/gcc-lib/thumb-elf/2.9-arm-000512/../../../../thumb-elf/lib/libg.a(makebuf.o)
 .debug_pubnames
                0x00002a49       0xce C:\PROGRA~1\Cygnus\thumbelf-000512\H-i686-cygwin32\bin/../lib/gcc-lib/thumb-elf/2.9-arm-000512/../../../../thumb-elf/lib/libg.a(mallocr.o)
 .debug_pubnames
                0x00002b17       0x20 C:\PROGRA~1\Cygnus\thumbelf-000512\H-i686-cygwin32\bin/../lib/gcc-lib/thumb-elf/2.9-arm-000512/../../../../thumb-elf/lib/libg.a(mbtowc_r.o)
 .debug_pubnames
                0x00002b37       0x1d C:\PROGRA~1\Cygnus\thumbelf-000512\H-i686-cygwin32\bin/../lib/gcc-lib/thumb-elf/2.9-arm-000512/../../../../thumb-elf/lib/libg.a(memchr.o)
 .debug_pubnames
                0x00002b54       0x1e C:\PROGRA~1\Cygnus\thumbelf-000512\H-i686-cygwin32\bin/../lib/gcc-lib/thumb-elf/2.9-arm-000512/../../../../thumb-elf/lib/libg.a(memmove.o)
 .debug_pubnames
                0x00002b72       0x1d C:\PROGRA~1\Cygnus\thumbelf-000512\H-i686-cygwin32\bin/../lib/gcc-lib/thumb-elf/2.9-arm-000512/../../../../thumb-elf/lib/libg.a(memset.o)
 .debug_pubnames
                0x00002b8f       0x38 C:\PROGRA~1\Cygnus\thumbelf-000512\H-i686-cygwin32\bin/../lib/gcc-lib/thumb-elf/2.9-arm-000512/../../../../thumb-elf/lib/libg.a(mlock.o)
 .debug_pubnames
                0x00002bc7       0x28 C:\PROGRA~1\Cygnus\thumbelf-000512\H-i686-cygwin32\bin/../lib/gcc-lib/thumb-elf/2.9-arm-000512/../../../../thumb-elf/lib/libg.a(sbrkr.o)
 .debug_pubnames
                0x00002bef       0x44 C:\PROGRA~1\Cygnus\thumbelf-000512\H-i686-cygwin32\bin/../lib/gcc-lib/thumb-elf/2.9-arm-000512/../../../../thumb-elf/lib/libg.a(stdio.o)
 .debug_pubnames
                0x00002c33       0x1d C:\PROGRA~1\Cygnus\thumbelf-000512\H-i686-cygwin32\bin/../lib/gcc-lib/thumb-elf/2.9-arm-000512/../../../../thumb-elf/lib/libg.a(strcmp.o)
 .debug_pubnames
                0x00002c50       0x1d C:\PROGRA~1\Cygnus\thumbelf-000512\H-i686-cygwin32\bin/../lib/gcc-lib/thumb-elf/2.9-arm-000512/../../../../thumb-elf/lib/libg.a(strlen.o)
 .debug_pubnames
                0x00002c6d      0x113 C:\PROGRA~1\Cygnus\thumbelf-000512\H-i686-cygwin32\bin/../lib/gcc-lib/thumb-elf/2.9-arm-000512/../../../../thumb-elf/lib/libg.a(syscalls.o)
 .debug_pubnames
                0x00002d80       0x1f C:\PROGRA~1\Cygnus\thumbelf-000512\H-i686-cygwin32\bin/../lib/gcc-lib/thumb-elf/2.9-arm-000512/../../../../thumb-elf/lib/libg.a(writer.o)
 .debug_pubnames
                0x00002d9f       0x1f C:\PROGRA~1\Cygnus\thumbelf-000512\H-i686-cygwin32\bin/../lib/gcc-lib/thumb-elf/2.9-arm-000512/../../../../thumb-elf/lib/libg.a(closer.o)
 .debug_pubnames
                0x00002dbe       0x1e C:\PROGRA~1\Cygnus\thumbelf-000512\H-i686-cygwin32\bin/../lib/gcc-lib/thumb-elf/2.9-arm-000512/../../../../thumb-elf/lib/libg.a(errno.o)
 .debug_pubnames
                0x00002ddc       0x1f C:\PROGRA~1\Cygnus\thumbelf-000512\H-i686-cygwin32\bin/../lib/gcc-lib/thumb-elf/2.9-arm-000512/../../../../thumb-elf/lib/libg.a(fstatr.o)
 .debug_pubnames
                0x00002dfb       0x1f C:\PROGRA~1\Cygnus\thumbelf-000512\H-i686-cygwin32\bin/../lib/gcc-lib/thumb-elf/2.9-arm-000512/../../../../thumb-elf/lib/libg.a(lseekr.o)
 .debug_pubnames
                0x00002e1a       0x1e C:\PROGRA~1\Cygnus\thumbelf-000512\H-i686-cygwin32\bin/../lib/gcc-lib/thumb-elf/2.9-arm-000512/../../../../thumb-elf/lib/libg.a(readr.o)

.debug_info     0x00000000   0x197550
 *(.debug_info)
 .debug_info    0x00000000     0x8e93 ba_effect.o
 .debug_info    0x00008e93     0xca19 ba_player.o
 .debug_info    0x000158ac     0x8e6b ba_reach.o
 .debug_info    0x0001e717     0x900f cm_game.o
 .debug_info    0x00027726     0x90d6 cm_main.o
 .debug_info    0x000307fc     0xae62 m_game_sub.o
 .debug_info    0x0003b65e     0x9324 m_battle_mult_play.o
 .debug_info    0x00044982     0x8f20 cm_game_title.o
 .debug_info    0x0004d8a2     0x8ecc m_sub.o
 .debug_info    0x0005676e     0x8d86 m_scroll.o
 .debug_info    0x0005f4f4     0x8eee m_bgcheck.o
 .debug_info    0x000683e2     0x9066 m_MultiSio.o
 .debug_info    0x00071448     0x9b1a ba_act.o
 .debug_info    0x0007af62     0x94b0 ba_bgYuKa.o
 .debug_info    0x00084412     0x9b55 ba_bucket.o
 .debug_info    0x0008df67     0x958e ba_Coin.o
 .debug_info    0x000974f5     0x9758 ba_common.o
 .debug_info    0x000a0c4d     0x931a ba_egg.o
 .debug_info    0x000a9f67     0x96a8 ba_enFly.o
 .debug_info    0x000b360f     0x9723 ba_enKani.o
 .debug_info    0x000bcd32     0x9ed9 ba_enmy.o
 .debug_info    0x000c6c0b     0x8f9a ba_enNoko.o
 .debug_info    0x000cfba5     0x9668 ba_enToge.o
 .debug_info    0x000d920d     0x9532 ba_fire.o
 .debug_info    0x000e273f     0x8f1e ba_fishBone.o
 .debug_info    0x000eb65d     0x8f5c ba_heart.o
 .debug_info    0x000f45b9     0x9816 ba_ice.o
 .debug_info    0x000fddcf     0x958b ba_koura.o
 .debug_info    0x0010735a     0x9c3b ba_kuppa.o
 .debug_info    0x00110f95     0x8f4a ba_mutekiStar.o
 .debug_info    0x00119edf     0x923e ba_PipeWave.o
 .debug_info    0x0012311d     0x8ebd ba_point.o
 .debug_info    0x0012bfda     0x92b4 ba_pow.o
 .debug_info    0x0013528e     0x8df1 ba_smoke.o
 .debug_info    0x0013e07f     0x90e6 ba_spark.o
 .debug_info    0x00147165     0x9072 ba_splash.o
 .debug_info    0x001501d7     0x8f44 ba_star.o
 .debug_info    0x0015911b     0x9428 ba_icicle.o
 .debug_info    0x00162543     0x8f6f ba_powsmk.o
 .debug_info    0x0016b4b2      0xbb2 m_mini_malloc.o
 .debug_info    0x0016c064     0x2dc0 d_bros_BG_scl.o
 .debug_info    0x0016ee24     0x2dc2 d_Bros_obj_scl.o
 .debug_info    0x00171be6     0x2dd0 d_Bros_obj_winner_scl.o
 .debug_info    0x001749b6     0x324f d_playerA_sob.o
 .debug_info    0x00177c05     0x327b d_playerB_sob.o
 .debug_info    0x0017ae80     0x90d8 course_data.o
 .debug_info    0x00183f58      0x9b0 C:\PROGRA~1\Cygnus\thumbelf-000512\H-i686-cygwin32\bin/../lib/gcc-lib/thumb-elf/2.9-arm-000512/../../../../thumb-elf/lib/libg.a(assert.o)
 .debug_info    0x00184908      0x94a C:\PROGRA~1\Cygnus\thumbelf-000512\H-i686-cygwin32\bin/../lib/gcc-lib/thumb-elf/2.9-arm-000512/../../../../thumb-elf/lib/libg.a(fiprintf.o)
 .debug_info    0x00185252      0x90d C:\PROGRA~1\Cygnus\thumbelf-000512\H-i686-cygwin32\bin/../lib/gcc-lib/thumb-elf/2.9-arm-000512/../../../../thumb-elf/lib/libg.a(impure.o)
 .debug_info    0x00185b5f      0x1ab C:\PROGRA~1\Cygnus\thumbelf-000512\H-i686-cygwin32\bin/../lib/gcc-lib/thumb-elf/2.9-arm-000512/../../../../thumb-elf/lib/libg.a(libcfunc.o)
 .debug_info    0x00185d0a      0x24b C:\PROGRA~1\Cygnus\thumbelf-000512\H-i686-cygwin32\bin/../lib/gcc-lib/thumb-elf/2.9-arm-000512/../../../../thumb-elf/lib/libg.a(memcpy.o)
 .debug_info    0x00185f55     0x1330 C:\PROGRA~1\Cygnus\thumbelf-000512\H-i686-cygwin32\bin/../lib/gcc-lib/thumb-elf/2.9-arm-000512/../../../../thumb-elf/lib/libg.a(vfiprintf.o)
 .debug_info    0x00187285      0xb74 C:\PROGRA~1\Cygnus\thumbelf-000512\H-i686-cygwin32\bin/../lib/gcc-lib/thumb-elf/2.9-arm-000512/../../../../thumb-elf/lib/libg.a(wsetup.o)
 .debug_info    0x00187df9      0xb2b C:\PROGRA~1\Cygnus\thumbelf-000512\H-i686-cygwin32\bin/../lib/gcc-lib/thumb-elf/2.9-arm-000512/../../../../thumb-elf/lib/libg.a(fflush.o)
 .debug_info    0x00188924      0xca7 C:\PROGRA~1\Cygnus\thumbelf-000512\H-i686-cygwin32\bin/../lib/gcc-lib/thumb-elf/2.9-arm-000512/../../../../thumb-elf/lib/libg.a(findfp.o)
 .debug_info    0x001895cb      0xe2d C:\PROGRA~1\Cygnus\thumbelf-000512\H-i686-cygwin32\bin/../lib/gcc-lib/thumb-elf/2.9-arm-000512/../../../../thumb-elf/lib/libg.a(freer.o)
 .debug_info    0x0018a3f8      0xc18 C:\PROGRA~1\Cygnus\thumbelf-000512\H-i686-cygwin32\bin/../lib/gcc-lib/thumb-elf/2.9-arm-000512/../../../../thumb-elf/lib/libg.a(fvwrite.o)
 .debug_info    0x0018b010      0xbae C:\PROGRA~1\Cygnus\thumbelf-000512\H-i686-cygwin32\bin/../lib/gcc-lib/thumb-elf/2.9-arm-000512/../../../../thumb-elf/lib/libg.a(fwalk.o)
 .debug_info    0x0018bbbe      0xc33 C:\PROGRA~1\Cygnus\thumbelf-000512\H-i686-cygwin32\bin/../lib/gcc-lib/thumb-elf/2.9-arm-000512/../../../../thumb-elf/lib/libg.a(locale.o)
 .debug_info    0x0018c7f1      0xd3f C:\PROGRA~1\Cygnus\thumbelf-000512\H-i686-cygwin32\bin/../lib/gcc-lib/thumb-elf/2.9-arm-000512/../../../../thumb-elf/lib/libg.a(makebuf.o)
 .debug_info    0x0018d530      0xf56 C:\PROGRA~1\Cygnus\thumbelf-000512\H-i686-cygwin32\bin/../lib/gcc-lib/thumb-elf/2.9-arm-000512/../../../../thumb-elf/lib/libg.a(mallocr.o)
 .debug_info    0x0018e486      0xb86 C:\PROGRA~1\Cygnus\thumbelf-000512\H-i686-cygwin32\bin/../lib/gcc-lib/thumb-elf/2.9-arm-000512/../../../../thumb-elf/lib/libg.a(mbtowc_r.o)
 .debug_info    0x0018f00c      0x209 C:\PROGRA~1\Cygnus\thumbelf-000512\H-i686-cygwin32\bin/../lib/gcc-lib/thumb-elf/2.9-arm-000512/../../../../thumb-elf/lib/libg.a(memchr.o)
 .debug_info    0x0018f215      0x257 C:\PROGRA~1\Cygnus\thumbelf-000512\H-i686-cygwin32\bin/../lib/gcc-lib/thumb-elf/2.9-arm-000512/../../../../thumb-elf/lib/libg.a(memmove.o)
 .debug_info    0x0018f46c      0x20d C:\PROGRA~1\Cygnus\thumbelf-000512\H-i686-cygwin32\bin/../lib/gcc-lib/thumb-elf/2.9-arm-000512/../../../../thumb-elf/lib/libg.a(memset.o)
 .debug_info    0x0018f679      0x9d1 C:\PROGRA~1\Cygnus\thumbelf-000512\H-i686-cygwin32\bin/../lib/gcc-lib/thumb-elf/2.9-arm-000512/../../../../thumb-elf/lib/libg.a(mlock.o)
 .debug_info    0x0019004a      0xaea C:\PROGRA~1\Cygnus\thumbelf-000512\H-i686-cygwin32\bin/../lib/gcc-lib/thumb-elf/2.9-arm-000512/../../../../thumb-elf/lib/libg.a(sbrkr.o)
 .debug_info    0x00190b34      0xe8f C:\PROGRA~1\Cygnus\thumbelf-000512\H-i686-cygwin32\bin/../lib/gcc-lib/thumb-elf/2.9-arm-000512/../../../../thumb-elf/lib/libg.a(stdio.o)
 .debug_info    0x001919c3      0x1a1 C:\PROGRA~1\Cygnus\thumbelf-000512\H-i686-cygwin32\bin/../lib/gcc-lib/thumb-elf/2.9-arm-000512/../../../../thumb-elf/lib/libg.a(strcmp.o)
 .debug_info    0x00191b64      0x1ad C:\PROGRA~1\Cygnus\thumbelf-000512\H-i686-cygwin32\bin/../lib/gcc-lib/thumb-elf/2.9-arm-000512/../../../../thumb-elf/lib/libg.a(strlen.o)
 .debug_info    0x00191d11     0x1833 C:\PROGRA~1\Cygnus\thumbelf-000512\H-i686-cygwin32\bin/../lib/gcc-lib/thumb-elf/2.9-arm-000512/../../../../thumb-elf/lib/libg.a(syscalls.o)
 .debug_info    0x00193544      0xb12 C:\PROGRA~1\Cygnus\thumbelf-000512\H-i686-cygwin32\bin/../lib/gcc-lib/thumb-elf/2.9-arm-000512/../../../../thumb-elf/lib/libg.a(writer.o)
 .debug_info    0x00194056      0xadb C:\PROGRA~1\Cygnus\thumbelf-000512\H-i686-cygwin32\bin/../lib/gcc-lib/thumb-elf/2.9-arm-000512/../../../../thumb-elf/lib/libg.a(closer.o)
 .debug_info    0x00194b31      0x91b C:\PROGRA~1\Cygnus\thumbelf-000512\H-i686-cygwin32\bin/../lib/gcc-lib/thumb-elf/2.9-arm-000512/../../../../thumb-elf/lib/libg.a(errno.o)
 .debug_info    0x0019544c      0xaf0 C:\PROGRA~1\Cygnus\thumbelf-000512\H-i686-cygwin32\bin/../lib/gcc-lib/thumb-elf/2.9-arm-000512/../../../../thumb-elf/lib/libg.a(fstatr.o)
 .debug_info    0x00195f3c      0xb0b C:\PROGRA~1\Cygnus\thumbelf-000512\H-i686-cygwin32\bin/../lib/gcc-lib/thumb-elf/2.9-arm-000512/../../../../thumb-elf/lib/libg.a(lseekr.o)
 .debug_info    0x00196a47      0xb09 C:\PROGRA~1\Cygnus\thumbelf-000512\H-i686-cygwin32\bin/../lib/gcc-lib/thumb-elf/2.9-arm-000512/../../../../thumb-elf/lib/libg.a(readr.o)

.debug_abbrev   0x00000000     0x74f3
 *(.debug_abbrev)
 .debug_abbrev  0x00000000      0x1a1 ba_effect.o
 .debug_abbrev  0x000001a1      0x242 ba_player.o
 .debug_abbrev  0x000003e3      0x1b7 ba_reach.o
 .debug_abbrev  0x0000059a      0x1e8 cm_game.o
 .debug_abbrev  0x00000782      0x1df cm_main.o
 .debug_abbrev  0x00000961      0x243 m_game_sub.o
 .debug_abbrev  0x00000ba4      0x210 m_battle_mult_play.o
 .debug_abbrev  0x00000db4      0x1e9 cm_game_title.o
 .debug_abbrev  0x00000f9d      0x1bf m_sub.o
 .debug_abbrev  0x0000115c      0x17f m_scroll.o
 .debug_abbrev  0x000012db      0x1b8 m_bgcheck.o
 .debug_abbrev  0x00001493      0x213 m_MultiSio.o
 .debug_abbrev  0x000016a6      0x1b7 ba_act.o
 .debug_abbrev  0x0000185d      0x1f4 ba_bgYuKa.o
 .debug_abbrev  0x00001a51      0x216 ba_bucket.o
 .debug_abbrev  0x00001c67      0x216 ba_Coin.o
 .debug_abbrev  0x00001e7d      0x272 ba_common.o
 .debug_abbrev  0x000020ef      0x21a ba_egg.o
 .debug_abbrev  0x00002309      0x23e ba_enFly.o
 .debug_abbrev  0x00002547      0x227 ba_enKani.o
 .debug_abbrev  0x0000276e      0x21e ba_enmy.o
 .debug_abbrev  0x0000298c      0x17f ba_enNoko.o
 .debug_abbrev  0x00002b0b      0x227 ba_enToge.o
 .debug_abbrev  0x00002d32      0x240 ba_fire.o
 .debug_abbrev  0x00002f72      0x1cd ba_fishBone.o
 .debug_abbrev  0x0000313f      0x19f ba_heart.o
 .debug_abbrev  0x000032de      0x23e ba_ice.o
 .debug_abbrev  0x0000351c      0x240 ba_koura.o
 .debug_abbrev  0x0000375c      0x227 ba_kuppa.o
 .debug_abbrev  0x00003983      0x1b7 ba_mutekiStar.o
 .debug_abbrev  0x00003b3a      0x217 ba_PipeWave.o
 .debug_abbrev  0x00003d51      0x1c5 ba_point.o
 .debug_abbrev  0x00003f16      0x231 ba_pow.o
 .debug_abbrev  0x00004147      0x1b7 ba_smoke.o
 .debug_abbrev  0x000042fe      0x1cc ba_spark.o
 .debug_abbrev  0x000044ca      0x1c5 ba_splash.o
 .debug_abbrev  0x0000468f      0x19f ba_star.o
 .debug_abbrev  0x0000482e      0x221 ba_icicle.o
 .debug_abbrev  0x00004a4f      0x1c5 ba_powsmk.o
 .debug_abbrev  0x00004c14      0x158 m_mini_malloc.o
 .debug_abbrev  0x00004d6c      0x101 d_bros_BG_scl.o
 .debug_abbrev  0x00004e6d      0x101 d_Bros_obj_scl.o
 .debug_abbrev  0x00004f6e      0x101 d_Bros_obj_winner_scl.o
 .debug_abbrev  0x0000506f      0x10b d_playerA_sob.o
 .debug_abbrev  0x0000517a      0x10b d_playerB_sob.o
 .debug_abbrev  0x00005285      0x17c course_data.o
 .debug_abbrev  0x00005401       0xff C:\PROGRA~1\Cygnus\thumbelf-000512\H-i686-cygwin32\bin/../lib/gcc-lib/thumb-elf/2.9-arm-000512/../../../../thumb-elf/lib/libg.a(assert.o)
 .debug_abbrev  0x00005500      0x111 C:\PROGRA~1\Cygnus\thumbelf-000512\H-i686-cygwin32\bin/../lib/gcc-lib/thumb-elf/2.9-arm-000512/../../../../thumb-elf/lib/libg.a(fiprintf.o)
 .debug_abbrev  0x00005611       0xeb C:\PROGRA~1\Cygnus\thumbelf-000512\H-i686-cygwin32\bin/../lib/gcc-lib/thumb-elf/2.9-arm-000512/../../../../thumb-elf/lib/libg.a(impure.o)
 .debug_abbrev  0x000056fc       0xce C:\PROGRA~1\Cygnus\thumbelf-000512\H-i686-cygwin32\bin/../lib/gcc-lib/thumb-elf/2.9-arm-000512/../../../../thumb-elf/lib/libg.a(libcfunc.o)
 .debug_abbrev  0x000057ca       0x8b C:\PROGRA~1\Cygnus\thumbelf-000512\H-i686-cygwin32\bin/../lib/gcc-lib/thumb-elf/2.9-arm-000512/../../../../thumb-elf/lib/libg.a(memcpy.o)
 .debug_abbrev  0x00005855      0x1b3 C:\PROGRA~1\Cygnus\thumbelf-000512\H-i686-cygwin32\bin/../lib/gcc-lib/thumb-elf/2.9-arm-000512/../../../../thumb-elf/lib/libg.a(vfiprintf.o)
 .debug_abbrev  0x00005a08      0x117 C:\PROGRA~1\Cygnus\thumbelf-000512\H-i686-cygwin32\bin/../lib/gcc-lib/thumb-elf/2.9-arm-000512/../../../../thumb-elf/lib/libg.a(wsetup.o)
 .debug_abbrev  0x00005b1f      0x126 C:\PROGRA~1\Cygnus\thumbelf-000512\H-i686-cygwin32\bin/../lib/gcc-lib/thumb-elf/2.9-arm-000512/../../../../thumb-elf/lib/libg.a(fflush.o)
 .debug_abbrev  0x00005c45      0x170 C:\PROGRA~1\Cygnus\thumbelf-000512\H-i686-cygwin32\bin/../lib/gcc-lib/thumb-elf/2.9-arm-000512/../../../../thumb-elf/lib/libg.a(findfp.o)
 .debug_abbrev  0x00005db5      0x162 C:\PROGRA~1\Cygnus\thumbelf-000512\H-i686-cygwin32\bin/../lib/gcc-lib/thumb-elf/2.9-arm-000512/../../../../thumb-elf/lib/libg.a(freer.o)
 .debug_abbrev  0x00005f17      0x127 C:\PROGRA~1\Cygnus\thumbelf-000512\H-i686-cygwin32\bin/../lib/gcc-lib/thumb-elf/2.9-arm-000512/../../../../thumb-elf/lib/libg.a(fvwrite.o)
 .debug_abbrev  0x0000603e      0x123 C:\PROGRA~1\Cygnus\thumbelf-000512\H-i686-cygwin32\bin/../lib/gcc-lib/thumb-elf/2.9-arm-000512/../../../../thumb-elf/lib/libg.a(fwalk.o)
 .debug_abbrev  0x00006161      0x141 C:\PROGRA~1\Cygnus\thumbelf-000512\H-i686-cygwin32\bin/../lib/gcc-lib/thumb-elf/2.9-arm-000512/../../../../thumb-elf/lib/libg.a(locale.o)
 .debug_abbrev  0x000062a2      0x113 C:\PROGRA~1\Cygnus\thumbelf-000512\H-i686-cygwin32\bin/../lib/gcc-lib/thumb-elf/2.9-arm-000512/../../../../thumb-elf/lib/libg.a(makebuf.o)
 .debug_abbrev  0x000063b5      0x16d C:\PROGRA~1\Cygnus\thumbelf-000512\H-i686-cygwin32\bin/../lib/gcc-lib/thumb-elf/2.9-arm-000512/../../../../thumb-elf/lib/libg.a(mallocr.o)
 .debug_abbrev  0x00006522      0x10c C:\PROGRA~1\Cygnus\thumbelf-000512\H-i686-cygwin32\bin/../lib/gcc-lib/thumb-elf/2.9-arm-000512/../../../../thumb-elf/lib/libg.a(mbtowc_r.o)
 .debug_abbrev  0x0000662e       0x7e C:\PROGRA~1\Cygnus\thumbelf-000512\H-i686-cygwin32\bin/../lib/gcc-lib/thumb-elf/2.9-arm-000512/../../../../thumb-elf/lib/libg.a(memchr.o)
 .debug_abbrev  0x000066ac       0x8b C:\PROGRA~1\Cygnus\thumbelf-000512\H-i686-cygwin32\bin/../lib/gcc-lib/thumb-elf/2.9-arm-000512/../../../../thumb-elf/lib/libg.a(memmove.o)
 .debug_abbrev  0x00006737       0x7f C:\PROGRA~1\Cygnus\thumbelf-000512\H-i686-cygwin32\bin/../lib/gcc-lib/thumb-elf/2.9-arm-000512/../../../../thumb-elf/lib/libg.a(memset.o)
 .debug_abbrev  0x000067b6       0xec C:\PROGRA~1\Cygnus\thumbelf-000512\H-i686-cygwin32\bin/../lib/gcc-lib/thumb-elf/2.9-arm-000512/../../../../thumb-elf/lib/libg.a(mlock.o)
 .debug_abbrev  0x000068a2      0x126 C:\PROGRA~1\Cygnus\thumbelf-000512\H-i686-cygwin32\bin/../lib/gcc-lib/thumb-elf/2.9-arm-000512/../../../../thumb-elf/lib/libg.a(sbrkr.o)
 .debug_abbrev  0x000069c8      0x122 C:\PROGRA~1\Cygnus\thumbelf-000512\H-i686-cygwin32\bin/../lib/gcc-lib/thumb-elf/2.9-arm-000512/../../../../thumb-elf/lib/libg.a(stdio.o)
 .debug_abbrev  0x00006aea       0x72 C:\PROGRA~1\Cygnus\thumbelf-000512\H-i686-cygwin32\bin/../lib/gcc-lib/thumb-elf/2.9-arm-000512/../../../../thumb-elf/lib/libg.a(strcmp.o)
 .debug_abbrev  0x00006b5c       0x72 C:\PROGRA~1\Cygnus\thumbelf-000512\H-i686-cygwin32\bin/../lib/gcc-lib/thumb-elf/2.9-arm-000512/../../../../thumb-elf/lib/libg.a(strlen.o)
 .debug_abbrev  0x00006bce      0x269 C:\PROGRA~1\Cygnus\thumbelf-000512\H-i686-cygwin32\bin/../lib/gcc-lib/thumb-elf/2.9-arm-000512/../../../../thumb-elf/lib/libg.a(syscalls.o)
 .debug_abbrev  0x00006e37      0x12b C:\PROGRA~1\Cygnus\thumbelf-000512\H-i686-cygwin32\bin/../lib/gcc-lib/thumb-elf/2.9-arm-000512/../../../../thumb-elf/lib/libg.a(writer.o)
 .debug_abbrev  0x00006f62      0x126 C:\PROGRA~1\Cygnus\thumbelf-000512\H-i686-cygwin32\bin/../lib/gcc-lib/thumb-elf/2.9-arm-000512/../../../../thumb-elf/lib/libg.a(closer.o)
 .debug_abbrev  0x00007088       0xf9 C:\PROGRA~1\Cygnus\thumbelf-000512\H-i686-cygwin32\bin/../lib/gcc-lib/thumb-elf/2.9-arm-000512/../../../../thumb-elf/lib/libg.a(errno.o)
 .debug_abbrev  0x00007181      0x126 C:\PROGRA~1\Cygnus\thumbelf-000512\H-i686-cygwin32\bin/../lib/gcc-lib/thumb-elf/2.9-arm-000512/../../../../thumb-elf/lib/libg.a(fstatr.o)
 .debug_abbrev  0x000072a7      0x126 C:\PROGRA~1\Cygnus\thumbelf-000512\H-i686-cygwin32\bin/../lib/gcc-lib/thumb-elf/2.9-arm-000512/../../../../thumb-elf/lib/libg.a(lseekr.o)
 .debug_abbrev  0x000073cd      0x126 C:\PROGRA~1\Cygnus\thumbelf-000512\H-i686-cygwin32\bin/../lib/gcc-lib/thumb-elf/2.9-arm-000512/../../../../thumb-elf/lib/libg.a(readr.o)

.debug_line     0x00000000    0x22152
 *(.debug_line)
 .debug_line    0x00000000      0x278 ba_effect.o
 .debug_line    0x00000278     0x59b0 ba_player.o
 .debug_line    0x00005c28      0x3fe ba_reach.o
 .debug_line    0x00006026      0x876 cm_game.o
 .debug_line    0x0000689c      0x4a4 cm_main.o
 .debug_line    0x00006d40     0x3367 m_game_sub.o
 .debug_line    0x0000a0a7      0x757 m_battle_mult_play.o
 .debug_line    0x0000a7fe      0x40e cm_game_title.o
 .debug_line    0x0000ac0c      0x3e0 m_sub.o
 .debug_line    0x0000afec      0x209 m_scroll.o
 .debug_line    0x0000b1f5      0x31a m_bgcheck.o
 .debug_line    0x0000b50f      0x73d m_MultiSio.o
 .debug_line    0x0000bc4c      0x3fa ba_act.o
 .debug_line    0x0000c046      0x841 ba_bgYuKa.o
 .debug_line    0x0000c887      0xe91 ba_bucket.o
 .debug_line    0x0000d718      0xc5e ba_Coin.o
 .debug_line    0x0000e376      0xe5e ba_common.o
 .debug_line    0x0000f1d4      0x6e5 ba_egg.o
 .debug_line    0x0000f8b9      0xe40 ba_enFly.o
 .debug_line    0x000106f9      0xf42 ba_enKani.o
 .debug_line    0x0001163b     0x11f4 ba_enmy.o
 .debug_line    0x0001282f      0x1fa ba_enNoko.o
 .debug_line    0x00012a29      0xef2 ba_enToge.o
 .debug_line    0x0001391b      0xc35 ba_fire.o
 .debug_line    0x00014550      0x35d ba_fishBone.o
 .debug_line    0x000148ad      0x4a3 ba_heart.o
 .debug_line    0x00014d50      0xf23 ba_ice.o
 .debug_line    0x00015c73      0x971 ba_koura.o
 .debug_line    0x000165e4      0xcce ba_kuppa.o
 .debug_line    0x000172b2      0x371 ba_mutekiStar.o
 .debug_line    0x00017623      0x63d ba_PipeWave.o
 .debug_line    0x00017c60      0x379 ba_point.o
 .debug_line    0x00017fd9      0x975 ba_pow.o
 .debug_line    0x0001894e      0x271 ba_smoke.o
 .debug_line    0x00018bbf      0x581 ba_spark.o
 .debug_line    0x00019140      0x2ea ba_splash.o
 .debug_line    0x0001942a      0x451 ba_star.o
 .debug_line    0x0001987b      0x6c6 ba_icicle.o
 .debug_line    0x00019f41      0x34a ba_powsmk.o
 .debug_line    0x0001a28b      0x635 m_mini_malloc.o
 .debug_line    0x0001a8c0      0x33c C:\PROGRA~1\Cygnus\thumbelf-000512\H-i686-cygwin32\bin/../lib/gcc-lib/thumb-elf/2.9-arm-000512/../../../../thumb-elf/lib/libg.a(assert.o)
 .debug_line    0x0001abfc      0x2e9 C:\PROGRA~1\Cygnus\thumbelf-000512\H-i686-cygwin32\bin/../lib/gcc-lib/thumb-elf/2.9-arm-000512/../../../../thumb-elf/lib/libg.a(fiprintf.o)
 .debug_line    0x0001aee5       0xe3 C:\PROGRA~1\Cygnus\thumbelf-000512\H-i686-cygwin32\bin/../lib/gcc-lib/thumb-elf/2.9-arm-000512/../../../../thumb-elf/lib/libg.a(libcfunc.o)
 .debug_line    0x0001afc8      0x1e5 C:\PROGRA~1\Cygnus\thumbelf-000512\H-i686-cygwin32\bin/../lib/gcc-lib/thumb-elf/2.9-arm-000512/../../../../thumb-elf/lib/libg.a(memcpy.o)
 .debug_line    0x0001b1ad      0xb33 C:\PROGRA~1\Cygnus\thumbelf-000512\H-i686-cygwin32\bin/../lib/gcc-lib/thumb-elf/2.9-arm-000512/../../../../thumb-elf/lib/libg.a(vfiprintf.o)
 .debug_line    0x0001bce0      0x482 C:\PROGRA~1\Cygnus\thumbelf-000512\H-i686-cygwin32\bin/../lib/gcc-lib/thumb-elf/2.9-arm-000512/../../../../thumb-elf/lib/libg.a(wsetup.o)
 .debug_line    0x0001c162      0x41e C:\PROGRA~1\Cygnus\thumbelf-000512\H-i686-cygwin32\bin/../lib/gcc-lib/thumb-elf/2.9-arm-000512/../../../../thumb-elf/lib/libg.a(fflush.o)
 .debug_line    0x0001c580      0x612 C:\PROGRA~1\Cygnus\thumbelf-000512\H-i686-cygwin32\bin/../lib/gcc-lib/thumb-elf/2.9-arm-000512/../../../../thumb-elf/lib/libg.a(findfp.o)
 .debug_line    0x0001cb92      0x596 C:\PROGRA~1\Cygnus\thumbelf-000512\H-i686-cygwin32\bin/../lib/gcc-lib/thumb-elf/2.9-arm-000512/../../../../thumb-elf/lib/libg.a(freer.o)
 .debug_line    0x0001d128      0x61a C:\PROGRA~1\Cygnus\thumbelf-000512\H-i686-cygwin32\bin/../lib/gcc-lib/thumb-elf/2.9-arm-000512/../../../../thumb-elf/lib/libg.a(fvwrite.o)
 .debug_line    0x0001d742      0x431 C:\PROGRA~1\Cygnus\thumbelf-000512\H-i686-cygwin32\bin/../lib/gcc-lib/thumb-elf/2.9-arm-000512/../../../../thumb-elf/lib/libg.a(fwalk.o)
 .debug_line    0x0001db73      0x34a C:\PROGRA~1\Cygnus\thumbelf-000512\H-i686-cygwin32\bin/../lib/gcc-lib/thumb-elf/2.9-arm-000512/../../../../thumb-elf/lib/libg.a(locale.o)
 .debug_line    0x0001debd      0x511 C:\PROGRA~1\Cygnus\thumbelf-000512\H-i686-cygwin32\bin/../lib/gcc-lib/thumb-elf/2.9-arm-000512/../../../../thumb-elf/lib/libg.a(makebuf.o)
 .debug_line    0x0001e3ce      0x84c C:\PROGRA~1\Cygnus\thumbelf-000512\H-i686-cygwin32\bin/../lib/gcc-lib/thumb-elf/2.9-arm-000512/../../../../thumb-elf/lib/libg.a(mallocr.o)
 .debug_line    0x0001ec1a      0x310 C:\PROGRA~1\Cygnus\thumbelf-000512\H-i686-cygwin32\bin/../lib/gcc-lib/thumb-elf/2.9-arm-000512/../../../../thumb-elf/lib/libg.a(mbtowc_r.o)
 .debug_line    0x0001ef2a      0x22d C:\PROGRA~1\Cygnus\thumbelf-000512\H-i686-cygwin32\bin/../lib/gcc-lib/thumb-elf/2.9-arm-000512/../../../../thumb-elf/lib/libg.a(memchr.o)
 .debug_line    0x0001f157      0x226 C:\PROGRA~1\Cygnus\thumbelf-000512\H-i686-cygwin32\bin/../lib/gcc-lib/thumb-elf/2.9-arm-000512/../../../../thumb-elf/lib/libg.a(memmove.o)
 .debug_line    0x0001f37d      0x20d C:\PROGRA~1\Cygnus\thumbelf-000512\H-i686-cygwin32\bin/../lib/gcc-lib/thumb-elf/2.9-arm-000512/../../../../thumb-elf/lib/libg.a(memset.o)
 .debug_line    0x0001f58a      0x279 C:\PROGRA~1\Cygnus\thumbelf-000512\H-i686-cygwin32\bin/../lib/gcc-lib/thumb-elf/2.9-arm-000512/../../../../thumb-elf/lib/libg.a(mlock.o)
 .debug_line    0x0001f803      0x2f3 C:\PROGRA~1\Cygnus\thumbelf-000512\H-i686-cygwin32\bin/../lib/gcc-lib/thumb-elf/2.9-arm-000512/../../../../thumb-elf/lib/libg.a(sbrkr.o)
 .debug_line    0x0001faf6      0x51a C:\PROGRA~1\Cygnus\thumbelf-000512\H-i686-cygwin32\bin/../lib/gcc-lib/thumb-elf/2.9-arm-000512/../../../../thumb-elf/lib/libg.a(stdio.o)
 .debug_line    0x00020010      0x1bd C:\PROGRA~1\Cygnus\thumbelf-000512\H-i686-cygwin32\bin/../lib/gcc-lib/thumb-elf/2.9-arm-000512/../../../../thumb-elf/lib/libg.a(strcmp.o)
 .debug_line    0x000201cd      0x19d C:\PROGRA~1\Cygnus\thumbelf-000512\H-i686-cygwin32\bin/../lib/gcc-lib/thumb-elf/2.9-arm-000512/../../../../thumb-elf/lib/libg.a(strlen.o)
 .debug_line    0x0002036a      0xcb1 C:\PROGRA~1\Cygnus\thumbelf-000512\H-i686-cygwin32\bin/../lib/gcc-lib/thumb-elf/2.9-arm-000512/../../../../thumb-elf/lib/libg.a(syscalls.o)
 .debug_line    0x0002101b      0x2f4 C:\PROGRA~1\Cygnus\thumbelf-000512\H-i686-cygwin32\bin/../lib/gcc-lib/thumb-elf/2.9-arm-000512/../../../../thumb-elf/lib/libg.a(writer.o)
 .debug_line    0x0002130f      0x2f4 C:\PROGRA~1\Cygnus\thumbelf-000512\H-i686-cygwin32\bin/../lib/gcc-lib/thumb-elf/2.9-arm-000512/../../../../thumb-elf/lib/libg.a(closer.o)
 .debug_line    0x00021603      0x274 C:\PROGRA~1\Cygnus\thumbelf-000512\H-i686-cygwin32\bin/../lib/gcc-lib/thumb-elf/2.9-arm-000512/../../../../thumb-elf/lib/libg.a(errno.o)
 .debug_line    0x00021877      0x2f4 C:\PROGRA~1\Cygnus\thumbelf-000512\H-i686-cygwin32\bin/../lib/gcc-lib/thumb-elf/2.9-arm-000512/../../../../thumb-elf/lib/libg.a(fstatr.o)
 .debug_line    0x00021b6b      0x2f4 C:\PROGRA~1\Cygnus\thumbelf-000512\H-i686-cygwin32\bin/../lib/gcc-lib/thumb-elf/2.9-arm-000512/../../../../thumb-elf/lib/libg.a(lseekr.o)
 .debug_line    0x00021e5f      0x2f3 C:\PROGRA~1\Cygnus\thumbelf-000512\H-i686-cygwin32\bin/../lib/gcc-lib/thumb-elf/2.9-arm-000512/../../../../thumb-elf/lib/libg.a(readr.o)

.debug_frame
 *(.debug_frame)

.debug_str
 *(.debug_str)

.debug_loc
 *(.debug_loc)

.debug_macinfo
 *(.debug_macinfo)

.debug_weaknames
 *(.debug_weaknames)

.debug_funcnames
 *(.debug_funcnames)

.debug_typenames
 *(.debug_typenames)

.debug_varnames
 *(.debug_varnames)

.stack          0x00080000        0x0
                0x00080000                _stack=.
 *(.stack)
OUTPUT(vs.elf elf32-littlearm)
@


1.1
log
@Initial revision
@
text
@d365 1
a365 1
.text           0x02005800    0x2f708
d374 1
a374 1
 .text          0x02005a08     0xa298 ba_player.o
d378 1
a378 1
                0x0200efbc                player_OamSet
d382 2
a383 2
                0x0200f7e0                player_main
                0x0200ebf4                BattleLoseDisp
d385 1
a385 1
                0x0200ed1c                PlayerCountDisp
d389 435
a823 435
 .text          0x0200fca0      0x504 ba_reach.o
                0x0200fd3c                reach_main
                0x0200fca0                MakeReach
 .text          0x020101a4      0xf84 cm_game.o
                0x020101a4                multi_error
                0x0201039c                SioError
                0x020104fc                cmGm_Main
 .text          0x02011128      0x820 cm_main.o
                0x02011174                VBlankIntr
                0x020118f4                ObjVanishAll
                0x02011240                KeyRead
                0x02011128                ChildMain
 .text          0x02011948     0x7b60 m_game_sub.o
                0x0201394c                TotalDisp
                0x02018810                BattleGame_play_TotalScore_Win
                0x02016db4                GrayColorSet
                0x02013bcc                WinnerCoinFlashReset
                0x02013a70                WinnerColorSet
                0x02014c68                TudukeruOAM
                0x02012ca0                VramInit
                0x020155a8                ScoreWinCountOamset
                0x020179e4                BattleGame_play_score
                0x020173c0                BattleGame_play_Vscroll
                0x020178c0                BattleGame_play_winMoji
                0x02014ec4                WinCountUP
                0x02014f64                WinCountFlashSet
                0x02016eb8                game_OAMSET
                0x02014acc                PushStartOAM
                0x02014180                WinLoseFace
                0x0201784c                BattleGame_play_winFace
                0x02018adc                BrosBGCoinAnime
                0x02014dbc                HajimekaraOAM
                0x02018c40                BrosBGWaterFace
                0x02018d48                PlacardOamSet
                0x02017240                BattleGame_play_winPLNumbarDisp
                0x02018fcc                HajimekaraRamReset
                0x02018f20                PLNumPlacard
                0x020193b4                PlayerLoseFaceOamSet
                0x02017934                BattleGame_play_winWait
                0x020170ac                BattleGame_play_main
                0x020119cc                BrosPause
                0x02017d68                FillCharacter
                0x02016f94                BattleGame_roundDisp
                0x0201547c                PlayerNumberSet
                0x020120a4                GetCoinBGWrite
                0x02018690                BattleGame_play_TotalScore
                0x02017dbc                BattleGame_play_RoundOut
                0x02013658                RoundDispSUB
                0x02017a98                BattleGame_play_Hscroll
                0x02018374                BattleGame_play_WinCountUP
                0x02017110                BattleGame_play_winInit
                0x02017c08                BattleGame_play_TotalScoreWait
                0x020158a4                TotalScoreOAM
                0x02013ca4                WinnerCoinFlash
                0x02017574                BattleGame_play_winPLNumbarOut
                0x02014400                game_play_VscrollSUB
                0x02014504                WinnerPlayerNo
                0x02014794                ScoreBoxDraw
                0x020181e4                BattleGame_play_TotalIn
                0x020191b8                StripeCharSet
                0x020129bc                CoinWrite
                0x020188f4                BattleGame_play_WinLose
                0x02013e5c                WinOAMSET
                0x02014958                game_play_scoreInitSUB
                0x020184d8                BattleGame_play_TotalWait
 .text          0x020194a8      0xdc4 m_battle_mult_play.o
                0x0201a228                multi_play
 .text          0x0201a26c      0x5a8 cm_game_title.o
                0x0201a7e4                multi_title
 .text          0x0201a814      0x52c m_sub.o
                0x0201a934                fade_out
                0x0201a874                fade_in
                0x0201acec                save_pull
                0x0201a814                lcdc_off
                0x0201ab58                m_scrollInit
                0x0201abe8                m_WhiteOUT
                0x0201ac98                save_push
                0x0201a9e4                RDMSUB
                0x0201a84c                lcdc_off1
 .text          0x0201ad40       0x9c m_scroll.o
                0x0201ad40                scroll_set
                0x0201add0                m_angpra
 .text          0x0201addc      0x234 m_bgcheck.o
                0x0201af48                bgbuf_change2
                0x0201aee0                bgbuf_change
                0x0201ae1c                bgbuf_check2
                0x0201addc                bgbuf_free
 .text          0x0201b010      0xb40 m_MultiSio.o
                0x0201b468                MultiSioIntr
                0x0201b7f4                ConnectCheck
                0x0201b010                MultiSioInit
                0x0201b75c                ConnectSioInit
                0x0201b170                MultiSioMain
                0x0201b874                ConnectSioIntr
                0x0201b31c                MultiSioRecvDataCheck
                0x0201b288                MultiSioSendDataSet
 .text          0x0201bb50      0x2a0 ba_act.o
                0x0201bcdc                acter_main
                0x0201bbf0                acterInit
                0x0201bb50                acter_init
 .text          0x0201bdf0      0xd48 ba_bgYuKa.o
                0x0201c4dc                bgYuKa_main
                0x0201bdf0                MakeBGYuKa
 .text          0x0201cb38     0x15ac ba_bucket.o
                0x0201cb38                bucket_PowJump
                0x0201ddd0                bucket_main
                0x0201cb7c                bucket_init
 .text          0x0201e0e4     0x11f4 ba_Coin.o
                0x0201e2e0                Coin_PowJump
                0x0201efd4                Coin_main
                0x0201f16c                MakeDemoCoin
                0x0201f058                MakeCoin
 .text          0x0201f2d8     0x1b98 ba_common.o
                0x0202036c                EraseEffect
                0x0201f60c                Oam2x4LoopSet
                0x020203b0                PerfectDeleteAllEffect
                0x020200e0                EraseEnemy
                0x02020490                FootRevision
                0x0201f324                OamOtherSet
                0x02020938                AddScore
                0x0201fa88                Oam3x2LoopSet
                0x020202d0                MakeEffect
                0x02020774                PlayerHitCHK
                0x0201ffbc                MakeEnemy
                0x0201fafc                SobDataOamSet
                0x02020e08                BGYuKaCHK
                0x0201f2d8                DispXCalc
                0x02020b78                BGYuKaSearch
                0x02020434                EnmySearch
                0x0201fd80                SizeCHGRollOamSet
                0x020201c8                PerfectDeleteAllEnemy
                0x0202059c                BGBF_SCR_CHG
                0x0202015c                AllEraseEnemy
                0x02020744                BrosEnemyMove
                0x0201f4e0                Oam2x2LoopSet
 .text          0x02020e70      0x81c ba_egg.o
                0x02020e70                MakeEgg
                0x02021664                egg_main
 .text          0x0202168c     0x1530 ba_enFly.o
                0x02021de0                Fly_LastSet
                0x02021a38                Fly_BGJump
                0x02021ab0                Fly_PowJump
                0x02022b30                Fly_main
 .text          0x02022bbc     0x17c0 ba_enKani.o
                0x02023474                Kani_LastSet
                0x0202300c                Kani_BGJump
                0x020242f0                Kani_main
                0x02023084                Kani_PowJump
 .text          0x0202437c     0x19f4 ba_enmy.o
                0x0202443c                Enemy_Ready
                0x02025410                StageEnemy_SetInit
                0x02024570                EnAddPoint
                0x020251e0                EnAnime_NoChange
                0x02024788                EnEn_hitchk
                0x02024520                EnXmove
                0x02025840                FireBall_Set
                0x020251f0                Enemy_OutCheck
                0x020249e8                Enemy_PowJump
                0x0202437c                EnReturnWait
                0x0202505c                EnemyAnime_Kick
                0x0202447c                StageOnCheck
                0x020245e4                Create_Point
                0x0202538c                DakanInCheck
                0x02025518                StageEnemy_SetMain
                0x02024ac0                Enemy_PLTurn
                0x020250fc                EnDead_OamSet
                0x02024f74                Enemy_Kick
                0x02025bac                Make_Freezer
                0x02024bdc                Enemy_PLKick
                0x0202471c                Create_Splash
                0x02025728                FireBall_TimerSet
                0x02025cf0                Kuppa_OopsInit
                0x02025aa8                Icicle_TimerSet
                0x020243c8                EnPosSet
 .text          0x02025d70       0x10 ba_enNoko.o
                0x02025d70                NoKoKame_main
 .text          0x02025d80     0x16d8 ba_enToge.o
                0x020265b4                Togezo_LastSet
                0x020273a0                Togezo_main
                0x020261dc                Togezo_PowJump
                0x0202615c                Togezo_BGJump
 .text          0x02027458     0x1478 ba_fire.o
                0x02027570                Fire_BGJump
                0x020286b4                Fireball_main
                0x02027520                Fire_BreakOut
                0x0202872c                Create_Fireball
 .text          0x020288d0      0x290 ba_fishBone.o
                0x020288d0                MakeFishBone
                0x02028b38                fishBone_main
 .text          0x02028b60      0x3f0 ba_heart.o
                0x02028c9c                heart_main
                0x02028b60                MakeHeart
 .text          0x02028f50     0x1a88 ba_ice.o
                0x0202a958                Ice_main
                0x02029060                Ice_JumpBreak
                0x020290ac                Ice_PowBreak
 .text          0x0202a9d8      0xbd8 ba_koura.o
                0x0202a9d8                KouraInit
                0x0202b528                koura_main
                0x0202ab10                MakeKoura
                0x0202aba4                Koura_PowJump
 .text          0x0202b5b0     0x1544 ba_kuppa.o
                0x0202b6e4                Kuppa_BGJump
                0x0202b770                Kuppa_PowJump
                0x0202c54c                Kuppa_main
                0x0202ca94                KppFire_main
 .text          0x0202caf4      0x350 ba_mutekiStar.o
                0x0202cbd0                mutekiStar_main
                0x0202caf4                MakeMutekiStar
 .text          0x0202ce44      0x868 ba_PipeWave.o
                0x0202d304                UnderPipeMake
                0x0202d12c                MakePipeWave
                0x0202d658                PipeWave_main
 .text          0x0202d6ac      0x3a4 ba_point.o
                0x0202da28                Point_main
 .text          0x0202da50     0x100c ba_pow.o
                0x0202db24                MakePow
                0x0202e054                MakeObjPow
                0x0202da50                ShrinkSet
                0x0202ea34                pow_main
 .text          0x0202ea5c      0x198 ba_smoke.o
                0x0202ea5c                smoke_main
 .text          0x0202ebf4      0x7fc ba_spark.o
                0x0202f3c8                spark_main
                0x0202ebf4                MakeSpark
 .text          0x0202f3f0      0x300 ba_splash.o
                0x0202f6c8                Splash_main
 .text          0x0202f6f0      0x374 ba_star.o
                0x0202f6f0                MakeStar
                0x0202f830                star_main
 .text          0x0202fa64      0x930 ba_icicle.o
                0x02030334                Icicle_main
 .text          0x02030394      0x3b8 ba_powsmk.o
                0x02030724                Powsmk_main
 .text          0x0203074c      0x428 m_mini_malloc.o
                0x0203074c                cMml_Init
                0x02030aa8                cMml_GarbageCollection
                0x020309f4                cMml_Free
                0x02030808                cMml_Malloc
 .text          0x02030b74     0x2098 Sound/bros_senyou/m4aLib.o
                0x02031e3c                SoundVSyncOff_rev01
                0x02031cac                SampFreqSet_rev01
                0x02030b74                umul3232H32
                0x02031a94                MPlayExtender
                0x02031de8                SoundClear_rev01
                0x02032ba0                ply_xsust
                0x02031bd0                Clear64byte_rev
                0x02032b8c                ply_xdeca
                0x02031bb8                MusicPlayerJumpTableCopy
                0x02032b64                ply_xtype
                0x02032744                MPlayVolumeControl
                0x02031f3c                MPlayStart_rev01
                0x02030fac                SoundMainBTM
                0x02032bf4                ply_xswee
                0x02031e88                SoundVSyncOn_rev01
                0x02031a3c                m4aMPlayFadeOut
                0x02031ec4                MPlayOpen_rev01
                0x0203147c                TrackStop_rev01
                0x02031a10                m4aMPlayAllContinue
                0x02032b78                ply_xatta
                0x02032178                MidiKey2CgbFr
                0x02032bc8                ply_xiecv
                0x020319a4                m4aSongNumContinue
                0x0203291c                MPlayLFOSpeedSet
                0x020317cc                DummyFunc
                0x020317ec                MPlayFadeOut
                0x020316d8                ply_endtie_rev01
                0x02031a04                m4aMPlayContinue
                0x0203271c                MPlayTempoControl
                0x02032030                FadeOutBody_rev01
                0x02032220                CgbOscOff
                0x02032b08                ply_xxx
                0x02031768                MidiKey2fr
                0x02031898                m4aSoundMain
                0x02032b1c                ply_xwave
                0x020320b0                TrkVolPitSet_rev01
                0x020318a4                m4aSongNumStart
                0x02031740                ply_lfos_rev01
                0x020317d0                MPlayContinue
                0x02031754                ply_mod_rev01
                0x020327ac                MPlayPitchControl
                0x02032888                MP_clear_modM
                0x02031210                MPlayMain_rev01
                0x020314c0                ply_note_rev01
                0x02031be4                SoundInit_rev01
                0x020318d0                m4aSongNumStartOrChange
                0x020328a8                MPlayModDepthSet
                0x0203191c                m4aSongNumStartOrContinue
                0x020322d8                CgbSound
                0x02031ff0                MPlayStop_rev01
                0x02032c08                DummyFunc_rev
                0x02032ae8                ply_xcmd
                0x02031d50                SoundMode_rev01
                0x02032820                MPlayPanpotControl
                0x02031bbc                ClearChain_rev
                0x020311d8                SoundVSync_rev01
                0x0203180c                m4aSoundInit
                0x02032bd4                ply_xiecl
                0x02032be0                ply_xleng
                0x02031a4c                m4aMPlayImmInit
                0x02032990                ply_memacc
                0x02030b84                SoundMain
                0x02030c08                SoundMainRAM
                0x020319d8                m4aMPlayAllStop
                0x02032270                CgbModVol
                0x02030fac                Clear64byte
                0x02031970                m4aSongNumStop
                0x02031014                MPlyJmpTblCopy
                0x02032bb4                ply_xrele
 .text          0x02032c0c        0x4 C:/agb/lib//libagbsyscall.a(AgbSysCpuFastSet.o)
                0x02032c0c                CpuFastSet
 .text          0x02032c10        0x4 C:/agb/lib//libagbsyscall.a(AgbSysCpuSet.o)
                0x02032c10                CpuSet
 .text          0x02032c14        0x4 C:/agb/lib//libagbsyscall.a(AgbSysRegisterRamReset.o)
                0x02032c14                RegisterRamReset
 .text          0x02032c18       0x1c C:/agb/lib//libagbsyscall.a(AgbSysSoftResetRom.o)
                0x02032c18                SoftResetRom
 .text          0x02032c34       0x3c C:\PROGRA~1\Cygnus\thumbelf-000512\H-i686-cygwin32\bin/../lib/gcc-lib/thumb-elf/2.9-arm-000512/libgcc.a(_call_via_rX.o)
                0x02032c3c                _call_via_r2
                0x02032c4c                _call_via_r6
                0x02032c48                _call_via_r5
                0x02032c40                _call_via_r3
                0x02032c60                _call_via_fp
                0x02032c54                _call_via_r8
                0x02032c50                _call_via_r7
                0x02032c34                _call_via_r0
                0x02032c5c                _call_via_sl
                0x02032c68                _call_via_sp
                0x02032c58                _call_via_r9
                0x02032c44                _call_via_r4
                0x02032c38                _call_via_r1
                0x02032c64                _call_via_ip
                0x02032c6c                _call_via_lr
 .text          0x02032c70       0x94 C:\PROGRA~1\Cygnus\thumbelf-000512\H-i686-cygwin32\bin/../lib/gcc-lib/thumb-elf/2.9-arm-000512/libgcc.a(_divsi3.o)
                0x02032c70                __divsi3
 .text          0x02032d04        0x4 C:\PROGRA~1\Cygnus\thumbelf-000512\H-i686-cygwin32\bin/../lib/gcc-lib/thumb-elf/2.9-arm-000512/libgcc.a(_dvmd_tls.o)
                0x02032d04                __div0
 .text          0x02032d08       0x78 C:\PROGRA~1\Cygnus\thumbelf-000512\H-i686-cygwin32\bin/../lib/gcc-lib/thumb-elf/2.9-arm-000512/libgcc.a(_udivsi3.o)
                0x02032d08                __udivsi3
 .text          0x02032d80       0xc0 C:\PROGRA~1\Cygnus\thumbelf-000512\H-i686-cygwin32\bin/../lib/gcc-lib/thumb-elf/2.9-arm-000512/libgcc.a(_umodsi3.o)
                0x02032d80                __umodsi3
 .text          0x02032e40       0x24 C:\PROGRA~1\Cygnus\thumbelf-000512\H-i686-cygwin32\bin/../lib/gcc-lib/thumb-elf/2.9-arm-000512/../../../../thumb-elf/lib/libg.a(assert.o)
                0x02032e40                __assert
 .text          0x02032e64       0x14 C:\PROGRA~1\Cygnus\thumbelf-000512\H-i686-cygwin32\bin/../lib/gcc-lib/thumb-elf/2.9-arm-000512/../../../../thumb-elf/lib/libg.a(fiprintf.o)
                0x02032e64                fiprintf
 .text          0x02032e78       0x28 C:\PROGRA~1\Cygnus\thumbelf-000512\H-i686-cygwin32\bin/../lib/gcc-lib/thumb-elf/2.9-arm-000512/../../../../thumb-elf/lib/libg.a(libcfunc.o)
                0x02032e98                isatty
                0x02032e78                abort
                0x02032e9c                alarm
 .text          0x02032ea0       0x60 C:\PROGRA~1\Cygnus\thumbelf-000512\H-i686-cygwin32\bin/../lib/gcc-lib/thumb-elf/2.9-arm-000512/../../../../thumb-elf/lib/libg.a(memcpy.o)
                0x02032ea0                memcpy
 .text          0x02032f00      0x9a4 C:\PROGRA~1\Cygnus\thumbelf-000512\H-i686-cygwin32\bin/../lib/gcc-lib/thumb-elf/2.9-arm-000512/../../../../thumb-elf/lib/libg.a(vfiprintf.o)
                0x02032f94                vfiprintf
                0x02032fa8                _vfiprintf_r
 .text          0x020338a4       0xac C:\PROGRA~1\Cygnus\thumbelf-000512\H-i686-cygwin32\bin/../lib/gcc-lib/thumb-elf/2.9-arm-000512/../../../../thumb-elf/lib/libg.a(wsetup.o)
                0x020338a4                __swsetup
 .text          0x02033950       0x94 C:\PROGRA~1\Cygnus\thumbelf-000512\H-i686-cygwin32\bin/../lib/gcc-lib/thumb-elf/2.9-arm-000512/../../../../thumb-elf/lib/libg.a(fflush.o)
                0x02033950                fflush
 .text          0x020339e4      0x15c C:\PROGRA~1\Cygnus\thumbelf-000512\H-i686-cygwin32\bin/../lib/gcc-lib/thumb-elf/2.9-arm-000512/../../../../thumb-elf/lib/libg.a(findfp.o)
                0x02033ae0                __sinit
                0x02033a1c                __sfmoreglue
                0x02033ad0                _cleanup
                0x02033ac0                _cleanup_r
                0x02033a4c                __sfp
 .text          0x02033b40      0x280 C:\PROGRA~1\Cygnus\thumbelf-000512\H-i686-cygwin32\bin/../lib/gcc-lib/thumb-elf/2.9-arm-000512/../../../../thumb-elf/lib/libg.a(freer.o)
                0x02033b40                _free_r
                0x02033d00                _malloc_trim_r
 .text          0x02033dc0      0x22c C:\PROGRA~1\Cygnus\thumbelf-000512\H-i686-cygwin32\bin/../lib/gcc-lib/thumb-elf/2.9-arm-000512/../../../../thumb-elf/lib/libg.a(fvwrite.o)
                0x02033dc0                __sfvwrite
 .text          0x02033fec       0x40 C:\PROGRA~1\Cygnus\thumbelf-000512\H-i686-cygwin32\bin/../lib/gcc-lib/thumb-elf/2.9-arm-000512/../../../../thumb-elf/lib/libg.a(fwalk.o)
                0x02033fec                _fwalk
 .text          0x0203402c       0x6c C:\PROGRA~1\Cygnus\thumbelf-000512\H-i686-cygwin32\bin/../lib/gcc-lib/thumb-elf/2.9-arm-000512/../../../../thumb-elf/lib/libg.a(locale.o)
                0x0203402c                _setlocale_r
                0x02034068                _localeconv_r
                0x02034070                setlocale
                0x02034088                localeconv
 .text          0x02034098       0xdc C:\PROGRA~1\Cygnus\thumbelf-000512\H-i686-cygwin32\bin/../lib/gcc-lib/thumb-elf/2.9-arm-000512/../../../../thumb-elf/lib/libg.a(makebuf.o)
                0x02034098                __smakebuf
 .text          0x02034174      0x51c C:\PROGRA~1\Cygnus\thumbelf-000512\H-i686-cygwin32\bin/../lib/gcc-lib/thumb-elf/2.9-arm-000512/../../../../thumb-elf/lib/libg.a(mallocr.o)
                0x020342d0                _malloc_r
 .text          0x02034690       0x2c C:\PROGRA~1\Cygnus\thumbelf-000512\H-i686-cygwin32\bin/../lib/gcc-lib/thumb-elf/2.9-arm-000512/../../../../thumb-elf/lib/libg.a(mbtowc_r.o)
                0x02034690                _mbtowc_r
 .text          0x020346bc       0x80 C:\PROGRA~1\Cygnus\thumbelf-000512\H-i686-cygwin32\bin/../lib/gcc-lib/thumb-elf/2.9-arm-000512/../../../../thumb-elf/lib/libg.a(memchr.o)
                0x020346bc                memchr
 .text          0x0203473c       0x88 C:\PROGRA~1\Cygnus\thumbelf-000512\H-i686-cygwin32\bin/../lib/gcc-lib/thumb-elf/2.9-arm-000512/../../../../thumb-elf/lib/libg.a(memmove.o)
                0x0203473c                memmove
 .text          0x020347c4       0x54 C:\PROGRA~1\Cygnus\thumbelf-000512\H-i686-cygwin32\bin/../lib/gcc-lib/thumb-elf/2.9-arm-000512/../../../../thumb-elf/lib/libg.a(memset.o)
                0x020347c4                memset
 .text          0x02034818        0x8 C:\PROGRA~1\Cygnus\thumbelf-000512\H-i686-cygwin32\bin/../lib/gcc-lib/thumb-elf/2.9-arm-000512/../../../../thumb-elf/lib/libg.a(mlock.o)
                0x0203481c                __malloc_unlock
                0x02034818                __malloc_lock
 .text          0x02034820       0x2c C:\PROGRA~1\Cygnus\thumbelf-000512\H-i686-cygwin32\bin/../lib/gcc-lib/thumb-elf/2.9-arm-000512/../../../../thumb-elf/lib/libg.a(sbrkr.o)
                0x02034820                _sbrk_r
 .text          0x0203484c       0xc4 C:\PROGRA~1\Cygnus\thumbelf-000512\H-i686-cygwin32\bin/../lib/gcc-lib/thumb-elf/2.9-arm-000512/../../../../thumb-elf/lib/libg.a(stdio.o)
                0x020348c0                __sseek
                0x0203484c                __sread
                0x02034900                __sclose
                0x02034880                __swrite
 .text          0x02034910       0x5c C:\PROGRA~1\Cygnus\thumbelf-000512\H-i686-cygwin32\bin/../lib/gcc-lib/thumb-elf/2.9-arm-000512/../../../../thumb-elf/lib/libg.a(strcmp.o)
                0x02034910                strcmp
 .text          0x0203496c       0x44 C:\PROGRA~1\Cygnus\thumbelf-000512\H-i686-cygwin32\bin/../lib/gcc-lib/thumb-elf/2.9-arm-000512/../../../../thumb-elf/lib/libg.a(strlen.o)
                0x0203496c                strlen
 .text          0x020349b0      0x464 C:\PROGRA~1\Cygnus\thumbelf-000512\H-i686-cygwin32\bin/../lib/gcc-lib/thumb-elf/2.9-arm-000512/../../../../thumb-elf/lib/libg.a(syscalls.o)
                0x02034d6c                _getpid
                0x02034a1c                initialise_monitor_handles
                0x02034dac                _fstat
                0x02034cd8                _open
                0x02034d70                _sbrk
                0x02034dc0                _raise
                0x02034df0                _times
                0x02034bbc                _lseek
                0x02034bc8                _swiwrite
                0x02034b38                _swilseek
                0x02034cec                _swiclose
                0x02034c38                _swiopen
                0x02034db8                _unlink
                0x02034bec                _write
                0x02034d4c                _kill
                0x02034dc4                _gettimeofday
                0x02034af0                _read
                0x02034d2c                _exit
                0x02034acc                _swiread
                0x02034d20                _close
 .text          0x02034e14       0x30 C:\PROGRA~1\Cygnus\thumbelf-000512\H-i686-cygwin32\bin/../lib/gcc-lib/thumb-elf/2.9-arm-000512/../../../../thumb-elf/lib/libg.a(writer.o)
                0x02034e14                _write_r
 .text          0x02034e44       0x2c C:\PROGRA~1\Cygnus\thumbelf-000512\H-i686-cygwin32\bin/../lib/gcc-lib/thumb-elf/2.9-arm-000512/../../../../thumb-elf/lib/libg.a(closer.o)
                0x02034e44                _close_r
 .text          0x02034e70        0xc C:\PROGRA~1\Cygnus\thumbelf-000512\H-i686-cygwin32\bin/../lib/gcc-lib/thumb-elf/2.9-arm-000512/../../../../thumb-elf/lib/libg.a(errno.o)
                0x02034e70                __errno
 .text          0x02034e7c       0x2c C:\PROGRA~1\Cygnus\thumbelf-000512\H-i686-cygwin32\bin/../lib/gcc-lib/thumb-elf/2.9-arm-000512/../../../../thumb-elf/lib/libg.a(fstatr.o)
                0x02034e7c                _fstat_r
 .text          0x02034ea8       0x30 C:\PROGRA~1\Cygnus\thumbelf-000512\H-i686-cygwin32\bin/../lib/gcc-lib/thumb-elf/2.9-arm-000512/../../../../thumb-elf/lib/libg.a(lseekr.o)
                0x02034ea8                _lseek_r
 .text          0x02034ed8       0x30 C:\PROGRA~1\Cygnus\thumbelf-000512\H-i686-cygwin32\bin/../lib/gcc-lib/thumb-elf/2.9-arm-000512/../../../../thumb-elf/lib/libg.a(readr.o)
                0x02034ed8                _read_r
d830 2
a831 2
                0x02034f08                _etext=.
                0x02034f08                PROVIDE (etext, .)
d836 1
a836 1
.rodata         0x02034f08     0x6a80
d838 353
a1190 355
 .rodata        0x02034f08       0x14 ba_effect.o
 .rodata        0x02034f1c      0x3e8 ba_player.o
                0x02034fbc                WalkSoundDT
                0x0203500c                WinBitDT
                0x02034f90                BattleDeathXposDT
                0x02034fac                DownAnimeDT
                0x02034fb2                WalkAnimeDT
                0x02034f1c                playerInitDT
                0x020350a2                POffsetDT
                0x02034fa6                BigJumpAnimeDT
                0x02035020                PLInitScchDT
                0x02035028                CoinReachFlashDT
                0x02034fb8                HandsUpWalkAnimeDT
                0x02035098                KamekeriSoundDT
                0x02034fb5                VFlipWalkAnimeDT
                0x0203508e                KickScoreDT
                0x02035010                PLXPosDT
                0x0203507e                MuTeKiFlashDT
                0x020350ac                ReachPlacardData
                0x02034f80                DeathXposDT
                0x02034fa0                HandUpDT
                0x02034fcc                FireDamageColDT
                0x02035078                DaI_data
                0x02034fec                IceDamageColDT
 .rodata        0x02035304       0x28 ba_reach.o
                0x0203530c                Reach_Ypos_dt
                0x02035304                ReachPLNumDT
 .rodata        0x0203532c      0x120 cm_game.o
                0x0203532c                d_error_schDT0
                0x0203538c                d_error_schDT1
                0x020353ec                ErrChr
 .rodata        0x0203544c       0x74 cm_main.o
                0x0203544c                IntrTable
 .rodata        0x020354c0      0x784 m_game_sub.o
                0x02035c24                YData
                0x02035ab0                HajimekaraDT
                0x02035550                EnKeIUnitDT2
                0x020357d8                WinLosechrDT
                0x020354c8                MoveYuKaCHRDT2
                0x02035874                restartPosDT
                0x020358e8                WaKuUpDT
                0x020355d0                EnKeIUnitDT3
                0x02035910                WaKuOffSetDT
                0x02035a9c                TudukeruDT
                0x02035820                LoseTimeTBL
                0x02035af0                OamSetPosTable
                0x02035750                EnKeIPanelDT3
                0x020357d0                BrosRedColorDT
                0x02035824                PauseDT
                0x0203582e                continueDT
                0x020357f4                KaChiDT
                0x02035858                endPosDT
                0x02035b3a                KattaDT
                0x020357fc                MaKeDT
                0x020358b0                BtlWinCountObjPos
                0x0203580c                PlayerNoDT
                0x0203583e                continuePosDT
                0x02035886                PauseWakuObjChrDT
                0x020354d0                EnKeIUnitDT1
                0x02035a54                chrDT
                0x0203598c                RoundMoJiDT
                0x0203581c                WinTimeTBL
                0x020356d0                EnKeIPanelDT1
                0x02035862                restartDT
                0x020354c0                MoveYuKaCHRDT1
                0x02035790                EnKeIPanelDT4
                0x020358fc                WaKuDownDT
                0x020359d4                CoinFlashDT
                0x020359ac                TotalMoJiDT
                0x02035710                EnKeIPanelDT2
                0x02035a7c                PushStartDT
                0x02035ac0                HajimekaraPosDT
                0x02035650                EnKeIUnitDT4
                0x02035bf8                BrosCoinDT
                0x02035814                PlayerNoLargeDT
                0x0203584e                endDT
                0x02035806                HikiwakeDT
                0x02035b30                FlashPlttData
                0x02035b46                MaketaDT
 .rodata        0x02035c44       0x30 m_battle_mult_play.o
 .rodata        0x02035c74       0x40 cm_game_title.o
 .rodata        0x02035cb4       0x24 m_sub.o
 .rodata        0x02035cd8        0x4 m_scroll.o
 .rodata        0x02035cdc       0x14 m_bgcheck.o
 .rodata        0x02035cf0       0x4c m_MultiSio.o
 .rodata        0x02035d3c       0x68 ba_act.o
                0x02035d54                RotateParam
 .rodata        0x02035da4       0xa8 ba_bgYuKa.o
                0x02035dac                bgYuKaDT
 .rodata        0x02035e4c       0x9c ba_bucket.o
                0x02035e4c                BuketAnimeMoveDT
                0x02035e64                BringItemDataTBL
 .rodata        0x02035ee8      0x104 ba_Coin.o
                0x02035f40                CoinAnimeTime
                0x02035f54                CoinOamData
 .rodata        0x02035fec       0xbc ba_common.o
                0x0203606c                BrosScoreDT
 .rodata        0x020360a8       0x38 ba_egg.o
                0x020360a8                EggCoinDT
 .rodata        0x020360e0       0xc0 ba_enFly.o
                0x020360ec                fxspd
                0x02036108                flyyspd
                0x02036124                fcolor
                0x02036148                fly_timer
                0x020360e0                fly_grav
                0x02036178                anitimef
                0x02036160                fanimeDT
                0x02036168                fanitime
 .rodata        0x020361a0       0xdc ba_enKani.o
                0x020361f8                animeDTk
                0x02036200                HflipDTk
                0x02036264                kkHflipDT
                0x02036234                kanitime
                0x020361c4                kcolor
                0x02036204                walkChark
                0x02036240                kanimetime
                0x02036228                kanimeDT
                0x0203625c                kkanimeDT
                0x020361a0                kxspd
 .rodata        0x0203627c      0x134 ba_enmy.o
                0x0203636c                Icicle_Ypos
                0x020362ac                FreezerSetTableC
                0x02036304                RedFireSetTable
                0x020362fa                GreenFireBallSetTimer
                0x02036364                Icicle_Xpos
                0x0203637c                Icicle_SetTable
                0x020362f0                RedFireBallSetTimer
                0x02036334                BattleFireSetTable
                0x0203631c                GreenFireSetTable
                0x020362c4                FreezeFloorTableC
 .rodata        0x020363b0       0xa8 ba_enToge.o
                0x020363d4                tcolor
                0x0203641c                atimet
                0x020363b0                txspd
                0x0203640e                tanitime
                0x02036440                animeDt
                0x02036408                tanimeDT
 .rodata        0x02036458       0xd8 ba_fire.o
                0x020364e4                FireBallChrNo
                0x02036474                gfbxspd
                0x02036458                FireBallAnimeTime
                0x020364fc                FireBallFlip
                0x02036464                xps
                0x0203647c                rfbxspd
                0x0203648c                rfbyspd
 .rodata        0x02036530       0x10 ba_fishBone.o
 .rodata        0x02036540        0xc ba_heart.o
 .rodata        0x0203654c       0x7c ba_ice.o
                0x02036590                aniTime
 .rodata        0x020365c8       0x48 ba_koura.o
                0x020365d4                KouraAnimeDT
                0x020365e0                KouraSpeedDT
                0x020365dc                KouraFlipDT
                0x020365f4                KouraAnimeTime
 .rodata        0x02036610       0x6c ba_kuppa.o
                0x02036610                kpxspd
                0x02036640                animeTIME
 .rodata        0x0203667c       0x30 ba_mutekiStar.o
                0x0203667c                MutekiStarTMDT
                0x02036682                MutekiStarChrDT
 .rodata        0x020366ac       0x18 ba_PipeWave.o
 .rodata        0x020366c4       0x10 ba_point.o
 .rodata        0x020366d4       0x3c ba_pow.o
 .rodata        0x02036710       0x14 ba_smoke.o
                0x02036710                SmokeAnimeDT
 .rodata        0x02036724       0xa8 ba_spark.o
                0x02036724                speedDT
 .rodata        0x020367cc       0x28 ba_splash.o
 .rodata        0x020367f4        0xc ba_star.o
 .rodata        0x02036800       0x54 ba_icicle.o
                0x0203681c                IcicleAnime
 .rodata        0x02036854       0x18 ba_powsmk.o
 .rodata        0x0203686c       0x7c m_mini_malloc.o
 .rodata        0x020368e8      0x200 d_bros_BG_scl.o
                0x020368e8                d_bros_BG_sclDT
 .rodata        0x02036ae8      0x200 d_Bros_obj_scl.o
                0x02036ae8                d_Bros_obj_sclDT
 .rodata        0x02036ce8      0x200 d_Bros_obj_winner_scl.o
                0x02036ce8                d_Bros_obj_winner_sclDT
 .rodata        0x02036ee8      0x7d8 course_data.o
                0x02037076                BrosCouseData1
                0x02036ee8                CHR_DATA
                0x020374a6                BrosCouseData3
                0x0203728e                BrosCouseData2
 .rodata        0x020376c0      0x2d8 Sound/bros_senyou/m4aLib.o
                0x02037804                FreqTable
                0x020378d0                CgbFrTable
                0x020376c0                MPlyJmpTbl
                0x02037924                Cgb3vol
                0x02037750                ScaleTable
                0x02037968                xcmd_tbl
                0x02037934                clock_tbl_rev01
                0x0203784c                CgbScTable
                0x020378e8                NoiseTable
                0x02037834                pcmVBtbl_rev
 .rodata        0x02037998      0xa40 Sound/bros_senyou/SoundDat.o
                0x02037998                voicegroup000
                0x02037f98                voicegroup001
                0x0203801c                mplay_table
                0x0203819c                song_table
 .rodata        0x020383d8      0x70c Sound/bros_senyou/sn_g_kon.o
                0x020383d8                sn_g_kon
 .rodata        0x02038ae4      0x7c8 Sound/bros_senyou/sn_g_pisnare.o
                0x02038ae4                sn_g_pisnare
 .rodata        0x020392ac      0x700 Sound/bros_senyou/sn_g_lowcg.o
                0x020392ac                sn_g_lowcg
 .rodata        0x020399ac      0x2f8 Sound/bros_senyou/sn_g_bsdrum.o
                0x020399ac                sn_g_bsdrum
 .rodata        0x02039ca4       0x1c Sound/bros_senyou/sn_KEKKA0.o
                0x02039cb4                sn_KEKKA0
 .rodata        0x02039cc0       0x74 Sound/bros_senyou/sn_STAGE1.o
                0x02039d24                sn_STAGE1
 .rodata        0x02039d34       0x4c Sound/bros_senyou/sn_STAGE2.o
                0x02039d70                sn_STAGE2
 .rodata        0x02039d80       0xf0 Sound/bros_senyou/sn_CLEAR.o
                0x02039e64                sn_CLEAR
 .rodata        0x02039e70       0x1c Sound/bros_senyou/sn_KEKKA1.o
                0x02039e80                sn_KEKKA1
 .rodata        0x02039e8c       0x1c Sound/bros_senyou/sn_KEKKA2.o
                0x02039e9c                sn_KEKKA2
 .rodata        0x02039ea8       0x1c Sound/bros_senyou/sn_KEKKA.o
                0x02039eb8                sn_KEKKA
 .rodata        0x02039ec4       0x1c Sound/bros_senyou/sn_KEKKA3.o
                0x02039ed4                sn_KEKKA3
 .rodata        0x02039ee0       0xec Sound/bros_senyou/sn_BATTLE_DEAD.o
                0x02039fc0                sn_BATTLE_DEAD
 .rodata        0x02039fcc       0x2c Sound/bros_senyou/sn_HEART.o
                0x02039fec                sn_HEART
 .rodata        0x02039ff8       0xb0 Sound/bros_senyou/sn_COIN5.o
                0x0203a09c                sn_COIN5
 .rodata        0x0203a0a8       0x40 Sound/bros_senyou/sn_JUMP.o
                0x0203a0dc                sn_JUMP
 .rodata        0x0203a0e8       0x20 Sound/bros_senyou/sn_SLIP.o
                0x0203a0fc                sn_SLIP
 .rodata        0x0203a108       0x1c Sound/bros_senyou/sn_WALK_C.o
                0x0203a118                sn_WALK_C
 .rodata        0x0203a124       0x1c Sound/bros_senyou/sn_WALK_E.o
                0x0203a134                sn_WALK_E
 .rodata        0x0203a140       0x1c Sound/bros_senyou/sn_WALK_G.o
                0x0203a150                sn_WALK_G
 .rodata        0x0203a15c       0x34 Sound/bros_senyou/sn_MR_DEAD.o
                0x0203a184                sn_MR_DEAD
 .rodata        0x0203a190       0x3c Sound/bros_senyou/sn_MR_DOWN.o
                0x0203a1c0                sn_MR_DOWN
 .rodata        0x0203a1cc       0x64 Sound/bros_senyou/sn_MR_NEXT.o
                0x0203a224                sn_MR_NEXT
 .rodata        0x0203a230       0x40 Sound/bros_senyou/sn_POW.o
                0x0203a264                sn_POW
 .rodata        0x0203a270       0x2c Sound/bros_senyou/sn_PAUSE1UP.o
                0x0203a290                sn_PAUSE1UP
 .rodata        0x0203a29c       0x1c Sound/bros_senyou/sn_KAME.o
                0x0203a2ac                sn_KAME
 .rodata        0x0203a2b8       0x3c Sound/bros_senyou/sn_KANI.o
                0x0203a2e8                sn_KANI
 .rodata        0x0203a2f4       0x6c Sound/bros_senyou/sn_HAE.o
                0x0203a354                sn_HAE
 .rodata        0x0203a360       0x50 Sound/bros_senyou/sn_COIN_OUT.o
                0x0203a3a4                sn_COIN_OUT
 .rodata        0x0203a3b0       0x40 Sound/bros_senyou/sn_TEKI_ATTACK.o
                0x0203a3e4                sn_TEKI_ATTACK
 .rodata        0x0203a3f0       0x5c Sound/bros_senyou/sn_TEKI_DEAD.o
                0x0203a440                sn_TEKI_DEAD
 .rodata        0x0203a44c       0x20 Sound/bros_senyou/sn_DOBON.o
                0x0203a460                sn_DOBON
 .rodata        0x0203a46c       0x48 Sound/bros_senyou/sn_COIN_GET.o
                0x0203a4a8                sn_COIN_GET
 .rodata        0x0203a4b4       0x54 Sound/bros_senyou/sn_FREEZER.o
                0x0203a4fc                sn_FREEZER
 .rodata        0x0203a508       0x70 Sound/bros_senyou/sn_FREEZ_DEAD.o
                0x0203a56c                sn_FREEZ_DEAD
 .rodata        0x0203a578       0x38 Sound/bros_senyou/sn_FIRE.o
                0x0203a5a4                sn_FIRE
 .rodata        0x0203a5b0      0x114 Sound/bros_senyou/sn_boss_bros.o
                0x0203a6b0                sn_boss_bros
 .rodata        0x0203a6c4       0xec Sound/bros_senyou/sn_star_bros.o
                0x0203a798                sn_star_bros
 .rodata        0x0203a7b0      0x13c Sound/bros_senyou/sn_KUPPA.o
                0x0203a8d8                sn_KUPPA
 .rodata        0x0203a8ec       0x68 Sound/bros_senyou/sn_KUPPA_DOSIN.o
                0x0203a948                sn_KUPPA_DOSIN
 .rodata        0x0203a954       0xa4 Sound/bros_senyou/sn_win1.o
                0x0203a9dc                sn_win1
 .rodata        0x0203a9f8       0xdc Sound/bros_senyou/sn_lose1.o
                0x0203aabc                sn_lose1
 .rodata        0x0203aad4       0xd4 Sound/bros_senyou/sn_win2.o
                0x0203ab90                sn_win2
 .rodata        0x0203aba8       0xa8 Sound/bros_senyou/sn_lose2.o
                0x0203ac38                sn_lose2
 .rodata        0x0203ac50       0x1c Sound/bros_senyou/sn_KEKKA4.o
                0x0203ac60                sn_KEKKA4
 .rodata        0x0203ac6c      0x290 Sound/bros_senyou/sn_battle2.o
                0x0203aee0                sn_battle2
 .rodata        0x0203aefc      0x15c Sound/bros_senyou/sn_battlekekka.o
                0x0203b03c                sn_battlekekka
 .rodata        0x0203b058       0x80 Sound/bros_senyou/sn_zelda_fan.o
                0x0203b0c0                sn_zelda_fan
 .rodata        0x0203b0d8       0x28 Sound/bros_senyou/sn_KUPPAFIRE.o
                0x0203b0f4                sn_KUPPAFIRE
 .rodata        0x0203b100       0x1c Sound/bros_senyou/sn_BAKETU.o
                0x0203b110                sn_BAKETU
 .rodata        0x0203b11c       0x3c Sound/bros_senyou/sn_MOTI.o
                0x0203b14c                sn_MOTI
 .rodata        0x0203b158       0x24 Sound/bros_senyou/sn_NAGE.o
                0x0203b170                sn_NAGE
 .rodata        0x0203b17c       0x28 Sound/bros_senyou/sn_TAME.o
                0x0203b198                sn_TAME
 .rodata        0x0203b1a4       0x60 Sound/bros_senyou/sn_DAMAGE.o
                0x0203b1f8                sn_DAMAGE
 .rodata        0x0203b204       0x78 Sound/bros_senyou/sn_TIBI.o
                0x0203b270                sn_TIBI
 .rodata        0x0203b27c       0x38 Sound/bros_senyou/sn_NORI.o
                0x0203b2a8                sn_NORI
 .rodata        0x0203b2b4       0x30 Sound/bros_senyou/sn_BUTUKARI.o
                0x0203b2d8                sn_BUTUKARI
 .rodata        0x0203b2e4       0x20 Sound/bros_senyou/sn_HEART_GET.o
                0x0203b2f8                sn_HEART_GET
 .rodata        0x0203b304       0x50 Sound/bros_senyou/sn_DEKA.o
                0x0203b348                sn_DEKA
 .rodata        0x0203b354       0xb8 Sound/bros_senyou/sn_KAO.o
                0x0203b400                sn_KAO
 .rodata        0x0203b40c       0x2c Sound/bros_senyou/sn_PUSH.o
                0x0203b42c                sn_PUSH
 .rodata        0x0203b438       0x80 Sound/bros_senyou/sn_KUPPA_DAMAGE.o
                0x0203b4ac                sn_KUPPA_DAMAGE
 .rodata        0x0203b4b8       0xf4 Sound/bros_senyou/sn_KUPPA_DEAD.o
                0x0203b5a0                sn_KUPPA_DEAD
 .rodata        0x0203b5ac       0x2c Sound/bros_senyou/sn_SHIFT.o
                0x0203b5cc                sn_SHIFT
 .rodata        0x0203b5d8       0x5c Sound/bros_senyou/sn_SAVE.o
                0x0203b620                sn_SAVE
 .rodata        0x0203b634       0xd0 Sound/bros_senyou/sn_intro_battle.o
                0x0203b6ec                sn_intro_battle
 .rodata        0x0203b704       0x1c Sound/bros_senyou/sn_KAMEKERI1.o
                0x0203b714                sn_KAMEKERI1
 .rodata        0x0203b720       0x1c Sound/bros_senyou/sn_KAMEKERI2.o
                0x0203b730                sn_KAMEKERI2
 .rodata        0x0203b73c       0x1c Sound/bros_senyou/sn_KAMEKERI3.o
                0x0203b74c                sn_KAMEKERI3
 .rodata        0x0203b758       0x1c Sound/bros_senyou/sn_KAMEKERI4.o
                0x0203b768                sn_KAMEKERI4
 .rodata        0x0203b774       0x2c Sound/bros_senyou/sn_PINPON.o
                0x0203b794                sn_PINPON
 .rodata        0x0203b7a0       0x24 Sound/bros_senyou/sn_BUU.o
                0x0203b7b8                sn_BUU
 .rodata        0x0203b7c4       0x84 Sound/bros_senyou/sn_battlekekka_intro.o
                0x0203b834                sn_battlekekka_intro
 .rodata        0x0203b848       0x1c Sound/bros_senyou/sn_FIREDEAD.o
                0x0203b858                sn_FIREDEAD
 .rodata        0x0203b864       0x24 Sound/bros_senyou/sn_TURARA_DEAD.o
                0x0203b87c                sn_TURARA_DEAD
 .rodata        0x0203b888       0x2c C:\PROGRA~1\Cygnus\thumbelf-000512\H-i686-cygwin32\bin/../lib/gcc-lib/thumb-elf/2.9-arm-000512/../../../../thumb-elf/lib/libg.a(assert.o)
 .rodata        0x0203b8b4        0x4 C:\PROGRA~1\Cygnus\thumbelf-000512\H-i686-cygwin32\bin/../lib/gcc-lib/thumb-elf/2.9-arm-000512/../../../../thumb-elf/lib/libg.a(impure.o)
 .rodata        0x0203b8b8       0x6c C:\PROGRA~1\Cygnus\thumbelf-000512\H-i686-cygwin32\bin/../lib/gcc-lib/thumb-elf/2.9-arm-000512/../../../../thumb-elf/lib/libg.a(vfiprintf.o)
 .rodata        0x0203b924       0x3c C:\PROGRA~1\Cygnus\thumbelf-000512\H-i686-cygwin32\bin/../lib/gcc-lib/thumb-elf/2.9-arm-000512/../../../../thumb-elf/lib/libg.a(locale.o)
 .rodata        0x0203b960       0x28 C:\PROGRA~1\Cygnus\thumbelf-000512\H-i686-cygwin32\bin/../lib/gcc-lib/thumb-elf/2.9-arm-000512/../../../../thumb-elf/lib/libg.a(syscalls.o)
d1196 1
a1196 1
                0x0203ba88                .=(ALIGN(0x100)+(.&0xff))
d1198 1
a1198 1
.data           0x0203ba88     0x2650
d1200 211
a1410 211
 .data          0x0203ba88       0x40 ba_effect.o
                0x0203baac                effectAct_menu
                0x0203ba88                effectActInitDT
 .data          0x0203bac8      0x36c ba_player.o
                0x0203bdbc                ScoreCoinBGAddress
 .data          0x0203be34        0xc cm_game.o
                0x0203be34                cm_game_menu
 .data          0x0203be40        0x8 cm_main.o
 .data          0x0203be48       0x58 m_battle_mult_play.o
                0x0203be48                cgame_play_menu
 .data          0x0203bea0       0x10 cm_game_title.o
                0x0203bea0                multi_title_menu
 .data          0x0203beb0       0x88 ba_act.o
                0x0203beb0                acterInitDT
                0x0203beec                acter_menu
 .data          0x0203bf38      0x130 ba_bucket.o
                0x0203bf60                d_bucket_sob_01
                0x0203bf38                d_bucket_sob_00
                0x0203bfa8                d_bucket_sob_02
                0x0203bfd0                d_bucket_sob_03
                0x0203bff8                d_bucket_sob_04
 .data          0x0203c068       0x38 ba_Coin.o
                0x0203c068                Coin_menu
                0x0203c084                Coin_anime
 .data          0x0203c0a0        0xc ba_egg.o
 .data          0x0203c0ac       0x68 ba_enFly.o
                0x0203c0ac                Fly_menu
                0x0203c0e0                Fly_anime
 .data          0x0203c114       0x68 ba_enKani.o
                0x0203c114                Kani_menu
                0x0203c148                Kani_anime
 .data          0x0203c17c       0x10 ba_enmy.o
 .data          0x0203c18c       0x68 ba_enToge.o
                0x0203c18c                Togezo_menu
                0x0203c1c0                Togezo_anime
 .data          0x0203c1f4       0x30 ba_fire.o
                0x0203c1f4                Fire_menu
                0x0203c20c                Fire_anime
 .data          0x0203c224        0x8 ba_fishBone.o
 .data          0x0203c22c      0x12c ba_ice.o
                0x0203c2e4                IceOamTable
                0x0203c264                IceOamData_4
                0x0203c284                IceOamData_6
                0x0203c22c                IceOamData_0
                0x0203c274                IceOamData_5
                0x0203c244                IceOamData_2
                0x0203c2bc                IceOamData_8
                0x0203c234                IceOamData_1
                0x0203c254                IceOamData_3
                0x0203c294                IceOamData_7
                0x0203c330                Ice_anime
                0x0203c308                Ice_menu
 .data          0x0203c358       0x18 ba_koura.o
 .data          0x0203c370      0x9d8 ba_kuppa.o
                0x0203cb5c                KppFireOam_10
                0x0203c8dc                KppFireOam_8
                0x0203c9dc                KppFireOam_C
                0x0203c488                KppOamData_4
                0x0203cad4                KppFireOam_F
                0x0203cc54                KppFireOam_13
                0x0203c6ac                KppFireOam_2
                0x0203c378                KppOamData_1
                0x0203c64c                Kuppa_anime
                0x0203c82c                KppFireOam_6
                0x0203c5d0                KppOamData_8
                0x0203cd40                KppFire_menu
                0x0203c664                KppFireOam_0
                0x0203cccc                KppFireTable
                0x0203c99c                KppFireOam_B
                0x0203ca94                KppFireOam_E
                0x0203c924                KppFireOam_9
                0x0203c3e0                KppOamData_3
                0x0203cbac                KppFireOam_11
                0x0203c764                KppFireOam_4
                0x0203c6dc                KppFireOam_3
                0x0203c608                KppOamTable
                0x0203cc9c                KppFireOam_14
                0x0203c598                KppOamData_7
                0x0203c4f0                KppOamData_6
                0x0203c370                KppOamData_0
                0x0203c87c                KppFireOam_7
                0x0203c66c                KppFireOam_1
                0x0203c540                KppOamData_A
                0x0203ca0c                KppFireOam_D
                0x0203c430                KppOamData_9
                0x0203c96c                KppFireOam_A
                0x0203cc0c                KppFireOam_12
                0x0203c3a8                KppOamData_2
                0x0203c7a4                KppFireOam_5
                0x0203c634                Kuppa_menu
                0x0203c4b8                KppOamData_5
 .data          0x0203cd48       0xec ba_PipeWave.o
 .data          0x0203ce34       0x28 ba_point.o
                0x0203ce54                Point_menu
 .data          0x0203ce5c       0x1c ba_pow.o
 .data          0x0203ce78        0x8 ba_spark.o
 .data          0x0203ce80       0xd0 ba_splash.o
                0x0203cf48                Splash_menu
 .data          0x0203cf50       0xf4 ba_icicle.o
                0x0203cf90                IcicleData_4
                0x0203cfa0                IcicleData_5
                0x0203d02c                Icicle_menu
                0x0203cfe0                IcicleData_8
                0x0203cf80                IcicleData_3
                0x0203cf58                IcicleData_1
                0x0203cfd0                IcicleData_7
                0x0203cf50                IcicleData_0
                0x0203cfb8                IcicleData_6
                0x0203cf70                IcicleData_2
                0x0203d008                IcicleTable
 .data          0x0203d044       0xa4 ba_powsmk.o
                0x0203d0e0                Powsmk_menu
 .data          0x0203d0e8      0x2f0 d_playerA_sob.o
                0x0203d1b8                d_playerA_sob_0B
                0x0203d2e0                d_playerA_sob_16
                0x0203d100                d_playerA_sob_01
                0x0203d240                d_playerA_sob_11
                0x0203d160                d_playerA_sob_05
                0x0203d1a0                d_playerA_sob_0A
                0x0203d1e0                d_playerA_sob_0D
                0x0203d328                d_playerA_sob_18
                0x0203d380                d_playerA_sob_1B
                0x0203d270                d_playerA_sob_13
                0x0203d0e8                d_playerA_sob_00
                0x0203d178                d_playerA_sob_08
                0x0203d350                d_playerA_sob_19
                0x0203d3b0                d_playerA_sob_1D
                0x0203d258                d_playerA_sob_12
                0x0203d228                d_playerA_sob_10
                0x0203d118                d_playerA_sob_02
                0x0203d368                d_playerA_sob_1A
                0x0203d2b0                d_playerA_sob_15
                0x0203d210                d_playerA_sob_0F
                0x0203d1c8                d_playerA_sob_0C
                0x0203d288                d_playerA_sob_14
                0x0203d148                d_playerA_sob_04
                0x0203d190                d_playerA_sob_09
                0x0203d398                d_playerA_sob_1C
                0x0203d300                d_playerA_sob_17
                0x0203d1f8                d_playerA_sob_0E
                0x0203d130                d_playerA_sob_03
 .data          0x0203d3d8      0x2d8 d_playerB_sob.o
                0x0203d518                d_playerB_sob_0F
                0x0203d4d0                d_playerB_sob_0C
                0x0203d408                d_playerB_sob_02
                0x0203d548                d_playerB_sob_11
                0x0203d4c0                d_playerB_sob_0B
                0x0203d688                d_playerB_sob_1C
                0x0203d670                d_playerB_sob_1B
                0x0203d5d0                d_playerB_sob_15
                0x0203d468                d_playerB_sob_06
                0x0203d3d8                d_playerB_sob_00
                0x0203d500                d_playerB_sob_0E
                0x0203d3f0                d_playerB_sob_01
                0x0203d480                d_playerB_sob_08
                0x0203d498                d_playerB_sob_09
                0x0203d5a0                d_playerB_sob_14
                0x0203d698                d_playerB_sob_1D
                0x0203d5e8                d_playerB_sob_16
                0x0203d610                d_playerB_sob_17
                0x0203d420                d_playerB_sob_03
                0x0203d4e8                d_playerB_sob_0D
                0x0203d560                d_playerB_sob_12
                0x0203d4a8                d_playerB_sob_0A
                0x0203d530                d_playerB_sob_10
                0x0203d658                d_playerB_sob_1A
                0x0203d578                d_playerB_sob_13
                0x0203d628                d_playerB_sob_18
                0x0203d640                d_playerB_sob_19
                0x0203d438                d_playerB_sob_04
                0x0203d450                d_playerB_sob_05
 .data          0x0203d6b0      0x2e0 course_data.o
                0x0203d8d4                MapData5
                0x0203d870                MapData0
                0x0203d8e8                MapData6
                0x0203d850                EnDtBtl_0B
                0x0203d6f0                EnDtBtl_00
                0x0203d770                EnDtBtl_04
                0x0203d924                MapData9
                0x0203d8c0                MapData4
                0x0203d6e0                BGCoinData
                0x0203d94c                MapDataB
                0x0203d830                EnDtBtl_0A
                0x0203d7f0                EnDtBtl_08
                0x0203d938                MapDataA
                0x0203d8ac                MapData3
                0x0203d6b0                BrosCourseTable
                0x0203d750                EnDtBtl_03
                0x0203d7d0                EnDtBtl_07
                0x0203d790                EnDtBtl_05
                0x0203d910                MapData8
                0x0203d960                MapDataTBL
                0x0203d884                MapData1
                0x0203d8fc                MapData7
                0x0203d898                MapData2
                0x0203d810                EnDtBtl_09
                0x0203d710                EnDtBtl_01
                0x0203d730                EnDtBtl_02
                0x0203d7b0                EnDtBtl_06
 .data          0x0203d990      0x2f0 C:\PROGRA~1\Cygnus\thumbelf-000512\H-i686-cygwin32\bin/../lib/gcc-lib/thumb-elf/2.9-arm-000512/../../../../thumb-elf/lib/libg.a(impure.o)
                0x0203dc7c                _impure_ptr
 .data          0x0203dc80       0x14 C:\PROGRA~1\Cygnus\thumbelf-000512\H-i686-cygwin32\bin/../lib/gcc-lib/thumb-elf/2.9-arm-000512/../../../../thumb-elf/lib/libg.a(locale.o)
                0x0203dc80                __mb_cur_max
 .data          0x0203dc94      0x444 C:\PROGRA~1\Cygnus\thumbelf-000512\H-i686-cygwin32\bin/../lib/gcc-lib/thumb-elf/2.9-arm-000512/../../../../thumb-elf/lib/libg.a(mallocr.o)
                0x0203e0a0                __malloc_top_pad
                0x0203e0a8                __malloc_max_sbrked_mem
                0x0203e0a4                __malloc_sbrk_base
                0x0203e0b0                __malloc_current_mallinfo
                0x0203dc94                __malloc_av_
                0x0203e0ac                __malloc_max_total_mem
                0x0203e09c                __malloc_trim_threshold
d1437 4
a1440 4
                0x0203e0d8                _edata=.
                0x0203e0d8                PROVIDE (edata, .)
                0x0203e0d8                __bss_start=.
                0x0203e0d8                __bss_start__=.
d1688 1
a1688 1
                0x00000000     0x2e56
d1701 1
a1701 1
                0x000004e0      0x779 m_game_sub.o
d1703 1
a1703 1
                0x00000c59       0x35 m_battle_mult_play.o
d1705 1
a1705 1
                0x00000c8e       0x37 cm_game_title.o
d1707 1
a1707 1
                0x00000cc5       0x8d m_sub.o
d1709 1
a1709 1
                0x00000d52       0x2e m_scroll.o
d1711 1
a1711 1
                0x00000d80       0x55 m_bgcheck.o
d1713 1
a1713 1
                0x00000dd5       0xb5 m_MultiSio.o
d1715 1
a1715 1
                0x00000e8a       0x6d ba_act.o
d1717 1
a1717 1
                0x00000ef7       0x3e ba_bgYuKa.o
d1719 1
a1719 1
                0x00000f35       0xd3 ba_bucket.o
d1721 1
a1721 1
                0x00001008       0x8e ba_Coin.o
d1723 1
a1723 1
                0x00001096      0x1a1 ba_common.o
d1725 1
a1725 1
                0x00001237       0x39 ba_egg.o
d1727 1
a1727 1
                0x00001270       0xcc ba_enFly.o
d1729 1
a1729 1
                0x0000133c       0xf1 ba_enKani.o
d1731 1
a1731 1
                0x0000142d      0x2a0 ba_enmy.o
d1733 1
a1733 1
                0x000016cd       0x24 ba_enNoko.o
d1735 1
a1735 1
                0x000016f1       0xc1 ba_enToge.o
d1737 1
a1737 1
                0x000017b2       0xdc ba_fire.o
d1739 1
a1739 1
                0x0000188e       0x35 ba_fishBone.o
d1741 1
a1741 1
                0x000018c3       0x2f ba_heart.o
d1743 1
a1743 1
                0x000018f2      0x112 ba_ice.o
d1745 1
a1745 1
                0x00001a04       0x94 ba_koura.o
d1747 1
a1747 1
                0x00001a98      0x2e4 ba_kuppa.o
d1749 1
a1749 1
                0x00001d7c       0x60 ba_mutekiStar.o
d1751 1
a1751 1
                0x00001ddc       0x47 ba_PipeWave.o
d1753 1
a1753 1
                0x00001e23       0x30 ba_point.o
d1755 1
a1755 1
                0x00001e53       0x48 ba_pow.o
d1757 1
a1757 1
                0x00001e9b       0x32 ba_smoke.o
d1759 1
a1759 1
                0x00001ecd       0x3b ba_spark.o
d1761 1
a1761 1
                0x00001f08       0x32 ba_splash.o
d1763 1
a1763 1
                0x00001f3a       0x2d ba_star.o
d1765 1
a1765 1
                0x00001f67       0xeb ba_icicle.o
d1767 1
a1767 1
                0x00002052       0x32 ba_powsmk.o
d1769 1
a1769 1
                0x00002084       0x59 m_mini_malloc.o
d1771 1
a1771 1
                0x000020dd       0x26 d_bros_BG_scl.o
d1773 1
a1773 1
                0x00002103       0x27 d_Bros_obj_scl.o
d1775 1
a1775 1
                0x0000212a       0x2e d_Bros_obj_winner_scl.o
d1777 1
a1777 1
                0x00002158      0x25e d_playerA_sob.o
d1779 1
a1779 1
                0x000023b6      0x273 d_playerB_sob.o
d1781 1
a1781 1
                0x00002629      0x1da course_data.o
d1783 1
a1783 1
                0x00002803       0x1f C:\PROGRA~1\Cygnus\thumbelf-000512\H-i686-cygwin32\bin/../lib/gcc-lib/thumb-elf/2.9-arm-000512/../../../../thumb-elf/lib/libg.a(assert.o)
d1785 1
a1785 1
                0x00002822       0x1f C:\PROGRA~1\Cygnus\thumbelf-000512\H-i686-cygwin32\bin/../lib/gcc-lib/thumb-elf/2.9-arm-000512/../../../../thumb-elf/lib/libg.a(fiprintf.o)
d1787 1
a1787 1
                0x00002841       0x22 C:\PROGRA~1\Cygnus\thumbelf-000512\H-i686-cygwin32\bin/../lib/gcc-lib/thumb-elf/2.9-arm-000512/../../../../thumb-elf/lib/libg.a(impure.o)
d1789 1
a1789 1
                0x00002863       0x31 C:\PROGRA~1\Cygnus\thumbelf-000512\H-i686-cygwin32\bin/../lib/gcc-lib/thumb-elf/2.9-arm-000512/../../../../thumb-elf/lib/libg.a(libcfunc.o)
d1791 1
a1791 1
                0x00002894       0x1d C:\PROGRA~1\Cygnus\thumbelf-000512\H-i686-cygwin32\bin/../lib/gcc-lib/thumb-elf/2.9-arm-000512/../../../../thumb-elf/lib/libg.a(memcpy.o)
d1793 1
a1793 1
                0x000028b1       0x31 C:\PROGRA~1\Cygnus\thumbelf-000512\H-i686-cygwin32\bin/../lib/gcc-lib/thumb-elf/2.9-arm-000512/../../../../thumb-elf/lib/libg.a(vfiprintf.o)
d1795 1
a1795 1
                0x000028e2       0x20 C:\PROGRA~1\Cygnus\thumbelf-000512\H-i686-cygwin32\bin/../lib/gcc-lib/thumb-elf/2.9-arm-000512/../../../../thumb-elf/lib/libg.a(wsetup.o)
d1797 1
a1797 1
                0x00002902       0x1d C:\PROGRA~1\Cygnus\thumbelf-000512\H-i686-cygwin32\bin/../lib/gcc-lib/thumb-elf/2.9-arm-000512/../../../../thumb-elf/lib/libg.a(fflush.o)
d1799 1
a1799 1
                0x0000291f       0x55 C:\PROGRA~1\Cygnus\thumbelf-000512\H-i686-cygwin32\bin/../lib/gcc-lib/thumb-elf/2.9-arm-000512/../../../../thumb-elf/lib/libg.a(findfp.o)
d1801 1
a1801 1
                0x00002974       0x31 C:\PROGRA~1\Cygnus\thumbelf-000512\H-i686-cygwin32\bin/../lib/gcc-lib/thumb-elf/2.9-arm-000512/../../../../thumb-elf/lib/libg.a(freer.o)
d1803 1
a1803 1
                0x000029a5       0x21 C:\PROGRA~1\Cygnus\thumbelf-000512\H-i686-cygwin32\bin/../lib/gcc-lib/thumb-elf/2.9-arm-000512/../../../../thumb-elf/lib/libg.a(fvwrite.o)
d1805 1
a1805 1
                0x000029c6       0x1d C:\PROGRA~1\Cygnus\thumbelf-000512\H-i686-cygwin32\bin/../lib/gcc-lib/thumb-elf/2.9-arm-000512/../../../../thumb-elf/lib/libg.a(fwalk.o)
d1807 1
a1807 1
                0x000029e3       0x63 C:\PROGRA~1\Cygnus\thumbelf-000512\H-i686-cygwin32\bin/../lib/gcc-lib/thumb-elf/2.9-arm-000512/../../../../thumb-elf/lib/libg.a(locale.o)
d1809 1
a1809 1
                0x00002a46       0x21 C:\PROGRA~1\Cygnus\thumbelf-000512\H-i686-cygwin32\bin/../lib/gcc-lib/thumb-elf/2.9-arm-000512/../../../../thumb-elf/lib/libg.a(makebuf.o)
d1811 1
a1811 1
                0x00002a67       0xce C:\PROGRA~1\Cygnus\thumbelf-000512\H-i686-cygwin32\bin/../lib/gcc-lib/thumb-elf/2.9-arm-000512/../../../../thumb-elf/lib/libg.a(mallocr.o)
d1813 1
a1813 1
                0x00002b35       0x20 C:\PROGRA~1\Cygnus\thumbelf-000512\H-i686-cygwin32\bin/../lib/gcc-lib/thumb-elf/2.9-arm-000512/../../../../thumb-elf/lib/libg.a(mbtowc_r.o)
d1815 1
a1815 1
                0x00002b55       0x1d C:\PROGRA~1\Cygnus\thumbelf-000512\H-i686-cygwin32\bin/../lib/gcc-lib/thumb-elf/2.9-arm-000512/../../../../thumb-elf/lib/libg.a(memchr.o)
d1817 1
a1817 1
                0x00002b72       0x1e C:\PROGRA~1\Cygnus\thumbelf-000512\H-i686-cygwin32\bin/../lib/gcc-lib/thumb-elf/2.9-arm-000512/../../../../thumb-elf/lib/libg.a(memmove.o)
d1819 1
a1819 1
                0x00002b90       0x1d C:\PROGRA~1\Cygnus\thumbelf-000512\H-i686-cygwin32\bin/../lib/gcc-lib/thumb-elf/2.9-arm-000512/../../../../thumb-elf/lib/libg.a(memset.o)
d1821 1
a1821 1
                0x00002bad       0x38 C:\PROGRA~1\Cygnus\thumbelf-000512\H-i686-cygwin32\bin/../lib/gcc-lib/thumb-elf/2.9-arm-000512/../../../../thumb-elf/lib/libg.a(mlock.o)
d1823 1
a1823 1
                0x00002be5       0x28 C:\PROGRA~1\Cygnus\thumbelf-000512\H-i686-cygwin32\bin/../lib/gcc-lib/thumb-elf/2.9-arm-000512/../../../../thumb-elf/lib/libg.a(sbrkr.o)
d1825 1
a1825 1
                0x00002c0d       0x44 C:\PROGRA~1\Cygnus\thumbelf-000512\H-i686-cygwin32\bin/../lib/gcc-lib/thumb-elf/2.9-arm-000512/../../../../thumb-elf/lib/libg.a(stdio.o)
d1827 1
a1827 1
                0x00002c51       0x1d C:\PROGRA~1\Cygnus\thumbelf-000512\H-i686-cygwin32\bin/../lib/gcc-lib/thumb-elf/2.9-arm-000512/../../../../thumb-elf/lib/libg.a(strcmp.o)
d1829 1
a1829 1
                0x00002c6e       0x1d C:\PROGRA~1\Cygnus\thumbelf-000512\H-i686-cygwin32\bin/../lib/gcc-lib/thumb-elf/2.9-arm-000512/../../../../thumb-elf/lib/libg.a(strlen.o)
d1831 1
a1831 1
                0x00002c8b      0x113 C:\PROGRA~1\Cygnus\thumbelf-000512\H-i686-cygwin32\bin/../lib/gcc-lib/thumb-elf/2.9-arm-000512/../../../../thumb-elf/lib/libg.a(syscalls.o)
d1833 1
a1833 1
                0x00002d9e       0x1f C:\PROGRA~1\Cygnus\thumbelf-000512\H-i686-cygwin32\bin/../lib/gcc-lib/thumb-elf/2.9-arm-000512/../../../../thumb-elf/lib/libg.a(writer.o)
d1835 1
a1835 1
                0x00002dbd       0x1f C:\PROGRA~1\Cygnus\thumbelf-000512\H-i686-cygwin32\bin/../lib/gcc-lib/thumb-elf/2.9-arm-000512/../../../../thumb-elf/lib/libg.a(closer.o)
d1837 1
a1837 1
                0x00002ddc       0x1e C:\PROGRA~1\Cygnus\thumbelf-000512\H-i686-cygwin32\bin/../lib/gcc-lib/thumb-elf/2.9-arm-000512/../../../../thumb-elf/lib/libg.a(errno.o)
d1839 1
a1839 1
                0x00002dfa       0x1f C:\PROGRA~1\Cygnus\thumbelf-000512\H-i686-cygwin32\bin/../lib/gcc-lib/thumb-elf/2.9-arm-000512/../../../../thumb-elf/lib/libg.a(fstatr.o)
d1841 1
a1841 1
                0x00002e19       0x1f C:\PROGRA~1\Cygnus\thumbelf-000512\H-i686-cygwin32\bin/../lib/gcc-lib/thumb-elf/2.9-arm-000512/../../../../thumb-elf/lib/libg.a(lseekr.o)
d1843 1
a1843 1
                0x00002e38       0x1e C:\PROGRA~1\Cygnus\thumbelf-000512\H-i686-cygwin32\bin/../lib/gcc-lib/thumb-elf/2.9-arm-000512/../../../../thumb-elf/lib/libg.a(readr.o)
d1845 1
a1845 1
.debug_info     0x00000000   0x1974df
d1847 77
a1923 77
 .debug_info    0x00000000     0x8e77 ba_effect.o
 .debug_info    0x00008e77     0xca0e ba_player.o
 .debug_info    0x00015885     0x8e4f ba_reach.o
 .debug_info    0x0001e6d4     0x8ff3 cm_game.o
 .debug_info    0x000276c7     0x90ba cm_main.o
 .debug_info    0x00030781     0xae88 m_game_sub.o
 .debug_info    0x0003b609     0x9308 m_battle_mult_play.o
 .debug_info    0x00044911     0x8f20 cm_game_title.o
 .debug_info    0x0004d831     0x8ecc m_sub.o
 .debug_info    0x000566fd     0x8d86 m_scroll.o
 .debug_info    0x0005f483     0x8eee m_bgcheck.o
 .debug_info    0x00068371     0x9066 m_MultiSio.o
 .debug_info    0x000713d7     0x9b1a ba_act.o
 .debug_info    0x0007aef1     0x94b0 ba_bgYuKa.o
 .debug_info    0x000843a1     0x9b55 ba_bucket.o
 .debug_info    0x0008def6     0x958e ba_Coin.o
 .debug_info    0x00097484     0x9758 ba_common.o
 .debug_info    0x000a0bdc     0x931a ba_egg.o
 .debug_info    0x000a9ef6     0x96a8 ba_enFly.o
 .debug_info    0x000b359e     0x9723 ba_enKani.o
 .debug_info    0x000bccc1     0x9ed9 ba_enmy.o
 .debug_info    0x000c6b9a     0x8f9a ba_enNoko.o
 .debug_info    0x000cfb34     0x9668 ba_enToge.o
 .debug_info    0x000d919c     0x9532 ba_fire.o
 .debug_info    0x000e26ce     0x8f1e ba_fishBone.o
 .debug_info    0x000eb5ec     0x8f5c ba_heart.o
 .debug_info    0x000f4548     0x9816 ba_ice.o
 .debug_info    0x000fdd5e     0x958b ba_koura.o
 .debug_info    0x001072e9     0x9c3b ba_kuppa.o
 .debug_info    0x00110f24     0x8f4a ba_mutekiStar.o
 .debug_info    0x00119e6e     0x923e ba_PipeWave.o
 .debug_info    0x001230ac     0x8ebd ba_point.o
 .debug_info    0x0012bf69     0x92b4 ba_pow.o
 .debug_info    0x0013521d     0x8df1 ba_smoke.o
 .debug_info    0x0013e00e     0x90e6 ba_spark.o
 .debug_info    0x001470f4     0x9072 ba_splash.o
 .debug_info    0x00150166     0x8f44 ba_star.o
 .debug_info    0x001590aa     0x9428 ba_icicle.o
 .debug_info    0x001624d2     0x8f6f ba_powsmk.o
 .debug_info    0x0016b441      0xbb2 m_mini_malloc.o
 .debug_info    0x0016bff3     0x2dc0 d_bros_BG_scl.o
 .debug_info    0x0016edb3     0x2dc2 d_Bros_obj_scl.o
 .debug_info    0x00171b75     0x2dd0 d_Bros_obj_winner_scl.o
 .debug_info    0x00174945     0x324f d_playerA_sob.o
 .debug_info    0x00177b94     0x327b d_playerB_sob.o
 .debug_info    0x0017ae0f     0x90d8 course_data.o
 .debug_info    0x00183ee7      0x9b0 C:\PROGRA~1\Cygnus\thumbelf-000512\H-i686-cygwin32\bin/../lib/gcc-lib/thumb-elf/2.9-arm-000512/../../../../thumb-elf/lib/libg.a(assert.o)
 .debug_info    0x00184897      0x94a C:\PROGRA~1\Cygnus\thumbelf-000512\H-i686-cygwin32\bin/../lib/gcc-lib/thumb-elf/2.9-arm-000512/../../../../thumb-elf/lib/libg.a(fiprintf.o)
 .debug_info    0x001851e1      0x90d C:\PROGRA~1\Cygnus\thumbelf-000512\H-i686-cygwin32\bin/../lib/gcc-lib/thumb-elf/2.9-arm-000512/../../../../thumb-elf/lib/libg.a(impure.o)
 .debug_info    0x00185aee      0x1ab C:\PROGRA~1\Cygnus\thumbelf-000512\H-i686-cygwin32\bin/../lib/gcc-lib/thumb-elf/2.9-arm-000512/../../../../thumb-elf/lib/libg.a(libcfunc.o)
 .debug_info    0x00185c99      0x24b C:\PROGRA~1\Cygnus\thumbelf-000512\H-i686-cygwin32\bin/../lib/gcc-lib/thumb-elf/2.9-arm-000512/../../../../thumb-elf/lib/libg.a(memcpy.o)
 .debug_info    0x00185ee4     0x1330 C:\PROGRA~1\Cygnus\thumbelf-000512\H-i686-cygwin32\bin/../lib/gcc-lib/thumb-elf/2.9-arm-000512/../../../../thumb-elf/lib/libg.a(vfiprintf.o)
 .debug_info    0x00187214      0xb74 C:\PROGRA~1\Cygnus\thumbelf-000512\H-i686-cygwin32\bin/../lib/gcc-lib/thumb-elf/2.9-arm-000512/../../../../thumb-elf/lib/libg.a(wsetup.o)
 .debug_info    0x00187d88      0xb2b C:\PROGRA~1\Cygnus\thumbelf-000512\H-i686-cygwin32\bin/../lib/gcc-lib/thumb-elf/2.9-arm-000512/../../../../thumb-elf/lib/libg.a(fflush.o)
 .debug_info    0x001888b3      0xca7 C:\PROGRA~1\Cygnus\thumbelf-000512\H-i686-cygwin32\bin/../lib/gcc-lib/thumb-elf/2.9-arm-000512/../../../../thumb-elf/lib/libg.a(findfp.o)
 .debug_info    0x0018955a      0xe2d C:\PROGRA~1\Cygnus\thumbelf-000512\H-i686-cygwin32\bin/../lib/gcc-lib/thumb-elf/2.9-arm-000512/../../../../thumb-elf/lib/libg.a(freer.o)
 .debug_info    0x0018a387      0xc18 C:\PROGRA~1\Cygnus\thumbelf-000512\H-i686-cygwin32\bin/../lib/gcc-lib/thumb-elf/2.9-arm-000512/../../../../thumb-elf/lib/libg.a(fvwrite.o)
 .debug_info    0x0018af9f      0xbae C:\PROGRA~1\Cygnus\thumbelf-000512\H-i686-cygwin32\bin/../lib/gcc-lib/thumb-elf/2.9-arm-000512/../../../../thumb-elf/lib/libg.a(fwalk.o)
 .debug_info    0x0018bb4d      0xc33 C:\PROGRA~1\Cygnus\thumbelf-000512\H-i686-cygwin32\bin/../lib/gcc-lib/thumb-elf/2.9-arm-000512/../../../../thumb-elf/lib/libg.a(locale.o)
 .debug_info    0x0018c780      0xd3f C:\PROGRA~1\Cygnus\thumbelf-000512\H-i686-cygwin32\bin/../lib/gcc-lib/thumb-elf/2.9-arm-000512/../../../../thumb-elf/lib/libg.a(makebuf.o)
 .debug_info    0x0018d4bf      0xf56 C:\PROGRA~1\Cygnus\thumbelf-000512\H-i686-cygwin32\bin/../lib/gcc-lib/thumb-elf/2.9-arm-000512/../../../../thumb-elf/lib/libg.a(mallocr.o)
 .debug_info    0x0018e415      0xb86 C:\PROGRA~1\Cygnus\thumbelf-000512\H-i686-cygwin32\bin/../lib/gcc-lib/thumb-elf/2.9-arm-000512/../../../../thumb-elf/lib/libg.a(mbtowc_r.o)
 .debug_info    0x0018ef9b      0x209 C:\PROGRA~1\Cygnus\thumbelf-000512\H-i686-cygwin32\bin/../lib/gcc-lib/thumb-elf/2.9-arm-000512/../../../../thumb-elf/lib/libg.a(memchr.o)
 .debug_info    0x0018f1a4      0x257 C:\PROGRA~1\Cygnus\thumbelf-000512\H-i686-cygwin32\bin/../lib/gcc-lib/thumb-elf/2.9-arm-000512/../../../../thumb-elf/lib/libg.a(memmove.o)
 .debug_info    0x0018f3fb      0x20d C:\PROGRA~1\Cygnus\thumbelf-000512\H-i686-cygwin32\bin/../lib/gcc-lib/thumb-elf/2.9-arm-000512/../../../../thumb-elf/lib/libg.a(memset.o)
 .debug_info    0x0018f608      0x9d1 C:\PROGRA~1\Cygnus\thumbelf-000512\H-i686-cygwin32\bin/../lib/gcc-lib/thumb-elf/2.9-arm-000512/../../../../thumb-elf/lib/libg.a(mlock.o)
 .debug_info    0x0018ffd9      0xaea C:\PROGRA~1\Cygnus\thumbelf-000512\H-i686-cygwin32\bin/../lib/gcc-lib/thumb-elf/2.9-arm-000512/../../../../thumb-elf/lib/libg.a(sbrkr.o)
 .debug_info    0x00190ac3      0xe8f C:\PROGRA~1\Cygnus\thumbelf-000512\H-i686-cygwin32\bin/../lib/gcc-lib/thumb-elf/2.9-arm-000512/../../../../thumb-elf/lib/libg.a(stdio.o)
 .debug_info    0x00191952      0x1a1 C:\PROGRA~1\Cygnus\thumbelf-000512\H-i686-cygwin32\bin/../lib/gcc-lib/thumb-elf/2.9-arm-000512/../../../../thumb-elf/lib/libg.a(strcmp.o)
 .debug_info    0x00191af3      0x1ad C:\PROGRA~1\Cygnus\thumbelf-000512\H-i686-cygwin32\bin/../lib/gcc-lib/thumb-elf/2.9-arm-000512/../../../../thumb-elf/lib/libg.a(strlen.o)
 .debug_info    0x00191ca0     0x1833 C:\PROGRA~1\Cygnus\thumbelf-000512\H-i686-cygwin32\bin/../lib/gcc-lib/thumb-elf/2.9-arm-000512/../../../../thumb-elf/lib/libg.a(syscalls.o)
 .debug_info    0x001934d3      0xb12 C:\PROGRA~1\Cygnus\thumbelf-000512\H-i686-cygwin32\bin/../lib/gcc-lib/thumb-elf/2.9-arm-000512/../../../../thumb-elf/lib/libg.a(writer.o)
 .debug_info    0x00193fe5      0xadb C:\PROGRA~1\Cygnus\thumbelf-000512\H-i686-cygwin32\bin/../lib/gcc-lib/thumb-elf/2.9-arm-000512/../../../../thumb-elf/lib/libg.a(closer.o)
 .debug_info    0x00194ac0      0x91b C:\PROGRA~1\Cygnus\thumbelf-000512\H-i686-cygwin32\bin/../lib/gcc-lib/thumb-elf/2.9-arm-000512/../../../../thumb-elf/lib/libg.a(errno.o)
 .debug_info    0x001953db      0xaf0 C:\PROGRA~1\Cygnus\thumbelf-000512\H-i686-cygwin32\bin/../lib/gcc-lib/thumb-elf/2.9-arm-000512/../../../../thumb-elf/lib/libg.a(fstatr.o)
 .debug_info    0x00195ecb      0xb0b C:\PROGRA~1\Cygnus\thumbelf-000512\H-i686-cygwin32\bin/../lib/gcc-lib/thumb-elf/2.9-arm-000512/../../../../thumb-elf/lib/libg.a(lseekr.o)
 .debug_info    0x001969d6      0xb09 C:\PROGRA~1\Cygnus\thumbelf-000512\H-i686-cygwin32\bin/../lib/gcc-lib/thumb-elf/2.9-arm-000512/../../../../thumb-elf/lib/libg.a(readr.o)
d2005 1
a2005 1
.debug_line     0x00000000    0x2229d
d2008 69
a2076 69
 .debug_line    0x00000278     0x59e8 ba_player.o
 .debug_line    0x00005c60      0x44e ba_reach.o
 .debug_line    0x000060ae      0x876 cm_game.o
 .debug_line    0x00006924      0x4a4 cm_main.o
 .debug_line    0x00006dc8     0x342a m_game_sub.o
 .debug_line    0x0000a1f2      0x757 m_battle_mult_play.o
 .debug_line    0x0000a949      0x40e cm_game_title.o
 .debug_line    0x0000ad57      0x3e0 m_sub.o
 .debug_line    0x0000b137      0x209 m_scroll.o
 .debug_line    0x0000b340      0x31a m_bgcheck.o
 .debug_line    0x0000b65a      0x73d m_MultiSio.o
 .debug_line    0x0000bd97      0x3fa ba_act.o
 .debug_line    0x0000c191      0x841 ba_bgYuKa.o
 .debug_line    0x0000c9d2      0xe91 ba_bucket.o
 .debug_line    0x0000d863      0xc5e ba_Coin.o
 .debug_line    0x0000e4c1      0xe5e ba_common.o
 .debug_line    0x0000f31f      0x6e5 ba_egg.o
 .debug_line    0x0000fa04      0xe40 ba_enFly.o
 .debug_line    0x00010844      0xf42 ba_enKani.o
 .debug_line    0x00011786     0x11f4 ba_enmy.o
 .debug_line    0x0001297a      0x1fa ba_enNoko.o
 .debug_line    0x00012b74      0xef2 ba_enToge.o
 .debug_line    0x00013a66      0xc35 ba_fire.o
 .debug_line    0x0001469b      0x35d ba_fishBone.o
 .debug_line    0x000149f8      0x4a3 ba_heart.o
 .debug_line    0x00014e9b      0xf23 ba_ice.o
 .debug_line    0x00015dbe      0x971 ba_koura.o
 .debug_line    0x0001672f      0xcce ba_kuppa.o
 .debug_line    0x000173fd      0x371 ba_mutekiStar.o
 .debug_line    0x0001776e      0x63d ba_PipeWave.o
 .debug_line    0x00017dab      0x379 ba_point.o
 .debug_line    0x00018124      0x975 ba_pow.o
 .debug_line    0x00018a99      0x271 ba_smoke.o
 .debug_line    0x00018d0a      0x581 ba_spark.o
 .debug_line    0x0001928b      0x2ea ba_splash.o
 .debug_line    0x00019575      0x451 ba_star.o
 .debug_line    0x000199c6      0x6c6 ba_icicle.o
 .debug_line    0x0001a08c      0x34a ba_powsmk.o
 .debug_line    0x0001a3d6      0x635 m_mini_malloc.o
 .debug_line    0x0001aa0b      0x33c C:\PROGRA~1\Cygnus\thumbelf-000512\H-i686-cygwin32\bin/../lib/gcc-lib/thumb-elf/2.9-arm-000512/../../../../thumb-elf/lib/libg.a(assert.o)
 .debug_line    0x0001ad47      0x2e9 C:\PROGRA~1\Cygnus\thumbelf-000512\H-i686-cygwin32\bin/../lib/gcc-lib/thumb-elf/2.9-arm-000512/../../../../thumb-elf/lib/libg.a(fiprintf.o)
 .debug_line    0x0001b030       0xe3 C:\PROGRA~1\Cygnus\thumbelf-000512\H-i686-cygwin32\bin/../lib/gcc-lib/thumb-elf/2.9-arm-000512/../../../../thumb-elf/lib/libg.a(libcfunc.o)
 .debug_line    0x0001b113      0x1e5 C:\PROGRA~1\Cygnus\thumbelf-000512\H-i686-cygwin32\bin/../lib/gcc-lib/thumb-elf/2.9-arm-000512/../../../../thumb-elf/lib/libg.a(memcpy.o)
 .debug_line    0x0001b2f8      0xb33 C:\PROGRA~1\Cygnus\thumbelf-000512\H-i686-cygwin32\bin/../lib/gcc-lib/thumb-elf/2.9-arm-000512/../../../../thumb-elf/lib/libg.a(vfiprintf.o)
 .debug_line    0x0001be2b      0x482 C:\PROGRA~1\Cygnus\thumbelf-000512\H-i686-cygwin32\bin/../lib/gcc-lib/thumb-elf/2.9-arm-000512/../../../../thumb-elf/lib/libg.a(wsetup.o)
 .debug_line    0x0001c2ad      0x41e C:\PROGRA~1\Cygnus\thumbelf-000512\H-i686-cygwin32\bin/../lib/gcc-lib/thumb-elf/2.9-arm-000512/../../../../thumb-elf/lib/libg.a(fflush.o)
 .debug_line    0x0001c6cb      0x612 C:\PROGRA~1\Cygnus\thumbelf-000512\H-i686-cygwin32\bin/../lib/gcc-lib/thumb-elf/2.9-arm-000512/../../../../thumb-elf/lib/libg.a(findfp.o)
 .debug_line    0x0001ccdd      0x596 C:\PROGRA~1\Cygnus\thumbelf-000512\H-i686-cygwin32\bin/../lib/gcc-lib/thumb-elf/2.9-arm-000512/../../../../thumb-elf/lib/libg.a(freer.o)
 .debug_line    0x0001d273      0x61a C:\PROGRA~1\Cygnus\thumbelf-000512\H-i686-cygwin32\bin/../lib/gcc-lib/thumb-elf/2.9-arm-000512/../../../../thumb-elf/lib/libg.a(fvwrite.o)
 .debug_line    0x0001d88d      0x431 C:\PROGRA~1\Cygnus\thumbelf-000512\H-i686-cygwin32\bin/../lib/gcc-lib/thumb-elf/2.9-arm-000512/../../../../thumb-elf/lib/libg.a(fwalk.o)
 .debug_line    0x0001dcbe      0x34a C:\PROGRA~1\Cygnus\thumbelf-000512\H-i686-cygwin32\bin/../lib/gcc-lib/thumb-elf/2.9-arm-000512/../../../../thumb-elf/lib/libg.a(locale.o)
 .debug_line    0x0001e008      0x511 C:\PROGRA~1\Cygnus\thumbelf-000512\H-i686-cygwin32\bin/../lib/gcc-lib/thumb-elf/2.9-arm-000512/../../../../thumb-elf/lib/libg.a(makebuf.o)
 .debug_line    0x0001e519      0x84c C:\PROGRA~1\Cygnus\thumbelf-000512\H-i686-cygwin32\bin/../lib/gcc-lib/thumb-elf/2.9-arm-000512/../../../../thumb-elf/lib/libg.a(mallocr.o)
 .debug_line    0x0001ed65      0x310 C:\PROGRA~1\Cygnus\thumbelf-000512\H-i686-cygwin32\bin/../lib/gcc-lib/thumb-elf/2.9-arm-000512/../../../../thumb-elf/lib/libg.a(mbtowc_r.o)
 .debug_line    0x0001f075      0x22d C:\PROGRA~1\Cygnus\thumbelf-000512\H-i686-cygwin32\bin/../lib/gcc-lib/thumb-elf/2.9-arm-000512/../../../../thumb-elf/lib/libg.a(memchr.o)
 .debug_line    0x0001f2a2      0x226 C:\PROGRA~1\Cygnus\thumbelf-000512\H-i686-cygwin32\bin/../lib/gcc-lib/thumb-elf/2.9-arm-000512/../../../../thumb-elf/lib/libg.a(memmove.o)
 .debug_line    0x0001f4c8      0x20d C:\PROGRA~1\Cygnus\thumbelf-000512\H-i686-cygwin32\bin/../lib/gcc-lib/thumb-elf/2.9-arm-000512/../../../../thumb-elf/lib/libg.a(memset.o)
 .debug_line    0x0001f6d5      0x279 C:\PROGRA~1\Cygnus\thumbelf-000512\H-i686-cygwin32\bin/../lib/gcc-lib/thumb-elf/2.9-arm-000512/../../../../thumb-elf/lib/libg.a(mlock.o)
 .debug_line    0x0001f94e      0x2f3 C:\PROGRA~1\Cygnus\thumbelf-000512\H-i686-cygwin32\bin/../lib/gcc-lib/thumb-elf/2.9-arm-000512/../../../../thumb-elf/lib/libg.a(sbrkr.o)
 .debug_line    0x0001fc41      0x51a C:\PROGRA~1\Cygnus\thumbelf-000512\H-i686-cygwin32\bin/../lib/gcc-lib/thumb-elf/2.9-arm-000512/../../../../thumb-elf/lib/libg.a(stdio.o)
 .debug_line    0x0002015b      0x1bd C:\PROGRA~1\Cygnus\thumbelf-000512\H-i686-cygwin32\bin/../lib/gcc-lib/thumb-elf/2.9-arm-000512/../../../../thumb-elf/lib/libg.a(strcmp.o)
 .debug_line    0x00020318      0x19d C:\PROGRA~1\Cygnus\thumbelf-000512\H-i686-cygwin32\bin/../lib/gcc-lib/thumb-elf/2.9-arm-000512/../../../../thumb-elf/lib/libg.a(strlen.o)
 .debug_line    0x000204b5      0xcb1 C:\PROGRA~1\Cygnus\thumbelf-000512\H-i686-cygwin32\bin/../lib/gcc-lib/thumb-elf/2.9-arm-000512/../../../../thumb-elf/lib/libg.a(syscalls.o)
 .debug_line    0x00021166      0x2f4 C:\PROGRA~1\Cygnus\thumbelf-000512\H-i686-cygwin32\bin/../lib/gcc-lib/thumb-elf/2.9-arm-000512/../../../../thumb-elf/lib/libg.a(writer.o)
 .debug_line    0x0002145a      0x2f4 C:\PROGRA~1\Cygnus\thumbelf-000512\H-i686-cygwin32\bin/../lib/gcc-lib/thumb-elf/2.9-arm-000512/../../../../thumb-elf/lib/libg.a(closer.o)
 .debug_line    0x0002174e      0x274 C:\PROGRA~1\Cygnus\thumbelf-000512\H-i686-cygwin32\bin/../lib/gcc-lib/thumb-elf/2.9-arm-000512/../../../../thumb-elf/lib/libg.a(errno.o)
 .debug_line    0x000219c2      0x2f4 C:\PROGRA~1\Cygnus\thumbelf-000512\H-i686-cygwin32\bin/../lib/gcc-lib/thumb-elf/2.9-arm-000512/../../../../thumb-elf/lib/libg.a(fstatr.o)
 .debug_line    0x00021cb6      0x2f4 C:\PROGRA~1\Cygnus\thumbelf-000512\H-i686-cygwin32\bin/../lib/gcc-lib/thumb-elf/2.9-arm-000512/../../../../thumb-elf/lib/libg.a(lseekr.o)
 .debug_line    0x00021faa      0x2f3 C:\PROGRA~1\Cygnus\thumbelf-000512\H-i686-cygwin32\bin/../lib/gcc-lib/thumb-elf/2.9-arm-000512/../../../../thumb-elf/lib/libg.a(readr.o)
@


1.1.1.1
log
@start
@
text
@@
